ARM GAS  C:\Users\EDTRIC~1\AppData\Local\Temp\ccbcYoXT.s 			page 1


   1              		.cpu cortex-m0
   2              		.fpu softvfp
   3              		.eabi_attribute 20, 1
   4              		.eabi_attribute 21, 1
   5              		.eabi_attribute 23, 3
   6              		.eabi_attribute 24, 1
   7              		.eabi_attribute 25, 1
   8              		.eabi_attribute 26, 1
   9              		.eabi_attribute 30, 1
  10              		.eabi_attribute 34, 0
  11              		.eabi_attribute 18, 4
  12              		.code	16
  13              		.file	"herkulex2.c"
  14              		.text
  15              	.Ltext0:
  16              		.cfi_sections	.debug_frame
  17              		.section	.text.clearBuffer,"ax",%progbits
  18              		.align	2
  19              		.global	clearBuffer
  20              		.code	16
  21              		.thumb_func
  22              		.type	clearBuffer, %function
  23              	clearBuffer:
  24              	.LFB33:
  25              		.file 1 ".\\herkulex2.c"
   1:.\herkulex2.c **** /* ========================================
   2:.\herkulex2.c ****  *
   3:.\herkulex2.c ****  * Copyright YOUR COMPANY, THE YEAR
   4:.\herkulex2.c ****  * All Rights Reserved
   5:.\herkulex2.c ****  * UNPUBLISHED, LICENSED SOFTWARE.
   6:.\herkulex2.c ****  *
   7:.\herkulex2.c ****  * CONFIDENTIAL AND PROPRIETARY INFORMATION
   8:.\herkulex2.c ****  * WHICH IS THE PROPERTY OF your company.
   9:.\herkulex2.c ****  *
  10:.\herkulex2.c ****  * ========================================
  11:.\herkulex2.c **** */
  12:.\herkulex2.c **** 
  13:.\herkulex2.c **** #include "herkulex2.h"
  14:.\herkulex2.c **** 
  15:.\herkulex2.c **** uint8 pSize;
  16:.\herkulex2.c **** uint8 pID;
  17:.\herkulex2.c **** uint8 cmd;
  18:.\herkulex2.c **** uint8 lengthString;
  19:.\herkulex2.c **** uint8 ck1;
  20:.\herkulex2.c **** uint8 ck2;
  21:.\herkulex2.c **** 
  22:.\herkulex2.c **** uint8 conta;
  23:.\herkulex2.c **** 
  24:.\herkulex2.c **** uint8 XOR;
  25:.\herkulex2.c **** int playTime;
  26:.\herkulex2.c **** 
  27:.\herkulex2.c **** uint8 data[DATASIZE];
  28:.\herkulex2.c **** uint8 dataEx[DATAMOVE+8];
  29:.\herkulex2.c **** uint8 moveData[DATAMOVE];
  30:.\herkulex2.c **** 
  31:.\herkulex2.c **** void clearBuffer( void )
  32:.\herkulex2.c **** {
ARM GAS  C:\Users\EDTRIC~1\AppData\Local\Temp\ccbcYoXT.s 			page 2


  26              		.loc 1 32 0
  27              		.cfi_startproc
  28 0000 08B5     		push	{r3, lr}
  29              		.cfi_def_cfa_offset 8
  30              		.cfi_offset 3, -8
  31              		.cfi_offset 14, -4
  33:.\herkulex2.c ****     UART_SpiUartClearTxBuffer();
  32              		.loc 1 33 0
  33 0002 FFF7FEFF 		bl	UART_SpiUartClearTxBuffer
  34              	.LVL0:
  34:.\herkulex2.c ****     UART_SpiUartClearRxBuffer();
  35              		.loc 1 34 0
  36 0006 FFF7FEFF 		bl	UART_SpiUartClearRxBuffer
  37              	.LVL1:
  35:.\herkulex2.c **** }
  38              		.loc 1 35 0
  39              		@ sp needed
  40 000a 08BD     		pop	{r3, pc}
  41              		.cfi_endproc
  42              	.LFE33:
  43              		.size	clearBuffer, .-clearBuffer
  44              		.section	.text.checksum1,"ax",%progbits
  45              		.align	2
  46              		.global	checksum1
  47              		.code	16
  48              		.thumb_func
  49              		.type	checksum1, %function
  50              	checksum1:
  51              	.LFB34:
  36:.\herkulex2.c **** 
  37:.\herkulex2.c **** uint8 checksum1( uint8 * data , uint8 lengthString )
  38:.\herkulex2.c **** {
  52              		.loc 1 38 0
  53              		.cfi_startproc
  54              	.LVL2:
  55 0000 30B5     		push	{r4, r5, lr}
  56              		.cfi_def_cfa_offset 12
  57              		.cfi_offset 4, -12
  58              		.cfi_offset 5, -8
  59              		.cfi_offset 14, -4
  39:.\herkulex2.c ****     uint8 i;
  40:.\herkulex2.c ****     
  41:.\herkulex2.c ****     XOR = 0;
  42:.\herkulex2.c ****     XOR = XOR ^ pSize;
  60              		.loc 1 42 0
  61 0002 0D4B     		ldr	r3, .L5
  62 0004 1A78     		ldrb	r2, [r3]
  43:.\herkulex2.c ****     XOR = XOR ^ pID;
  63              		.loc 1 43 0
  64 0006 0D4B     		ldr	r3, .L5+4
  65 0008 1B78     		ldrb	r3, [r3]
  66 000a 5A40     		eor	r2, r3
  44:.\herkulex2.c ****     XOR = XOR ^ cmd;
  67              		.loc 1 44 0
  68 000c 0C4B     		ldr	r3, .L5+8
  69 000e 1B78     		ldrb	r3, [r3]
  70 0010 5A40     		eor	r2, r3
ARM GAS  C:\Users\EDTRIC~1\AppData\Local\Temp\ccbcYoXT.s 			page 3


  71 0012 0C4B     		ldr	r3, .L5+12
  72 0014 1A70     		strb	r2, [r3]
  73              	.LVL3:
  45:.\herkulex2.c ****     
  46:.\herkulex2.c ****     for( i = 0; i < lengthString; i++ )
  74              		.loc 1 46 0
  75 0016 0023     		mov	r3, #0
  47:.\herkulex2.c ****     {
  48:.\herkulex2.c ****         XOR = XOR ^ data[i];
  76              		.loc 1 48 0
  77 0018 0A4A     		ldr	r2, .L5+12
  46:.\herkulex2.c ****     for( i = 0; i < lengthString; i++ )
  78              		.loc 1 46 0
  79 001a 05E0     		b	.L3
  80              	.LVL4:
  81              	.L4:
  82              		.loc 1 48 0 discriminator 2
  83 001c C55C     		ldrb	r5, [r0, r3]
  84 001e 1478     		ldrb	r4, [r2]
  85 0020 6C40     		eor	r4, r5
  86 0022 1470     		strb	r4, [r2]
  46:.\herkulex2.c ****     for( i = 0; i < lengthString; i++ )
  87              		.loc 1 46 0 discriminator 2
  88 0024 0133     		add	r3, r3, #1
  89              	.LVL5:
  90 0026 DBB2     		uxtb	r3, r3
  91              	.LVL6:
  92              	.L3:
  46:.\herkulex2.c ****     for( i = 0; i < lengthString; i++ )
  93              		.loc 1 46 0 is_stmt 0 discriminator 1
  94 0028 8B42     		cmp	r3, r1
  95 002a F7D3     		bcc	.L4
  49:.\herkulex2.c ****     }
  50:.\herkulex2.c ****     
  51:.\herkulex2.c ****     return XOR & 0xFE;
  96              		.loc 1 51 0 is_stmt 1
  97 002c 054B     		ldr	r3, .L5+12
  98              	.LVL7:
  99 002e 1878     		ldrb	r0, [r3]
 100              	.LVL8:
 101 0030 0123     		mov	r3, #1
 102 0032 9843     		bic	r0, r3
  52:.\herkulex2.c **** }
 103              		.loc 1 52 0
 104              		@ sp needed
 105 0034 30BD     		pop	{r4, r5, pc}
 106              	.L6:
 107 0036 C046     		.align	2
 108              	.L5:
 109 0038 00000000 		.word	pSize
 110 003c 00000000 		.word	pID
 111 0040 00000000 		.word	cmd
 112 0044 00000000 		.word	XOR
 113              		.cfi_endproc
 114              	.LFE34:
 115              		.size	checksum1, .-checksum1
 116              		.section	.text.checksum2,"ax",%progbits
ARM GAS  C:\Users\EDTRIC~1\AppData\Local\Temp\ccbcYoXT.s 			page 4


 117              		.align	2
 118              		.global	checksum2
 119              		.code	16
 120              		.thumb_func
 121              		.type	checksum2, %function
 122              	checksum2:
 123              	.LFB35:
  53:.\herkulex2.c **** 
  54:.\herkulex2.c **** uint8 checksum2( uint8 XOR )
  55:.\herkulex2.c **** {
 124              		.loc 1 55 0
 125              		.cfi_startproc
 126              	.LVL9:
  56:.\herkulex2.c ****     return (~XOR) & 0xFE;
 127              		.loc 1 56 0
 128 0000 FE23     		mov	r3, #254
 129 0002 8343     		bic	r3, r0
 130 0004 181C     		mov	r0, r3
 131              	.LVL10:
  57:.\herkulex2.c **** }
 132              		.loc 1 57 0
 133              		@ sp needed
 134 0006 7047     		bx	lr
 135              		.cfi_endproc
 136              	.LFE35:
 137              		.size	checksum2, .-checksum2
 138              		.section	.text.printHexByte,"ax",%progbits
 139              		.align	2
 140              		.global	printHexByte
 141              		.code	16
 142              		.thumb_func
 143              		.type	printHexByte, %function
 144              	printHexByte:
 145              	.LFB36:
  58:.\herkulex2.c **** 
  59:.\herkulex2.c **** void printHexByte( uint8 x )
  60:.\herkulex2.c **** {
 146              		.loc 1 60 0
 147              		.cfi_startproc
 148              	.LVL11:
 149 0000 10B5     		push	{r4, lr}
 150              		.cfi_def_cfa_offset 8
 151              		.cfi_offset 4, -8
 152              		.cfi_offset 14, -4
 153 0002 82B0     		sub	sp, sp, #8
 154              		.cfi_def_cfa_offset 16
 155 0004 041C     		mov	r4, r0
  61:.\herkulex2.c ****     char byte[4];
  62:.\herkulex2.c ****     
  63:.\herkulex2.c ****     sprintf( byte , "%x" , x );
 156              		.loc 1 63 0
 157 0006 01A8     		add	r0, sp, #4
 158              	.LVL12:
 159 0008 0949     		ldr	r1, .L10
 160 000a 221C     		mov	r2, r4
 161 000c FFF7FEFF 		bl	sprintf
 162              	.LVL13:
ARM GAS  C:\Users\EDTRIC~1\AppData\Local\Temp\ccbcYoXT.s 			page 5


  64:.\herkulex2.c ****     
  65:.\herkulex2.c ****     UART_UartPutString("0x");
 163              		.loc 1 65 0
 164 0010 0848     		ldr	r0, .L10+4
 165 0012 FFF7FEFF 		bl	UART_UartPutString
 166              	.LVL14:
  66:.\herkulex2.c ****     if( x < 16)
 167              		.loc 1 66 0
 168 0016 0F2C     		cmp	r4, #15
 169 0018 02D8     		bhi	.L9
  67:.\herkulex2.c ****     {
  68:.\herkulex2.c ****         UART_UartPutChar('0');
 170              		.loc 1 68 0
 171 001a 3020     		mov	r0, #48
 172 001c FFF7FEFF 		bl	UART_SpiUartWriteTxData
 173              	.LVL15:
 174              	.L9:
  69:.\herkulex2.c ****     }
  70:.\herkulex2.c ****     UART_UartPutString(byte);
 175              		.loc 1 70 0
 176 0020 01A8     		add	r0, sp, #4
 177 0022 FFF7FEFF 		bl	UART_UartPutString
 178              	.LVL16:
  71:.\herkulex2.c ****     UART_UartPutChar(' ');
 179              		.loc 1 71 0
 180 0026 2020     		mov	r0, #32
 181 0028 FFF7FEFF 		bl	UART_SpiUartWriteTxData
 182              	.LVL17:
  72:.\herkulex2.c **** }
 183              		.loc 1 72 0
 184 002c 02B0     		add	sp, sp, #8
 185              		@ sp needed
 186 002e 10BD     		pop	{r4, pc}
 187              	.L11:
 188              		.align	2
 189              	.L10:
 190 0030 00000000 		.word	.LC4
 191 0034 04000000 		.word	.LC6
 192              		.cfi_endproc
 193              	.LFE36:
 194              		.size	printHexByte, .-printHexByte
 195              		.section	.text.sendData,"ax",%progbits
 196              		.align	2
 197              		.global	sendData
 198              		.code	16
 199              		.thumb_func
 200              		.type	sendData, %function
 201              	sendData:
 202              	.LFB37:
  73:.\herkulex2.c **** 
  74:.\herkulex2.c **** void sendData( uint8 * buffer , uint8 length )
  75:.\herkulex2.c **** {
 203              		.loc 1 75 0
 204              		.cfi_startproc
 205              	.LVL18:
 206 0000 38B5     		push	{r3, r4, r5, lr}
 207              		.cfi_def_cfa_offset 16
ARM GAS  C:\Users\EDTRIC~1\AppData\Local\Temp\ccbcYoXT.s 			page 6


 208              		.cfi_offset 3, -16
 209              		.cfi_offset 4, -12
 210              		.cfi_offset 5, -8
 211              		.cfi_offset 14, -4
 212 0002 051C     		mov	r5, r0
 213 0004 0C1C     		mov	r4, r1
  76:.\herkulex2.c ****     clearBuffer();
 214              		.loc 1 76 0
 215 0006 FFF7FEFF 		bl	clearBuffer
 216              	.LVL19:
  77:.\herkulex2.c ****     UART_SpiUartPutArray( buffer , length );
 217              		.loc 1 77 0
 218 000a 281C     		mov	r0, r5
 219 000c 211C     		mov	r1, r4
 220 000e FFF7FEFF 		bl	UART_SpiUartPutArray
 221              	.LVL20:
  78:.\herkulex2.c ****     CyDelay(1);
 222              		.loc 1 78 0
 223 0012 0120     		mov	r0, #1
 224 0014 FFF7FEFF 		bl	CyDelay
 225              	.LVL21:
  79:.\herkulex2.c **** }
 226              		.loc 1 79 0
 227              		@ sp needed
 228              	.LVL22:
 229 0018 38BD     		pop	{r3, r4, r5, pc}
 230              		.cfi_endproc
 231              	.LFE37:
 232              		.size	sendData, .-sendData
 233 001a C046     		.section	.text.readData,"ax",%progbits
 234              		.align	2
 235              		.global	readData
 236              		.code	16
 237              		.thumb_func
 238              		.type	readData, %function
 239              	readData:
 240              	.LFB38:
  80:.\herkulex2.c **** 
  81:.\herkulex2.c **** void readData( uint8 size )
  82:.\herkulex2.c **** {
 241              		.loc 1 82 0
 242              		.cfi_startproc
 243              	.LVL23:
 244 0000 F0B5     		push	{r4, r5, r6, r7, lr}
 245              		.cfi_def_cfa_offset 20
 246              		.cfi_offset 4, -20
 247              		.cfi_offset 5, -16
 248              		.cfi_offset 6, -12
 249              		.cfi_offset 7, -8
 250              		.cfi_offset 14, -4
 251 0002 4746     		mov	r7, r8
 252 0004 80B4     		push	{r7}
 253              		.cfi_def_cfa_offset 24
 254              		.cfi_offset 8, -24
 255 0006 061C     		mov	r6, r0
 256              	.LVL24:
  83:.\herkulex2.c ****     uint8 i = 0;
ARM GAS  C:\Users\EDTRIC~1\AppData\Local\Temp\ccbcYoXT.s 			page 7


  84:.\herkulex2.c ****     uint8 beginsave = 0;
  85:.\herkulex2.c ****     uint8 timeCounter = 0;
 257              		.loc 1 85 0
 258 0008 0024     		mov	r4, #0
  86:.\herkulex2.c ****     
  87:.\herkulex2.c ****     while( (UART_SpiUartGetRxBufferSize() < size) & (timeCounter < TIMEOUT) )
 259              		.loc 1 87 0
 260 000a 0427     		mov	r7, #4
 261 000c 0025     		mov	r5, #0
 262 000e 04E0     		b	.L14
 263              	.LVL25:
 264              	.L15:
  88:.\herkulex2.c ****     {
  89:.\herkulex2.c ****         timeCounter++;
 265              		.loc 1 89 0
 266 0010 0134     		add	r4, r4, #1
 267              	.LVL26:
 268 0012 E4B2     		uxtb	r4, r4
 269              	.LVL27:
  90:.\herkulex2.c ****         CyDelay(1);
 270              		.loc 1 90 0
 271 0014 0120     		mov	r0, #1
 272 0016 FFF7FEFF 		bl	CyDelay
 273              	.LVL28:
 274              	.L14:
  87:.\herkulex2.c ****     while( (UART_SpiUartGetRxBufferSize() < size) & (timeCounter < TIMEOUT) )
 275              		.loc 1 87 0 discriminator 1
 276 001a FFF7FEFF 		bl	UART_SpiUartGetRxBufferSize
 277              	.LVL29:
 278 001e B042     		cmp	r0, r6
 279 0020 9B41     		sbc	r3, r3, r3
 280 0022 5B42     		neg	r3, r3
 281 0024 2A1C     		mov	r2, r5
 282 0026 A742     		cmp	r7, r4
 283 0028 6A41     		adc	r2, r2, r5
 284 002a 1A42     		tst	r2, r3
 285 002c F0D1     		bne	.L15
 286 002e 0024     		mov	r4, #0
 287              	.LVL30:
 288 0030 0025     		mov	r5, #0
 289              	.LBB2:
  91:.\herkulex2.c ****     }
  92:.\herkulex2.c ****     while( (UART_SpiUartGetRxBufferSize() > 0) )
  93:.\herkulex2.c ****     {
  94:.\herkulex2.c ****         uint8 recByte = UART_UartGetByte();
  95:.\herkulex2.c ****         if( recByte == 0xFF )
  96:.\herkulex2.c ****         {
  97:.\herkulex2.c ****             beginsave = 1;
 290              		.loc 1 97 0
 291 0032 0123     		mov	r3, #1
 292 0034 9846     		mov	r8, r3
  98:.\herkulex2.c ****             i = 0;
 293              		.loc 1 98 0
 294 0036 0027     		mov	r7, #0
 295 0038 0EE0     		b	.L21
 296              	.LVL31:
 297              	.L19:
ARM GAS  C:\Users\EDTRIC~1\AppData\Local\Temp\ccbcYoXT.s 			page 8


  94:.\herkulex2.c ****         uint8 recByte = UART_UartGetByte();
 298              		.loc 1 94 0
 299 003a FFF7FEFF 		bl	UART_UartGetByte
 300              	.LVL32:
 301 003e C0B2     		uxtb	r0, r0
 302              	.LVL33:
  95:.\herkulex2.c ****         if( recByte == 0xFF )
 303              		.loc 1 95 0
 304 0040 FF28     		cmp	r0, #255
 305 0042 01D1     		bne	.L17
  97:.\herkulex2.c ****             beginsave = 1;
 306              		.loc 1 97 0
 307 0044 4446     		mov	r4, r8
 308              	.LVL34:
 309              		.loc 1 98 0
 310 0046 3D1C     		mov	r5, r7
 311              	.LVL35:
 312              	.L17:
  99:.\herkulex2.c ****         }
 100:.\herkulex2.c ****         if( beginsave == 1 && i < size )
 313              		.loc 1 100 0
 314 0048 012C     		cmp	r4, #1
 315 004a 05D1     		bne	.L21
 316              		.loc 1 100 0 is_stmt 0 discriminator 1
 317 004c B542     		cmp	r5, r6
 318 004e 03D2     		bcs	.L21
 101:.\herkulex2.c ****         {
 102:.\herkulex2.c ****             dataEx[i] = recByte;
 319              		.loc 1 102 0 is_stmt 1
 320 0050 064B     		ldr	r3, .L22
 321 0052 5855     		strb	r0, [r3, r5]
 103:.\herkulex2.c ****             i++;
 322              		.loc 1 103 0
 323 0054 0135     		add	r5, r5, #1
 324              	.LVL36:
 325 0056 EDB2     		uxtb	r5, r5
 326              	.LVL37:
 327              	.L21:
 328              	.LBE2:
  92:.\herkulex2.c ****     while( (UART_SpiUartGetRxBufferSize() > 0) )
 329              		.loc 1 92 0 discriminator 1
 330 0058 FFF7FEFF 		bl	UART_SpiUartGetRxBufferSize
 331              	.LVL38:
 332 005c 0028     		cmp	r0, #0
 333 005e ECD1     		bne	.L19
 104:.\herkulex2.c ****         }
 105:.\herkulex2.c ****     }
 106:.\herkulex2.c ****     clearBuffer();
 334              		.loc 1 106 0
 335 0060 FFF7FEFF 		bl	clearBuffer
 336              	.LVL39:
 107:.\herkulex2.c **** }
 337              		.loc 1 107 0
 338              		@ sp needed
 339              	.LVL40:
 340              	.LVL41:
 341 0064 04BC     		pop	{r2}
ARM GAS  C:\Users\EDTRIC~1\AppData\Local\Temp\ccbcYoXT.s 			page 9


 342 0066 9046     		mov	r8, r2
 343 0068 F0BD     		pop	{r4, r5, r6, r7, pc}
 344              	.L23:
 345 006a C046     		.align	2
 346              	.L22:
 347 006c 00000000 		.word	dataEx
 348              		.cfi_endproc
 349              	.LFE38:
 350              		.size	readData, .-readData
 351              		.section	.text.addData,"ax",%progbits
 352              		.align	2
 353              		.global	addData
 354              		.code	16
 355              		.thumb_func
 356              		.type	addData, %function
 357              	addData:
 358              	.LFB39:
 108:.\herkulex2.c **** 
 109:.\herkulex2.c **** void addData( int goalLSB , int goalMSB , uint8 set , uint8 servoID)
 110:.\herkulex2.c **** {
 359              		.loc 1 110 0
 360              		.cfi_startproc
 361              	.LVL42:
 362 0000 F0B5     		push	{r4, r5, r6, r7, lr}
 363              		.cfi_def_cfa_offset 20
 364              		.cfi_offset 4, -20
 365              		.cfi_offset 5, -16
 366              		.cfi_offset 6, -12
 367              		.cfi_offset 7, -8
 368              		.cfi_offset 14, -4
 111:.\herkulex2.c ****     moveData[conta++] = goalLSB;
 369              		.loc 1 111 0
 370 0002 084D     		ldr	r5, .L25
 371 0004 2F78     		ldrb	r7, [r5]
 372 0006 7E1C     		add	r6, r7, #1
 373 0008 F6B2     		uxtb	r6, r6
 374 000a 074C     		ldr	r4, .L25+4
 375 000c E055     		strb	r0, [r4, r7]
 112:.\herkulex2.c ****     moveData[conta++] = goalMSB;
 376              		.loc 1 112 0
 377 000e 701C     		add	r0, r6, #1
 378              	.LVL43:
 379 0010 C0B2     		uxtb	r0, r0
 380 0012 A155     		strb	r1, [r4, r6]
 113:.\herkulex2.c ****     moveData[conta++] = set;
 381              		.loc 1 113 0
 382 0014 411C     		add	r1, r0, #1
 383              	.LVL44:
 384 0016 C9B2     		uxtb	r1, r1
 385 0018 2254     		strb	r2, [r4, r0]
 114:.\herkulex2.c ****     moveData[conta++] = servoID;
 386              		.loc 1 114 0
 387 001a 4A1C     		add	r2, r1, #1
 388              	.LVL45:
 389 001c 2A70     		strb	r2, [r5]
 390 001e 6354     		strb	r3, [r4, r1]
 391              	.LVL46:
ARM GAS  C:\Users\EDTRIC~1\AppData\Local\Temp\ccbcYoXT.s 			page 10


 115:.\herkulex2.c **** }
 392              		.loc 1 115 0
 393              		@ sp needed
 394 0020 F0BD     		pop	{r4, r5, r6, r7, pc}
 395              	.L26:
 396 0022 C046     		.align	2
 397              	.L25:
 398 0024 00000000 		.word	conta
 399 0028 00000000 		.word	moveData
 400              		.cfi_endproc
 401              	.LFE39:
 402              		.size	addData, .-addData
 403              		.section	.text.Servo_status,"ax",%progbits
 404              		.align	2
 405              		.global	Servo_status
 406              		.code	16
 407              		.thumb_func
 408              		.type	Servo_status, %function
 409              	Servo_status:
 410              	.LFB41:
 116:.\herkulex2.c **** 
 117:.\herkulex2.c **** void Servo_initialize( void )
 118:.\herkulex2.c **** {
 119:.\herkulex2.c ****     UART_Start();
 120:.\herkulex2.c ****     conta = 0;
 121:.\herkulex2.c ****     lengthString = 0;
 122:.\herkulex2.c ****     CyDelay(100);
 123:.\herkulex2.c ****     Servo_clearError(PIDALL);
 124:.\herkulex2.c ****     CyDelay(10);
 125:.\herkulex2.c ****     Servo_ACK(1);
 126:.\herkulex2.c ****     CyDelay(10);
 127:.\herkulex2.c ****     Servo_torqueON(PIDALL);
 128:.\herkulex2.c ****     CyDelay(10);
 129:.\herkulex2.c ****     
 130:.\herkulex2.c ****     Servo_moveOneAngle( PIDALL , 0 , 1000 , LED_RED );
 131:.\herkulex2.c ****     CyDelay(1200);
 132:.\herkulex2.c ****     Servo_setLED( PIDALL , LED_GREEN );
 133:.\herkulex2.c ****     CyDelay(100);
 134:.\herkulex2.c ****     Servo_setLED( PIDALL , 0 );
 135:.\herkulex2.c ****     CyDelay(500);
 136:.\herkulex2.c **** }
 137:.\herkulex2.c **** 
 138:.\herkulex2.c **** uint8 Servo_status( uint8 servoID )
 139:.\herkulex2.c **** {
 411              		.loc 1 139 0
 412              		.cfi_startproc
 413              	.LVL47:
 414 0000 F8B5     		push	{r3, r4, r5, r6, r7, lr}
 415              		.cfi_def_cfa_offset 24
 416              		.cfi_offset 3, -24
 417              		.cfi_offset 4, -20
 418              		.cfi_offset 5, -16
 419              		.cfi_offset 6, -12
 420              		.cfi_offset 7, -8
 421              		.cfi_offset 14, -4
 422 0002 5F46     		mov	r7, fp
 423 0004 5646     		mov	r6, r10
ARM GAS  C:\Users\EDTRIC~1\AppData\Local\Temp\ccbcYoXT.s 			page 11


 424 0006 4D46     		mov	r5, r9
 425 0008 4446     		mov	r4, r8
 426 000a F0B4     		push	{r4, r5, r6, r7}
 427              		.cfi_def_cfa_offset 40
 428              		.cfi_offset 8, -40
 429              		.cfi_offset 9, -36
 430              		.cfi_offset 10, -32
 431              		.cfi_offset 11, -28
 140:.\herkulex2.c ****     pSize = 0x07;
 432              		.loc 1 140 0
 433 000c 2F49     		ldr	r1, .L30
 434 000e 8A46     		mov	r10, r1
 435 0010 0723     		mov	r3, #7
 436 0012 0B70     		strb	r3, [r1]
 141:.\herkulex2.c ****     pID = servoID;
 437              		.loc 1 141 0
 438 0014 2E49     		ldr	r1, .L30+4
 439 0016 8946     		mov	r9, r1
 440 0018 0870     		strb	r0, [r1]
 142:.\herkulex2.c ****     cmd = STAT;
 441              		.loc 1 142 0
 442 001a 2E49     		ldr	r1, .L30+8
 443 001c 8846     		mov	r8, r1
 444 001e 0B70     		strb	r3, [r1]
 143:.\herkulex2.c ****     
 144:.\herkulex2.c ****     ck1 = ( pSize ^ pID ^ cmd) & 0xFE;
 445              		.loc 1 144 0
 446 0020 0125     		mov	r5, #1
 447 0022 011C     		mov	r1, r0
 448 0024 A943     		bic	r1, r5
 449 0026 2C4F     		ldr	r7, .L30+12
 450 0028 3970     		strb	r1, [r7]
 145:.\herkulex2.c ****     ck2 = ( ~( pSize ^ pID ^ cmd ) ) & 0xFE;
 451              		.loc 1 145 0
 452 002a C243     		mvn	r2, r0
 453 002c AA43     		bic	r2, r5
 454 002e D2B2     		uxtb	r2, r2
 455 0030 9346     		mov	fp, r2
 456 0032 2A4E     		ldr	r6, .L30+16
 457 0034 3270     		strb	r2, [r6]
 146:.\herkulex2.c ****     
 147:.\herkulex2.c ****     dataEx[0] = HEADER;
 458              		.loc 1 147 0
 459 0036 2A4C     		ldr	r4, .L30+20
 460 0038 FF22     		mov	r2, #255
 461 003a 2270     		strb	r2, [r4]
 148:.\herkulex2.c ****     dataEx[1] = HEADER;
 462              		.loc 1 148 0
 463 003c 6270     		strb	r2, [r4, #1]
 149:.\herkulex2.c ****     dataEx[2] = pSize;
 464              		.loc 1 149 0
 465 003e A370     		strb	r3, [r4, #2]
 150:.\herkulex2.c ****     dataEx[3] = pID;
 466              		.loc 1 150 0
 467 0040 E070     		strb	r0, [r4, #3]
 151:.\herkulex2.c ****     dataEx[4] = cmd;
 468              		.loc 1 151 0
ARM GAS  C:\Users\EDTRIC~1\AppData\Local\Temp\ccbcYoXT.s 			page 12


 469 0042 2371     		strb	r3, [r4, #4]
 152:.\herkulex2.c ****     dataEx[5] = ck1;
 470              		.loc 1 152 0
 471 0044 6171     		strb	r1, [r4, #5]
 153:.\herkulex2.c ****     dataEx[6] = ck2;
 472              		.loc 1 153 0
 473 0046 5B46     		mov	r3, fp
 474 0048 A371     		strb	r3, [r4, #6]
 154:.\herkulex2.c ****     
 155:.\herkulex2.c ****     sendData( dataEx , pSize );
 475              		.loc 1 155 0
 476 004a 201C     		mov	r0, r4
 477              	.LVL48:
 478 004c 0721     		mov	r1, #7
 479 004e FFF7FEFF 		bl	sendData
 480              	.LVL49:
 156:.\herkulex2.c ****     CyDelay(5);
 481              		.loc 1 156 0
 482 0052 0520     		mov	r0, #5
 483 0054 FFF7FEFF 		bl	CyDelay
 484              	.LVL50:
 157:.\herkulex2.c ****     readData(9);
 485              		.loc 1 157 0
 486 0058 0920     		mov	r0, #9
 487 005a FFF7FEFF 		bl	readData
 488              	.LVL51:
 158:.\herkulex2.c ****     
 159:.\herkulex2.c ****     pSize = dataEx[2];
 489              		.loc 1 159 0
 490 005e A078     		ldrb	r0, [r4, #2]
 491 0060 5146     		mov	r1, r10
 492 0062 0870     		strb	r0, [r1]
 160:.\herkulex2.c ****     pID = dataEx[3];
 493              		.loc 1 160 0
 494 0064 E178     		ldrb	r1, [r4, #3]
 495 0066 4A46     		mov	r2, r9
 496 0068 1170     		strb	r1, [r2]
 161:.\herkulex2.c ****     cmd = dataEx[4];
 497              		.loc 1 161 0
 498 006a 2379     		ldrb	r3, [r4, #4]
 499 006c 9946     		mov	r9, r3
 500 006e 4246     		mov	r2, r8
 501 0070 1370     		strb	r3, [r2]
 162:.\herkulex2.c ****     data[0] = data[7];
 502              		.loc 1 162 0
 503 0072 1C4B     		ldr	r3, .L30+24
 504 0074 DA79     		ldrb	r2, [r3, #7]
 505 0076 1A70     		strb	r2, [r3]
 163:.\herkulex2.c ****     data[1] = data[8];
 506              		.loc 1 163 0
 507 0078 1A7A     		ldrb	r2, [r3, #8]
 508 007a 5A70     		strb	r2, [r3, #1]
 164:.\herkulex2.c ****     lengthString = 2;
 509              		.loc 1 164 0
 510 007c 0223     		mov	r3, #2
 511 007e 9C46     		mov	ip, r3
 512 0080 194B     		ldr	r3, .L30+28
ARM GAS  C:\Users\EDTRIC~1\AppData\Local\Temp\ccbcYoXT.s 			page 13


 513 0082 6246     		mov	r2, ip
 514 0084 1A70     		strb	r2, [r3]
 165:.\herkulex2.c ****     
 166:.\herkulex2.c ****     ck1 = ( dataEx[2] ^ dataEx[3] ^ dataEx[4] ^ dataEx[7] ^ dataEx[8] ) & 0xFE;
 515              		.loc 1 166 0
 516 0086 E379     		ldrb	r3, [r4, #7]
 517 0088 9846     		mov	r8, r3
 518 008a 237A     		ldrb	r3, [r4, #8]
 519 008c 4140     		eor	r1, r0
 520 008e 4A46     		mov	r2, r9
 521 0090 4A40     		eor	r2, r1
 522 0092 4146     		mov	r1, r8
 523 0094 4A40     		eor	r2, r1
 524 0096 5A40     		eor	r2, r3
 525 0098 AA43     		bic	r2, r5
 526 009a 151C     		mov	r5, r2
 527 009c 3A70     		strb	r2, [r7]
 167:.\herkulex2.c ****     ck2 = checksum2(ck1);
 528              		.loc 1 167 0
 529 009e 101C     		mov	r0, r2
 530 00a0 FFF7FEFF 		bl	checksum2
 531              	.LVL52:
 532 00a4 3070     		strb	r0, [r6]
 168:.\herkulex2.c ****     
 169:.\herkulex2.c ****     if( ck1 != dataEx[5] ) return -1;
 533              		.loc 1 169 0
 534 00a6 6379     		ldrb	r3, [r4, #5]
 535 00a8 9D42     		cmp	r5, r3
 536 00aa 06D1     		bne	.L29
 170:.\herkulex2.c ****     if( ck2 != dataEx[6] ) return -2;
 537              		.loc 1 170 0
 538 00ac 0C4B     		ldr	r3, .L30+20
 539 00ae 9B79     		ldrb	r3, [r3, #6]
 540 00b0 9842     		cmp	r0, r3
 541 00b2 04D0     		beq	.L28
 542 00b4 FE22     		mov	r2, #254
 543 00b6 9046     		mov	r8, r2
 544 00b8 01E0     		b	.L28
 545              	.L29:
 169:.\herkulex2.c ****     if( ck1 != dataEx[5] ) return -1;
 546              		.loc 1 169 0
 547 00ba FF23     		mov	r3, #255
 548 00bc 9846     		mov	r8, r3
 549              	.L28:
 171:.\herkulex2.c ****     
 172:.\herkulex2.c ****     return dataEx[7];
 173:.\herkulex2.c **** }
 550              		.loc 1 173 0
 551 00be 4046     		mov	r0, r8
 552              		@ sp needed
 553 00c0 3CBC     		pop	{r2, r3, r4, r5}
 554 00c2 9046     		mov	r8, r2
 555 00c4 9946     		mov	r9, r3
 556 00c6 A246     		mov	r10, r4
 557 00c8 AB46     		mov	fp, r5
 558 00ca F8BD     		pop	{r3, r4, r5, r6, r7, pc}
 559              	.L31:
ARM GAS  C:\Users\EDTRIC~1\AppData\Local\Temp\ccbcYoXT.s 			page 14


 560              		.align	2
 561              	.L30:
 562 00cc 00000000 		.word	pSize
 563 00d0 00000000 		.word	pID
 564 00d4 00000000 		.word	cmd
 565 00d8 00000000 		.word	ck1
 566 00dc 00000000 		.word	ck2
 567 00e0 00000000 		.word	dataEx
 568 00e4 00000000 		.word	data
 569 00e8 00000000 		.word	lengthString
 570              		.cfi_endproc
 571              	.LFE41:
 572              		.size	Servo_status, .-Servo_status
 573              		.section	.text.Servo_torqueON,"ax",%progbits
 574              		.align	2
 575              		.global	Servo_torqueON
 576              		.code	16
 577              		.thumb_func
 578              		.type	Servo_torqueON, %function
 579              	Servo_torqueON:
 580              	.LFB42:
 174:.\herkulex2.c **** 
 175:.\herkulex2.c **** void Servo_torqueON( uint8 servoID )
 176:.\herkulex2.c **** {
 581              		.loc 1 176 0
 582              		.cfi_startproc
 583              	.LVL53:
 584 0000 F0B5     		push	{r4, r5, r6, r7, lr}
 585              		.cfi_def_cfa_offset 20
 586              		.cfi_offset 4, -20
 587              		.cfi_offset 5, -16
 588              		.cfi_offset 6, -12
 589              		.cfi_offset 7, -8
 590              		.cfi_offset 14, -4
 591 0002 4746     		mov	r7, r8
 592 0004 80B4     		push	{r7}
 593              		.cfi_def_cfa_offset 24
 594              		.cfi_offset 8, -24
 177:.\herkulex2.c ****     pSize = 0x0A;
 595              		.loc 1 177 0
 596 0006 1B4A     		ldr	r2, .L33
 597 0008 9046     		mov	r8, r2
 598 000a 0A23     		mov	r3, #10
 599 000c 1370     		strb	r3, [r2]
 178:.\herkulex2.c ****     pID = servoID;
 600              		.loc 1 178 0
 601 000e 1A4F     		ldr	r7, .L33+4
 602 0010 3870     		strb	r0, [r7]
 179:.\herkulex2.c ****     cmd = RAM_WRITE;
 603              		.loc 1 179 0
 604 0012 1A4E     		ldr	r6, .L33+8
 605 0014 0323     		mov	r3, #3
 606 0016 3370     		strb	r3, [r6]
 180:.\herkulex2.c ****     data[0] = 0x34;
 607              		.loc 1 180 0
 608 0018 194C     		ldr	r4, .L33+12
 609 001a 3422     		mov	r2, #52
ARM GAS  C:\Users\EDTRIC~1\AppData\Local\Temp\ccbcYoXT.s 			page 15


 610 001c 2270     		strb	r2, [r4]
 181:.\herkulex2.c ****     data[1] = 0x01;
 611              		.loc 1 181 0
 612 001e 0122     		mov	r2, #1
 613 0020 6270     		strb	r2, [r4, #1]
 182:.\herkulex2.c ****     data[2] = 0x60;
 614              		.loc 1 182 0
 615 0022 6022     		mov	r2, #96
 616 0024 A270     		strb	r2, [r4, #2]
 183:.\herkulex2.c ****     lengthString = 3;
 617              		.loc 1 183 0
 618 0026 174A     		ldr	r2, .L33+16
 619 0028 1370     		strb	r3, [r2]
 184:.\herkulex2.c ****     
 185:.\herkulex2.c ****     ck1 = checksum1( data , lengthString );
 620              		.loc 1 185 0
 621 002a 201C     		mov	r0, r4
 622              	.LVL54:
 623 002c 0321     		mov	r1, #3
 624 002e FFF7FEFF 		bl	checksum1
 625              	.LVL55:
 626 0032 051C     		mov	r5, r0
 627 0034 144B     		ldr	r3, .L33+20
 628 0036 1870     		strb	r0, [r3]
 186:.\herkulex2.c ****     ck2 = checksum2( ck1 );
 629              		.loc 1 186 0
 630 0038 FFF7FEFF 		bl	checksum2
 631              	.LVL56:
 632 003c 134B     		ldr	r3, .L33+24
 633 003e 1870     		strb	r0, [r3]
 187:.\herkulex2.c ****     
 188:.\herkulex2.c ****     dataEx[0] = HEADER;
 634              		.loc 1 188 0
 635 0040 134B     		ldr	r3, .L33+28
 636 0042 FF22     		mov	r2, #255
 637 0044 1A70     		strb	r2, [r3]
 189:.\herkulex2.c ****     dataEx[1] = HEADER;
 638              		.loc 1 189 0
 639 0046 5A70     		strb	r2, [r3, #1]
 190:.\herkulex2.c ****     dataEx[2] = pSize;
 640              		.loc 1 190 0
 641 0048 4246     		mov	r2, r8
 642 004a 1178     		ldrb	r1, [r2]
 643 004c 9970     		strb	r1, [r3, #2]
 191:.\herkulex2.c ****     dataEx[3] = pID;
 644              		.loc 1 191 0
 645 004e 3A78     		ldrb	r2, [r7]
 646 0050 DA70     		strb	r2, [r3, #3]
 192:.\herkulex2.c ****     dataEx[4] = cmd;
 647              		.loc 1 192 0
 648 0052 3278     		ldrb	r2, [r6]
 649 0054 1A71     		strb	r2, [r3, #4]
 193:.\herkulex2.c ****     dataEx[5] = ck1;
 650              		.loc 1 193 0
 651 0056 5D71     		strb	r5, [r3, #5]
 194:.\herkulex2.c ****     dataEx[6] = ck2;
 652              		.loc 1 194 0
ARM GAS  C:\Users\EDTRIC~1\AppData\Local\Temp\ccbcYoXT.s 			page 16


 653 0058 9871     		strb	r0, [r3, #6]
 195:.\herkulex2.c ****     dataEx[7] = data[0];
 654              		.loc 1 195 0
 655 005a 2278     		ldrb	r2, [r4]
 656 005c DA71     		strb	r2, [r3, #7]
 196:.\herkulex2.c ****     dataEx[8] = data[1];
 657              		.loc 1 196 0
 658 005e 6278     		ldrb	r2, [r4, #1]
 659 0060 1A72     		strb	r2, [r3, #8]
 197:.\herkulex2.c ****     dataEx[9] = data[2];
 660              		.loc 1 197 0
 661 0062 A278     		ldrb	r2, [r4, #2]
 662 0064 5A72     		strb	r2, [r3, #9]
 198:.\herkulex2.c ****     
 199:.\herkulex2.c ****     sendData( dataEx , pSize );
 663              		.loc 1 199 0
 664 0066 181C     		mov	r0, r3
 665 0068 FFF7FEFF 		bl	sendData
 666              	.LVL57:
 200:.\herkulex2.c **** }
 667              		.loc 1 200 0
 668              		@ sp needed
 669 006c 04BC     		pop	{r2}
 670 006e 9046     		mov	r8, r2
 671 0070 F0BD     		pop	{r4, r5, r6, r7, pc}
 672              	.L34:
 673 0072 C046     		.align	2
 674              	.L33:
 675 0074 00000000 		.word	pSize
 676 0078 00000000 		.word	pID
 677 007c 00000000 		.word	cmd
 678 0080 00000000 		.word	data
 679 0084 00000000 		.word	lengthString
 680 0088 00000000 		.word	ck1
 681 008c 00000000 		.word	ck2
 682 0090 00000000 		.word	dataEx
 683              		.cfi_endproc
 684              	.LFE42:
 685              		.size	Servo_torqueON, .-Servo_torqueON
 686              		.section	.text.Servo_torqueOFF,"ax",%progbits
 687              		.align	2
 688              		.global	Servo_torqueOFF
 689              		.code	16
 690              		.thumb_func
 691              		.type	Servo_torqueOFF, %function
 692              	Servo_torqueOFF:
 693              	.LFB43:
 201:.\herkulex2.c **** 
 202:.\herkulex2.c **** void Servo_torqueOFF( uint8 servoID )
 203:.\herkulex2.c **** {
 694              		.loc 1 203 0
 695              		.cfi_startproc
 696              	.LVL58:
 697 0000 F0B5     		push	{r4, r5, r6, r7, lr}
 698              		.cfi_def_cfa_offset 20
 699              		.cfi_offset 4, -20
 700              		.cfi_offset 5, -16
ARM GAS  C:\Users\EDTRIC~1\AppData\Local\Temp\ccbcYoXT.s 			page 17


 701              		.cfi_offset 6, -12
 702              		.cfi_offset 7, -8
 703              		.cfi_offset 14, -4
 704 0002 4746     		mov	r7, r8
 705 0004 80B4     		push	{r7}
 706              		.cfi_def_cfa_offset 24
 707              		.cfi_offset 8, -24
 204:.\herkulex2.c ****     pSize = 0x0A;
 708              		.loc 1 204 0
 709 0006 1B4A     		ldr	r2, .L36
 710 0008 9046     		mov	r8, r2
 711 000a 0A23     		mov	r3, #10
 712 000c 1370     		strb	r3, [r2]
 205:.\herkulex2.c ****     pID = servoID;
 713              		.loc 1 205 0
 714 000e 1A4F     		ldr	r7, .L36+4
 715 0010 3870     		strb	r0, [r7]
 206:.\herkulex2.c ****     cmd = RAM_WRITE;
 716              		.loc 1 206 0
 717 0012 1A4E     		ldr	r6, .L36+8
 718 0014 0323     		mov	r3, #3
 719 0016 3370     		strb	r3, [r6]
 207:.\herkulex2.c ****     data[0] = 0x34;
 720              		.loc 1 207 0
 721 0018 194C     		ldr	r4, .L36+12
 722 001a 3422     		mov	r2, #52
 723 001c 2270     		strb	r2, [r4]
 208:.\herkulex2.c ****     data[1] = 0x01;
 724              		.loc 1 208 0
 725 001e 0122     		mov	r2, #1
 726 0020 6270     		strb	r2, [r4, #1]
 209:.\herkulex2.c ****     data[2] = 0x00;
 727              		.loc 1 209 0
 728 0022 0022     		mov	r2, #0
 729 0024 A270     		strb	r2, [r4, #2]
 210:.\herkulex2.c ****     lengthString = 3;
 730              		.loc 1 210 0
 731 0026 174A     		ldr	r2, .L36+16
 732 0028 1370     		strb	r3, [r2]
 211:.\herkulex2.c ****     
 212:.\herkulex2.c ****     ck1 = checksum1( data , lengthString );
 733              		.loc 1 212 0
 734 002a 201C     		mov	r0, r4
 735              	.LVL59:
 736 002c 0321     		mov	r1, #3
 737 002e FFF7FEFF 		bl	checksum1
 738              	.LVL60:
 739 0032 051C     		mov	r5, r0
 740 0034 144B     		ldr	r3, .L36+20
 741 0036 1870     		strb	r0, [r3]
 213:.\herkulex2.c ****     ck2 = checksum2( ck1 );
 742              		.loc 1 213 0
 743 0038 FFF7FEFF 		bl	checksum2
 744              	.LVL61:
 745 003c 134B     		ldr	r3, .L36+24
 746 003e 1870     		strb	r0, [r3]
 214:.\herkulex2.c ****     
ARM GAS  C:\Users\EDTRIC~1\AppData\Local\Temp\ccbcYoXT.s 			page 18


 215:.\herkulex2.c ****     dataEx[0] = HEADER;
 747              		.loc 1 215 0
 748 0040 134B     		ldr	r3, .L36+28
 749 0042 FF22     		mov	r2, #255
 750 0044 1A70     		strb	r2, [r3]
 216:.\herkulex2.c ****     dataEx[1] = HEADER;
 751              		.loc 1 216 0
 752 0046 5A70     		strb	r2, [r3, #1]
 217:.\herkulex2.c ****     dataEx[2] = pSize;
 753              		.loc 1 217 0
 754 0048 4246     		mov	r2, r8
 755 004a 1178     		ldrb	r1, [r2]
 756 004c 9970     		strb	r1, [r3, #2]
 218:.\herkulex2.c ****     dataEx[3] = pID;
 757              		.loc 1 218 0
 758 004e 3A78     		ldrb	r2, [r7]
 759 0050 DA70     		strb	r2, [r3, #3]
 219:.\herkulex2.c ****     dataEx[4] = cmd;
 760              		.loc 1 219 0
 761 0052 3278     		ldrb	r2, [r6]
 762 0054 1A71     		strb	r2, [r3, #4]
 220:.\herkulex2.c ****     dataEx[5] = ck1;
 763              		.loc 1 220 0
 764 0056 5D71     		strb	r5, [r3, #5]
 221:.\herkulex2.c ****     dataEx[6] = ck2;
 765              		.loc 1 221 0
 766 0058 9871     		strb	r0, [r3, #6]
 222:.\herkulex2.c ****     dataEx[7] = data[0];
 767              		.loc 1 222 0
 768 005a 2278     		ldrb	r2, [r4]
 769 005c DA71     		strb	r2, [r3, #7]
 223:.\herkulex2.c ****     dataEx[8] = data[1];
 770              		.loc 1 223 0
 771 005e 6278     		ldrb	r2, [r4, #1]
 772 0060 1A72     		strb	r2, [r3, #8]
 224:.\herkulex2.c ****     dataEx[9] = data[2];
 773              		.loc 1 224 0
 774 0062 A278     		ldrb	r2, [r4, #2]
 775 0064 5A72     		strb	r2, [r3, #9]
 225:.\herkulex2.c ****     
 226:.\herkulex2.c ****     sendData( dataEx , pSize );
 776              		.loc 1 226 0
 777 0066 181C     		mov	r0, r3
 778 0068 FFF7FEFF 		bl	sendData
 779              	.LVL62:
 227:.\herkulex2.c **** }
 780              		.loc 1 227 0
 781              		@ sp needed
 782 006c 04BC     		pop	{r2}
 783 006e 9046     		mov	r8, r2
 784 0070 F0BD     		pop	{r4, r5, r6, r7, pc}
 785              	.L37:
 786 0072 C046     		.align	2
 787              	.L36:
 788 0074 00000000 		.word	pSize
 789 0078 00000000 		.word	pID
 790 007c 00000000 		.word	cmd
ARM GAS  C:\Users\EDTRIC~1\AppData\Local\Temp\ccbcYoXT.s 			page 19


 791 0080 00000000 		.word	data
 792 0084 00000000 		.word	lengthString
 793 0088 00000000 		.word	ck1
 794 008c 00000000 		.word	ck2
 795 0090 00000000 		.word	dataEx
 796              		.cfi_endproc
 797              	.LFE43:
 798              		.size	Servo_torqueOFF, .-Servo_torqueOFF
 799              		.section	.text.Servo_ACK,"ax",%progbits
 800              		.align	2
 801              		.global	Servo_ACK
 802              		.code	16
 803              		.thumb_func
 804              		.type	Servo_ACK, %function
 805              	Servo_ACK:
 806              	.LFB44:
 228:.\herkulex2.c **** 
 229:.\herkulex2.c **** void Servo_ACK( uint8 valueACK )
 230:.\herkulex2.c **** {
 807              		.loc 1 230 0
 808              		.cfi_startproc
 809              	.LVL63:
 810 0000 F0B5     		push	{r4, r5, r6, r7, lr}
 811              		.cfi_def_cfa_offset 20
 812              		.cfi_offset 4, -20
 813              		.cfi_offset 5, -16
 814              		.cfi_offset 6, -12
 815              		.cfi_offset 7, -8
 816              		.cfi_offset 14, -4
 817 0002 4746     		mov	r7, r8
 818 0004 80B4     		push	{r7}
 819              		.cfi_def_cfa_offset 24
 820              		.cfi_offset 8, -24
 231:.\herkulex2.c ****     pSize = 0x0A;
 821              		.loc 1 231 0
 822 0006 1B4A     		ldr	r2, .L39
 823 0008 9046     		mov	r8, r2
 824 000a 0A23     		mov	r3, #10
 825 000c 1370     		strb	r3, [r2]
 232:.\herkulex2.c ****     pID = PIDALL;
 826              		.loc 1 232 0
 827 000e 1A4F     		ldr	r7, .L39+4
 828 0010 FE23     		mov	r3, #254
 829 0012 3B70     		strb	r3, [r7]
 233:.\herkulex2.c ****     cmd = RAM_WRITE;
 830              		.loc 1 233 0
 831 0014 194E     		ldr	r6, .L39+8
 832 0016 0323     		mov	r3, #3
 833 0018 3370     		strb	r3, [r6]
 234:.\herkulex2.c ****     data[0] = 0x34;
 834              		.loc 1 234 0
 835 001a 194C     		ldr	r4, .L39+12
 836 001c 3422     		mov	r2, #52
 837 001e 2270     		strb	r2, [r4]
 235:.\herkulex2.c ****     data[1] = 0x01;
 838              		.loc 1 235 0
 839 0020 0122     		mov	r2, #1
ARM GAS  C:\Users\EDTRIC~1\AppData\Local\Temp\ccbcYoXT.s 			page 20


 840 0022 6270     		strb	r2, [r4, #1]
 236:.\herkulex2.c ****     data[2] = valueACK;
 841              		.loc 1 236 0
 842 0024 A070     		strb	r0, [r4, #2]
 237:.\herkulex2.c ****     lengthString = 3;
 843              		.loc 1 237 0
 844 0026 174A     		ldr	r2, .L39+16
 845 0028 1370     		strb	r3, [r2]
 238:.\herkulex2.c ****     
 239:.\herkulex2.c ****     ck1 = checksum1( data , lengthString );
 846              		.loc 1 239 0
 847 002a 201C     		mov	r0, r4
 848              	.LVL64:
 849 002c 0321     		mov	r1, #3
 850 002e FFF7FEFF 		bl	checksum1
 851              	.LVL65:
 852 0032 051C     		mov	r5, r0
 853 0034 144B     		ldr	r3, .L39+20
 854 0036 1870     		strb	r0, [r3]
 240:.\herkulex2.c ****     ck2 = checksum2( ck1 );
 855              		.loc 1 240 0
 856 0038 FFF7FEFF 		bl	checksum2
 857              	.LVL66:
 858 003c 134B     		ldr	r3, .L39+24
 859 003e 1870     		strb	r0, [r3]
 241:.\herkulex2.c ****     
 242:.\herkulex2.c ****     dataEx[0] = HEADER;
 860              		.loc 1 242 0
 861 0040 134B     		ldr	r3, .L39+28
 862 0042 FF22     		mov	r2, #255
 863 0044 1A70     		strb	r2, [r3]
 243:.\herkulex2.c ****     dataEx[1] = HEADER;
 864              		.loc 1 243 0
 865 0046 5A70     		strb	r2, [r3, #1]
 244:.\herkulex2.c ****     dataEx[2] = pSize;
 866              		.loc 1 244 0
 867 0048 4246     		mov	r2, r8
 868 004a 1178     		ldrb	r1, [r2]
 869 004c 9970     		strb	r1, [r3, #2]
 245:.\herkulex2.c ****     dataEx[3] = pID;
 870              		.loc 1 245 0
 871 004e 3A78     		ldrb	r2, [r7]
 872 0050 DA70     		strb	r2, [r3, #3]
 246:.\herkulex2.c ****     dataEx[4] = cmd;
 873              		.loc 1 246 0
 874 0052 3278     		ldrb	r2, [r6]
 875 0054 1A71     		strb	r2, [r3, #4]
 247:.\herkulex2.c ****     dataEx[5] = ck1;
 876              		.loc 1 247 0
 877 0056 5D71     		strb	r5, [r3, #5]
 248:.\herkulex2.c ****     dataEx[6] = ck2;
 878              		.loc 1 248 0
 879 0058 9871     		strb	r0, [r3, #6]
 249:.\herkulex2.c ****     dataEx[7] = data[0];
 880              		.loc 1 249 0
 881 005a 2278     		ldrb	r2, [r4]
 882 005c DA71     		strb	r2, [r3, #7]
ARM GAS  C:\Users\EDTRIC~1\AppData\Local\Temp\ccbcYoXT.s 			page 21


 250:.\herkulex2.c ****     dataEx[8] = data[1];
 883              		.loc 1 250 0
 884 005e 6278     		ldrb	r2, [r4, #1]
 885 0060 1A72     		strb	r2, [r3, #8]
 251:.\herkulex2.c ****     dataEx[9] = data[2];
 886              		.loc 1 251 0
 887 0062 A278     		ldrb	r2, [r4, #2]
 888 0064 5A72     		strb	r2, [r3, #9]
 252:.\herkulex2.c ****     
 253:.\herkulex2.c ****     sendData( dataEx , pSize );    
 889              		.loc 1 253 0
 890 0066 181C     		mov	r0, r3
 891 0068 FFF7FEFF 		bl	sendData
 892              	.LVL67:
 254:.\herkulex2.c **** }
 893              		.loc 1 254 0
 894              		@ sp needed
 895 006c 04BC     		pop	{r2}
 896 006e 9046     		mov	r8, r2
 897 0070 F0BD     		pop	{r4, r5, r6, r7, pc}
 898              	.L40:
 899 0072 C046     		.align	2
 900              	.L39:
 901 0074 00000000 		.word	pSize
 902 0078 00000000 		.word	pID
 903 007c 00000000 		.word	cmd
 904 0080 00000000 		.word	data
 905 0084 00000000 		.word	lengthString
 906 0088 00000000 		.word	ck1
 907 008c 00000000 		.word	ck2
 908 0090 00000000 		.word	dataEx
 909              		.cfi_endproc
 910              	.LFE44:
 911              		.size	Servo_ACK, .-Servo_ACK
 912              		.section	.text.Servo_model,"ax",%progbits
 913              		.align	2
 914              		.global	Servo_model
 915              		.code	16
 916              		.thumb_func
 917              		.type	Servo_model, %function
 918              	Servo_model:
 919              	.LFB45:
 255:.\herkulex2.c **** 
 256:.\herkulex2.c **** uint8 Servo_model( void )
 257:.\herkulex2.c **** {
 920              		.loc 1 257 0
 921              		.cfi_startproc
 922 0000 F8B5     		push	{r3, r4, r5, r6, r7, lr}
 923              		.cfi_def_cfa_offset 24
 924              		.cfi_offset 3, -24
 925              		.cfi_offset 4, -20
 926              		.cfi_offset 5, -16
 927              		.cfi_offset 6, -12
 928              		.cfi_offset 7, -8
 929              		.cfi_offset 14, -4
 930 0002 5F46     		mov	r7, fp
 931 0004 5646     		mov	r6, r10
ARM GAS  C:\Users\EDTRIC~1\AppData\Local\Temp\ccbcYoXT.s 			page 22


 932 0006 4D46     		mov	r5, r9
 933 0008 4446     		mov	r4, r8
 934 000a F0B4     		push	{r4, r5, r6, r7}
 935              		.cfi_def_cfa_offset 40
 936              		.cfi_offset 8, -40
 937              		.cfi_offset 9, -36
 938              		.cfi_offset 10, -32
 939              		.cfi_offset 11, -28
 258:.\herkulex2.c ****     pSize = 0x09;
 940              		.loc 1 258 0
 941 000c 314A     		ldr	r2, .L45
 942 000e 9046     		mov	r8, r2
 943 0010 0923     		mov	r3, #9
 944 0012 1370     		strb	r3, [r2]
 259:.\herkulex2.c ****     pID = PIDALL;
 945              		.loc 1 259 0
 946 0014 304F     		ldr	r7, .L45+4
 947 0016 FE23     		mov	r3, #254
 948 0018 3B70     		strb	r3, [r7]
 260:.\herkulex2.c ****     cmd = EEP_READ;
 949              		.loc 1 260 0
 950 001a 304E     		ldr	r6, .L45+8
 951 001c 0223     		mov	r3, #2
 952 001e 3370     		strb	r3, [r6]
 261:.\herkulex2.c ****     data[0] = 0x00;
 953              		.loc 1 261 0
 954 0020 2F4D     		ldr	r5, .L45+12
 955 0022 0022     		mov	r2, #0
 956 0024 2A70     		strb	r2, [r5]
 262:.\herkulex2.c ****     data[1] = 0x01;
 957              		.loc 1 262 0
 958 0026 0122     		mov	r2, #1
 959 0028 9346     		mov	fp, r2
 960 002a 6A70     		strb	r2, [r5, #1]
 263:.\herkulex2.c ****     lengthString = 2;
 961              		.loc 1 263 0
 962 002c 2D4A     		ldr	r2, .L45+16
 963 002e 9246     		mov	r10, r2
 964 0030 1370     		strb	r3, [r2]
 264:.\herkulex2.c ****     
 265:.\herkulex2.c ****     ck1 = checksum1( data , lengthString );
 965              		.loc 1 265 0
 966 0032 281C     		mov	r0, r5
 967 0034 0221     		mov	r1, #2
 968 0036 FFF7FEFF 		bl	checksum1
 969              	.LVL68:
 970 003a 8146     		mov	r9, r0
 971 003c 2A4B     		ldr	r3, .L45+20
 972 003e 1870     		strb	r0, [r3]
 266:.\herkulex2.c ****     ck2 = checksum2( ck1 );
 973              		.loc 1 266 0
 974 0040 FFF7FEFF 		bl	checksum2
 975              	.LVL69:
 976 0044 294B     		ldr	r3, .L45+24
 977 0046 1870     		strb	r0, [r3]
 267:.\herkulex2.c ****     
 268:.\herkulex2.c ****     dataEx[0] = HEADER;
ARM GAS  C:\Users\EDTRIC~1\AppData\Local\Temp\ccbcYoXT.s 			page 23


 978              		.loc 1 268 0
 979 0048 294C     		ldr	r4, .L45+28
 980 004a FF23     		mov	r3, #255
 981 004c 2370     		strb	r3, [r4]
 269:.\herkulex2.c ****     dataEx[1] = HEADER;
 982              		.loc 1 269 0
 983 004e 6370     		strb	r3, [r4, #1]
 270:.\herkulex2.c ****     dataEx[2] = pSize;
 984              		.loc 1 270 0
 985 0050 4246     		mov	r2, r8
 986 0052 1178     		ldrb	r1, [r2]
 987 0054 A170     		strb	r1, [r4, #2]
 271:.\herkulex2.c ****     dataEx[3] = pID;
 988              		.loc 1 271 0
 989 0056 3B78     		ldrb	r3, [r7]
 990 0058 E370     		strb	r3, [r4, #3]
 272:.\herkulex2.c ****     dataEx[4] = cmd;
 991              		.loc 1 272 0
 992 005a 3378     		ldrb	r3, [r6]
 993 005c 2371     		strb	r3, [r4, #4]
 273:.\herkulex2.c ****     dataEx[5] = ck1;
 994              		.loc 1 273 0
 995 005e 4B46     		mov	r3, r9
 996 0060 6371     		strb	r3, [r4, #5]
 274:.\herkulex2.c ****     dataEx[6] = ck2;
 997              		.loc 1 274 0
 998 0062 A071     		strb	r0, [r4, #6]
 275:.\herkulex2.c ****     dataEx[7] = data[0];
 999              		.loc 1 275 0
 1000 0064 2B78     		ldrb	r3, [r5]
 1001 0066 E371     		strb	r3, [r4, #7]
 276:.\herkulex2.c ****     dataEx[8] = data[1];
 1002              		.loc 1 276 0
 1003 0068 6B78     		ldrb	r3, [r5, #1]
 1004 006a 2372     		strb	r3, [r4, #8]
 277:.\herkulex2.c ****     
 278:.\herkulex2.c ****     sendData( dataEx , pSize );
 1005              		.loc 1 278 0
 1006 006c 201C     		mov	r0, r4
 1007 006e FFF7FEFF 		bl	sendData
 1008              	.LVL70:
 279:.\herkulex2.c ****     CyDelay(5);
 1009              		.loc 1 279 0
 1010 0072 0520     		mov	r0, #5
 1011 0074 FFF7FEFF 		bl	CyDelay
 1012              	.LVL71:
 280:.\herkulex2.c ****     readData(9);
 1013              		.loc 1 280 0
 1014 0078 0920     		mov	r0, #9
 1015 007a FFF7FEFF 		bl	readData
 1016              	.LVL72:
 281:.\herkulex2.c ****     
 282:.\herkulex2.c ****     pSize = dataEx[2];
 1017              		.loc 1 282 0
 1018 007e A378     		ldrb	r3, [r4, #2]
 1019 0080 4246     		mov	r2, r8
 1020 0082 1370     		strb	r3, [r2]
ARM GAS  C:\Users\EDTRIC~1\AppData\Local\Temp\ccbcYoXT.s 			page 24


 283:.\herkulex2.c ****     pID = dataEx[3];
 1021              		.loc 1 283 0
 1022 0084 E378     		ldrb	r3, [r4, #3]
 1023 0086 3B70     		strb	r3, [r7]
 284:.\herkulex2.c ****     cmd = dataEx[4];
 1024              		.loc 1 284 0
 1025 0088 2379     		ldrb	r3, [r4, #4]
 1026 008a 3370     		strb	r3, [r6]
 285:.\herkulex2.c ****     data[0] = data[7];
 1027              		.loc 1 285 0
 1028 008c EB79     		ldrb	r3, [r5, #7]
 1029 008e 2B70     		strb	r3, [r5]
 286:.\herkulex2.c ****     lengthString = 1;
 1030              		.loc 1 286 0
 1031 0090 5A46     		mov	r2, fp
 1032 0092 5346     		mov	r3, r10
 1033 0094 1A70     		strb	r2, [r3]
 287:.\herkulex2.c ****     
 288:.\herkulex2.c ****     ck1 = checksum1( data , lengthString );
 1034              		.loc 1 288 0
 1035 0096 281C     		mov	r0, r5
 1036 0098 0121     		mov	r1, #1
 1037 009a FFF7FEFF 		bl	checksum1
 1038              	.LVL73:
 1039 009e 051C     		mov	r5, r0
 1040 00a0 114B     		ldr	r3, .L45+20
 1041 00a2 1870     		strb	r0, [r3]
 289:.\herkulex2.c ****     ck2 = checksum2( ck1 );
 1042              		.loc 1 289 0
 1043 00a4 FFF7FEFF 		bl	checksum2
 1044              	.LVL74:
 1045 00a8 104B     		ldr	r3, .L45+24
 1046 00aa 1870     		strb	r0, [r3]
 290:.\herkulex2.c ****     
 291:.\herkulex2.c ****     if( ck1 != dataEx[5] ) return -1;
 1047              		.loc 1 291 0
 1048 00ac 6379     		ldrb	r3, [r4, #5]
 1049 00ae 9D42     		cmp	r5, r3
 1050 00b0 06D1     		bne	.L43
 292:.\herkulex2.c ****     if( ck2 != dataEx[6] ) return -2;
 1051              		.loc 1 292 0
 1052 00b2 0F4B     		ldr	r3, .L45+28
 1053 00b4 9B79     		ldrb	r3, [r3, #6]
 1054 00b6 9842     		cmp	r0, r3
 1055 00b8 04D1     		bne	.L44
 293:.\herkulex2.c ****     
 294:.\herkulex2.c ****     return dataEx[7];
 1056              		.loc 1 294 0
 1057 00ba 0D4B     		ldr	r3, .L45+28
 1058 00bc D879     		ldrb	r0, [r3, #7]
 1059 00be 02E0     		b	.L42
 1060              	.L43:
 291:.\herkulex2.c ****     if( ck1 != dataEx[5] ) return -1;
 1061              		.loc 1 291 0
 1062 00c0 FF20     		mov	r0, #255
 1063 00c2 00E0     		b	.L42
 1064              	.L44:
ARM GAS  C:\Users\EDTRIC~1\AppData\Local\Temp\ccbcYoXT.s 			page 25


 292:.\herkulex2.c ****     if( ck2 != dataEx[6] ) return -2;
 1065              		.loc 1 292 0
 1066 00c4 FE20     		mov	r0, #254
 1067              	.L42:
 295:.\herkulex2.c **** }
 1068              		.loc 1 295 0
 1069              		@ sp needed
 1070 00c6 3CBC     		pop	{r2, r3, r4, r5}
 1071 00c8 9046     		mov	r8, r2
 1072 00ca 9946     		mov	r9, r3
 1073 00cc A246     		mov	r10, r4
 1074 00ce AB46     		mov	fp, r5
 1075 00d0 F8BD     		pop	{r3, r4, r5, r6, r7, pc}
 1076              	.L46:
 1077 00d2 C046     		.align	2
 1078              	.L45:
 1079 00d4 00000000 		.word	pSize
 1080 00d8 00000000 		.word	pID
 1081 00dc 00000000 		.word	cmd
 1082 00e0 00000000 		.word	data
 1083 00e4 00000000 		.word	lengthString
 1084 00e8 00000000 		.word	ck1
 1085 00ec 00000000 		.word	ck2
 1086 00f0 00000000 		.word	dataEx
 1087              		.cfi_endproc
 1088              	.LFE45:
 1089              		.size	Servo_model, .-Servo_model
 1090              		.section	.text.Servo_setID,"ax",%progbits
 1091              		.align	2
 1092              		.global	Servo_setID
 1093              		.code	16
 1094              		.thumb_func
 1095              		.type	Servo_setID, %function
 1096              	Servo_setID:
 1097              	.LFB46:
 296:.\herkulex2.c **** 
 297:.\herkulex2.c **** void Servo_setID( uint8 oldID , uint8 newID )
 298:.\herkulex2.c **** {
 1098              		.loc 1 298 0
 1099              		.cfi_startproc
 1100              	.LVL75:
 1101 0000 F0B5     		push	{r4, r5, r6, r7, lr}
 1102              		.cfi_def_cfa_offset 20
 1103              		.cfi_offset 4, -20
 1104              		.cfi_offset 5, -16
 1105              		.cfi_offset 6, -12
 1106              		.cfi_offset 7, -8
 1107              		.cfi_offset 14, -4
 1108 0002 4746     		mov	r7, r8
 1109 0004 80B4     		push	{r7}
 1110              		.cfi_def_cfa_offset 24
 1111              		.cfi_offset 8, -24
 299:.\herkulex2.c ****     pSize = 0x0A;
 1112              		.loc 1 299 0
 1113 0006 1A4A     		ldr	r2, .L48
 1114 0008 9046     		mov	r8, r2
 1115 000a 0A23     		mov	r3, #10
ARM GAS  C:\Users\EDTRIC~1\AppData\Local\Temp\ccbcYoXT.s 			page 26


 1116 000c 1370     		strb	r3, [r2]
 300:.\herkulex2.c ****     pID = oldID;
 1117              		.loc 1 300 0
 1118 000e 194F     		ldr	r7, .L48+4
 1119 0010 3870     		strb	r0, [r7]
 301:.\herkulex2.c ****     cmd = EEP_WRITE;
 1120              		.loc 1 301 0
 1121 0012 194E     		ldr	r6, .L48+8
 1122 0014 0123     		mov	r3, #1
 1123 0016 3370     		strb	r3, [r6]
 302:.\herkulex2.c ****     data[0] = 0x06;
 1124              		.loc 1 302 0
 1125 0018 184C     		ldr	r4, .L48+12
 1126 001a 0622     		mov	r2, #6
 1127 001c 2270     		strb	r2, [r4]
 303:.\herkulex2.c ****     data[1] = 0x01;
 1128              		.loc 1 303 0
 1129 001e 6370     		strb	r3, [r4, #1]
 304:.\herkulex2.c ****     data[2] = newID;
 1130              		.loc 1 304 0
 1131 0020 A170     		strb	r1, [r4, #2]
 305:.\herkulex2.c ****     lengthString = 3;
 1132              		.loc 1 305 0
 1133 0022 0322     		mov	r2, #3
 1134 0024 164B     		ldr	r3, .L48+16
 1135 0026 1A70     		strb	r2, [r3]
 306:.\herkulex2.c ****     
 307:.\herkulex2.c ****     ck1 = checksum1( data , lengthString );
 1136              		.loc 1 307 0
 1137 0028 201C     		mov	r0, r4
 1138              	.LVL76:
 1139 002a 0321     		mov	r1, #3
 1140              	.LVL77:
 1141 002c FFF7FEFF 		bl	checksum1
 1142              	.LVL78:
 1143 0030 051C     		mov	r5, r0
 1144 0032 144B     		ldr	r3, .L48+20
 1145 0034 1870     		strb	r0, [r3]
 308:.\herkulex2.c ****     ck2 = checksum2( ck1 );
 1146              		.loc 1 308 0
 1147 0036 FFF7FEFF 		bl	checksum2
 1148              	.LVL79:
 1149 003a 134B     		ldr	r3, .L48+24
 1150 003c 1870     		strb	r0, [r3]
 309:.\herkulex2.c ****     
 310:.\herkulex2.c ****     dataEx[0] = HEADER;
 1151              		.loc 1 310 0
 1152 003e 134B     		ldr	r3, .L48+28
 1153 0040 FF22     		mov	r2, #255
 1154 0042 1A70     		strb	r2, [r3]
 311:.\herkulex2.c ****     dataEx[1] = HEADER;
 1155              		.loc 1 311 0
 1156 0044 5A70     		strb	r2, [r3, #1]
 312:.\herkulex2.c ****     dataEx[2] = pSize;
 1157              		.loc 1 312 0
 1158 0046 4246     		mov	r2, r8
 1159 0048 1178     		ldrb	r1, [r2]
ARM GAS  C:\Users\EDTRIC~1\AppData\Local\Temp\ccbcYoXT.s 			page 27


 1160 004a 9970     		strb	r1, [r3, #2]
 313:.\herkulex2.c ****     dataEx[3] = pID;
 1161              		.loc 1 313 0
 1162 004c 3A78     		ldrb	r2, [r7]
 1163 004e DA70     		strb	r2, [r3, #3]
 314:.\herkulex2.c ****     dataEx[4] = cmd;
 1164              		.loc 1 314 0
 1165 0050 3278     		ldrb	r2, [r6]
 1166 0052 1A71     		strb	r2, [r3, #4]
 315:.\herkulex2.c ****     dataEx[5] = ck1;
 1167              		.loc 1 315 0
 1168 0054 5D71     		strb	r5, [r3, #5]
 316:.\herkulex2.c ****     dataEx[6] = ck2;
 1169              		.loc 1 316 0
 1170 0056 9871     		strb	r0, [r3, #6]
 317:.\herkulex2.c ****     dataEx[7] = data[0];
 1171              		.loc 1 317 0
 1172 0058 2278     		ldrb	r2, [r4]
 1173 005a DA71     		strb	r2, [r3, #7]
 318:.\herkulex2.c ****     dataEx[8] = data[1];
 1174              		.loc 1 318 0
 1175 005c 6278     		ldrb	r2, [r4, #1]
 1176 005e 1A72     		strb	r2, [r3, #8]
 319:.\herkulex2.c ****     dataEx[9] = data[2];
 1177              		.loc 1 319 0
 1178 0060 A278     		ldrb	r2, [r4, #2]
 1179 0062 5A72     		strb	r2, [r3, #9]
 320:.\herkulex2.c ****     
 321:.\herkulex2.c ****     sendData( dataEx , pSize );
 1180              		.loc 1 321 0
 1181 0064 181C     		mov	r0, r3
 1182 0066 FFF7FEFF 		bl	sendData
 1183              	.LVL80:
 322:.\herkulex2.c **** }
 1184              		.loc 1 322 0
 1185              		@ sp needed
 1186 006a 04BC     		pop	{r2}
 1187 006c 9046     		mov	r8, r2
 1188 006e F0BD     		pop	{r4, r5, r6, r7, pc}
 1189              	.L49:
 1190              		.align	2
 1191              	.L48:
 1192 0070 00000000 		.word	pSize
 1193 0074 00000000 		.word	pID
 1194 0078 00000000 		.word	cmd
 1195 007c 00000000 		.word	data
 1196 0080 00000000 		.word	lengthString
 1197 0084 00000000 		.word	ck1
 1198 0088 00000000 		.word	ck2
 1199 008c 00000000 		.word	dataEx
 1200              		.cfi_endproc
 1201              	.LFE46:
 1202              		.size	Servo_setID, .-Servo_setID
 1203              		.section	.text.Servo_resetID,"ax",%progbits
 1204              		.align	2
 1205              		.global	Servo_resetID
 1206              		.code	16
ARM GAS  C:\Users\EDTRIC~1\AppData\Local\Temp\ccbcYoXT.s 			page 28


 1207              		.thumb_func
 1208              		.type	Servo_resetID, %function
 1209              	Servo_resetID:
 1210              	.LFB47:
 323:.\herkulex2.c **** 
 324:.\herkulex2.c **** void Servo_resetID ( void )
 325:.\herkulex2.c **** {
 1211              		.loc 1 325 0
 1212              		.cfi_startproc
 1213 0000 F8B5     		push	{r3, r4, r5, r6, r7, lr}
 1214              		.cfi_def_cfa_offset 24
 1215              		.cfi_offset 3, -24
 1216              		.cfi_offset 4, -20
 1217              		.cfi_offset 5, -16
 1218              		.cfi_offset 6, -12
 1219              		.cfi_offset 7, -8
 1220              		.cfi_offset 14, -4
 1221 0002 4F46     		mov	r7, r9
 1222 0004 4646     		mov	r6, r8
 1223 0006 C0B4     		push	{r6, r7}
 1224              		.cfi_def_cfa_offset 32
 1225              		.cfi_offset 8, -32
 1226              		.cfi_offset 9, -28
 326:.\herkulex2.c ****     uint8 i;
 327:.\herkulex2.c ****     pSize = 0x09;
 1227              		.loc 1 327 0
 1228 0008 0922     		mov	r2, #9
 1229 000a 264B     		ldr	r3, .L53
 1230 000c 1A70     		strb	r2, [r3]
 328:.\herkulex2.c ****     cmd = EEP_READ;
 1231              		.loc 1 328 0
 1232 000e 0223     		mov	r3, #2
 1233 0010 254A     		ldr	r2, .L53+4
 1234 0012 1370     		strb	r3, [r2]
 329:.\herkulex2.c ****     data[0] = 0x06;
 1235              		.loc 1 329 0
 1236 0014 254A     		ldr	r2, .L53+8
 1237 0016 0621     		mov	r1, #6
 1238 0018 1170     		strb	r1, [r2]
 330:.\herkulex2.c ****     data[1] = 0x01;
 1239              		.loc 1 330 0
 1240 001a 0121     		mov	r1, #1
 1241 001c 5170     		strb	r1, [r2, #1]
 331:.\herkulex2.c ****     
 332:.\herkulex2.c ****     lengthString = 2u;
 1242              		.loc 1 332 0
 1243 001e 244A     		ldr	r2, .L53+12
 1244 0020 1370     		strb	r3, [r2]
 1245              	.LVL81:
 333:.\herkulex2.c ****     
 334:.\herkulex2.c ****     for ( i = 1 ; i <= 253 ; i++ )
 1246              		.loc 1 334 0
 1247 0022 0125     		mov	r5, #1
 335:.\herkulex2.c ****     {
 336:.\herkulex2.c ****         pID = i;
 1248              		.loc 1 336 0
 1249 0024 234A     		ldr	r2, .L53+16
ARM GAS  C:\Users\EDTRIC~1\AppData\Local\Temp\ccbcYoXT.s 			page 29


 1250 0026 9046     		mov	r8, r2
 337:.\herkulex2.c ****         ck1 = checksum1( data , lengthString );
 1251              		.loc 1 337 0
 1252 0028 204F     		ldr	r7, .L53+8
 1253 002a 214B     		ldr	r3, .L53+12
 1254 002c 9946     		mov	r9, r3
 334:.\herkulex2.c ****     for ( i = 1 ; i <= 253 ; i++ )
 1255              		.loc 1 334 0
 1256 002e 32E0     		b	.L51
 1257              	.LVL82:
 1258              	.L52:
 336:.\herkulex2.c ****         pID = i;
 1259              		.loc 1 336 0 discriminator 2
 1260 0030 4246     		mov	r2, r8
 1261 0032 1570     		strb	r5, [r2]
 1262              		.loc 1 337 0 discriminator 2
 1263 0034 4B46     		mov	r3, r9
 1264 0036 1978     		ldrb	r1, [r3]
 1265 0038 381C     		mov	r0, r7
 1266 003a FFF7FEFF 		bl	checksum1
 1267              	.LVL83:
 1268 003e 061C     		mov	r6, r0
 1269 0040 1D4B     		ldr	r3, .L53+20
 1270 0042 1870     		strb	r0, [r3]
 338:.\herkulex2.c ****         ck2 = checksum2( ck1 );
 1271              		.loc 1 338 0 discriminator 2
 1272 0044 FFF7FEFF 		bl	checksum2
 1273              	.LVL84:
 1274 0048 1C4B     		ldr	r3, .L53+24
 1275 004a 1870     		strb	r0, [r3]
 339:.\herkulex2.c ****         
 340:.\herkulex2.c ****         dataEx[0] = HEADER;
 1276              		.loc 1 340 0 discriminator 2
 1277 004c 1C4C     		ldr	r4, .L53+28
 1278 004e FF23     		mov	r3, #255
 1279 0050 2370     		strb	r3, [r4]
 341:.\herkulex2.c ****         dataEx[1] = HEADER;
 1280              		.loc 1 341 0 discriminator 2
 1281 0052 6370     		strb	r3, [r4, #1]
 342:.\herkulex2.c ****         dataEx[2] = pSize;
 1282              		.loc 1 342 0 discriminator 2
 1283 0054 134B     		ldr	r3, .L53
 1284 0056 1978     		ldrb	r1, [r3]
 1285 0058 A170     		strb	r1, [r4, #2]
 343:.\herkulex2.c ****         dataEx[3] = pID;
 1286              		.loc 1 343 0 discriminator 2
 1287 005a 4246     		mov	r2, r8
 1288 005c 1378     		ldrb	r3, [r2]
 1289 005e E370     		strb	r3, [r4, #3]
 344:.\herkulex2.c ****         dataEx[4] = cmd;
 1290              		.loc 1 344 0 discriminator 2
 1291 0060 114B     		ldr	r3, .L53+4
 1292 0062 1B78     		ldrb	r3, [r3]
 1293 0064 2371     		strb	r3, [r4, #4]
 345:.\herkulex2.c ****         dataEx[5] = ck1;
 1294              		.loc 1 345 0 discriminator 2
 1295 0066 6671     		strb	r6, [r4, #5]
ARM GAS  C:\Users\EDTRIC~1\AppData\Local\Temp\ccbcYoXT.s 			page 30


 346:.\herkulex2.c ****         dataEx[6] = ck2;
 1296              		.loc 1 346 0 discriminator 2
 1297 0068 A071     		strb	r0, [r4, #6]
 347:.\herkulex2.c ****         dataEx[7] = data[0];
 1298              		.loc 1 347 0 discriminator 2
 1299 006a 3B78     		ldrb	r3, [r7]
 1300 006c E371     		strb	r3, [r4, #7]
 348:.\herkulex2.c ****         dataEx[8] = data[1];
 1301              		.loc 1 348 0 discriminator 2
 1302 006e 7B78     		ldrb	r3, [r7, #1]
 1303 0070 2372     		strb	r3, [r4, #8]
 349:.\herkulex2.c ****         
 350:.\herkulex2.c ****         sendData( dataEx , pSize );
 1304              		.loc 1 350 0 discriminator 2
 1305 0072 201C     		mov	r0, r4
 1306 0074 FFF7FEFF 		bl	sendData
 1307              	.LVL85:
 351:.\herkulex2.c ****         CyDelay(5);
 1308              		.loc 1 351 0 discriminator 2
 1309 0078 0520     		mov	r0, #5
 1310 007a FFF7FEFF 		bl	CyDelay
 1311              	.LVL86:
 352:.\herkulex2.c ****         readData( 15 );
 1312              		.loc 1 352 0 discriminator 2
 1313 007e 0F20     		mov	r0, #15
 1314 0080 FFF7FEFF 		bl	readData
 1315              	.LVL87:
 353:.\herkulex2.c ****         CyDelay(10);
 1316              		.loc 1 353 0 discriminator 2
 1317 0084 0A20     		mov	r0, #10
 1318 0086 FFF7FEFF 		bl	CyDelay
 1319              	.LVL88:
 354:.\herkulex2.c ****         Servo_setID( dataEx[3] , 253 );        
 1320              		.loc 1 354 0 discriminator 2
 1321 008a E078     		ldrb	r0, [r4, #3]
 1322 008c FD21     		mov	r1, #253
 1323 008e FFF7FEFF 		bl	Servo_setID
 1324              	.LVL89:
 334:.\herkulex2.c ****     for ( i = 1 ; i <= 253 ; i++ )
 1325              		.loc 1 334 0 discriminator 2
 1326 0092 0135     		add	r5, r5, #1
 1327              	.LVL90:
 1328 0094 EDB2     		uxtb	r5, r5
 1329              	.LVL91:
 1330              	.L51:
 334:.\herkulex2.c ****     for ( i = 1 ; i <= 253 ; i++ )
 1331              		.loc 1 334 0 is_stmt 0 discriminator 1
 1332 0096 FD2D     		cmp	r5, #253
 1333 0098 CAD9     		bls	.L52
 355:.\herkulex2.c ****     }
 356:.\herkulex2.c **** }
 1334              		.loc 1 356 0 is_stmt 1
 1335              		@ sp needed
 1336              	.LVL92:
 1337 009a 0CBC     		pop	{r2, r3}
 1338 009c 9046     		mov	r8, r2
 1339 009e 9946     		mov	r9, r3
ARM GAS  C:\Users\EDTRIC~1\AppData\Local\Temp\ccbcYoXT.s 			page 31


 1340 00a0 F8BD     		pop	{r3, r4, r5, r6, r7, pc}
 1341              	.L54:
 1342 00a2 C046     		.align	2
 1343              	.L53:
 1344 00a4 00000000 		.word	pSize
 1345 00a8 00000000 		.word	cmd
 1346 00ac 00000000 		.word	data
 1347 00b0 00000000 		.word	lengthString
 1348 00b4 00000000 		.word	pID
 1349 00b8 00000000 		.word	ck1
 1350 00bc 00000000 		.word	ck2
 1351 00c0 00000000 		.word	dataEx
 1352              		.cfi_endproc
 1353              	.LFE47:
 1354              		.size	Servo_resetID, .-Servo_resetID
 1355              		.section	.text.Servo_clearError,"ax",%progbits
 1356              		.align	2
 1357              		.global	Servo_clearError
 1358              		.code	16
 1359              		.thumb_func
 1360              		.type	Servo_clearError, %function
 1361              	Servo_clearError:
 1362              	.LFB48:
 357:.\herkulex2.c **** 
 358:.\herkulex2.c **** void Servo_clearError( uint8 servoID )
 359:.\herkulex2.c **** {
 1363              		.loc 1 359 0
 1364              		.cfi_startproc
 1365              	.LVL93:
 1366 0000 F0B5     		push	{r4, r5, r6, r7, lr}
 1367              		.cfi_def_cfa_offset 20
 1368              		.cfi_offset 4, -20
 1369              		.cfi_offset 5, -16
 1370              		.cfi_offset 6, -12
 1371              		.cfi_offset 7, -8
 1372              		.cfi_offset 14, -4
 1373 0002 4746     		mov	r7, r8
 1374 0004 80B4     		push	{r7}
 1375              		.cfi_def_cfa_offset 24
 1376              		.cfi_offset 8, -24
 360:.\herkulex2.c ****     pSize = 0x0B;
 1377              		.loc 1 360 0
 1378 0006 1D4A     		ldr	r2, .L56
 1379 0008 9046     		mov	r8, r2
 1380 000a 0B23     		mov	r3, #11
 1381 000c 1370     		strb	r3, [r2]
 361:.\herkulex2.c ****     pID = servoID;
 1382              		.loc 1 361 0
 1383 000e 1C4F     		ldr	r7, .L56+4
 1384 0010 3870     		strb	r0, [r7]
 362:.\herkulex2.c ****     cmd = RAM_WRITE;
 1385              		.loc 1 362 0
 1386 0012 1C4E     		ldr	r6, .L56+8
 1387 0014 0323     		mov	r3, #3
 1388 0016 3370     		strb	r3, [r6]
 363:.\herkulex2.c ****     data[0] = 0x30;
 1389              		.loc 1 363 0
ARM GAS  C:\Users\EDTRIC~1\AppData\Local\Temp\ccbcYoXT.s 			page 32


 1390 0018 1B4C     		ldr	r4, .L56+12
 1391 001a 3023     		mov	r3, #48
 1392 001c 2370     		strb	r3, [r4]
 364:.\herkulex2.c ****     data[1] = 0x02;
 1393              		.loc 1 364 0
 1394 001e 0223     		mov	r3, #2
 1395 0020 6370     		strb	r3, [r4, #1]
 365:.\herkulex2.c ****     data[2] = 0x00;
 1396              		.loc 1 365 0
 1397 0022 0023     		mov	r3, #0
 1398 0024 A370     		strb	r3, [r4, #2]
 366:.\herkulex2.c ****     data[3] = 0x00;
 1399              		.loc 1 366 0
 1400 0026 E370     		strb	r3, [r4, #3]
 367:.\herkulex2.c ****     lengthString = 4;
 1401              		.loc 1 367 0
 1402 0028 0422     		mov	r2, #4
 1403 002a 184B     		ldr	r3, .L56+16
 1404 002c 1A70     		strb	r2, [r3]
 368:.\herkulex2.c ****     
 369:.\herkulex2.c ****     ck1 = checksum1( data , lengthString );
 1405              		.loc 1 369 0
 1406 002e 201C     		mov	r0, r4
 1407              	.LVL94:
 1408 0030 0421     		mov	r1, #4
 1409 0032 FFF7FEFF 		bl	checksum1
 1410              	.LVL95:
 1411 0036 051C     		mov	r5, r0
 1412 0038 154B     		ldr	r3, .L56+20
 1413 003a 1870     		strb	r0, [r3]
 370:.\herkulex2.c ****     ck2 = checksum2( ck1 );
 1414              		.loc 1 370 0
 1415 003c FFF7FEFF 		bl	checksum2
 1416              	.LVL96:
 1417 0040 144B     		ldr	r3, .L56+24
 1418 0042 1870     		strb	r0, [r3]
 371:.\herkulex2.c ****     
 372:.\herkulex2.c ****     dataEx[0] = HEADER;
 1419              		.loc 1 372 0
 1420 0044 144B     		ldr	r3, .L56+28
 1421 0046 FF22     		mov	r2, #255
 1422 0048 1A70     		strb	r2, [r3]
 373:.\herkulex2.c ****     dataEx[1] = HEADER;
 1423              		.loc 1 373 0
 1424 004a 5A70     		strb	r2, [r3, #1]
 374:.\herkulex2.c ****     dataEx[2] = pSize;
 1425              		.loc 1 374 0
 1426 004c 4246     		mov	r2, r8
 1427 004e 1178     		ldrb	r1, [r2]
 1428 0050 9970     		strb	r1, [r3, #2]
 375:.\herkulex2.c ****     dataEx[3] = pID;
 1429              		.loc 1 375 0
 1430 0052 3A78     		ldrb	r2, [r7]
 1431 0054 DA70     		strb	r2, [r3, #3]
 376:.\herkulex2.c ****     dataEx[4] = cmd;
 1432              		.loc 1 376 0
 1433 0056 3278     		ldrb	r2, [r6]
ARM GAS  C:\Users\EDTRIC~1\AppData\Local\Temp\ccbcYoXT.s 			page 33


 1434 0058 1A71     		strb	r2, [r3, #4]
 377:.\herkulex2.c ****     dataEx[5] = ck1;
 1435              		.loc 1 377 0
 1436 005a 5D71     		strb	r5, [r3, #5]
 378:.\herkulex2.c ****     dataEx[6] = ck2;
 1437              		.loc 1 378 0
 1438 005c 9871     		strb	r0, [r3, #6]
 379:.\herkulex2.c ****     dataEx[7] = data[0];
 1439              		.loc 1 379 0
 1440 005e 2278     		ldrb	r2, [r4]
 1441 0060 DA71     		strb	r2, [r3, #7]
 380:.\herkulex2.c ****     dataEx[8] = data[1];
 1442              		.loc 1 380 0
 1443 0062 6278     		ldrb	r2, [r4, #1]
 1444 0064 1A72     		strb	r2, [r3, #8]
 381:.\herkulex2.c ****     dataEx[9] = data[2];
 1445              		.loc 1 381 0
 1446 0066 A278     		ldrb	r2, [r4, #2]
 1447 0068 5A72     		strb	r2, [r3, #9]
 382:.\herkulex2.c ****     dataEx[10] = data[3];
 1448              		.loc 1 382 0
 1449 006a E278     		ldrb	r2, [r4, #3]
 1450 006c 9A72     		strb	r2, [r3, #10]
 383:.\herkulex2.c ****     
 384:.\herkulex2.c ****     sendData( dataEx , pSize );
 1451              		.loc 1 384 0
 1452 006e 181C     		mov	r0, r3
 1453 0070 FFF7FEFF 		bl	sendData
 1454              	.LVL97:
 385:.\herkulex2.c **** }
 1455              		.loc 1 385 0
 1456              		@ sp needed
 1457 0074 04BC     		pop	{r2}
 1458 0076 9046     		mov	r8, r2
 1459 0078 F0BD     		pop	{r4, r5, r6, r7, pc}
 1460              	.L57:
 1461 007a C046     		.align	2
 1462              	.L56:
 1463 007c 00000000 		.word	pSize
 1464 0080 00000000 		.word	pID
 1465 0084 00000000 		.word	cmd
 1466 0088 00000000 		.word	data
 1467 008c 00000000 		.word	lengthString
 1468 0090 00000000 		.word	ck1
 1469 0094 00000000 		.word	ck2
 1470 0098 00000000 		.word	dataEx
 1471              		.cfi_endproc
 1472              	.LFE48:
 1473              		.size	Servo_clearError, .-Servo_clearError
 1474              		.section	.text.Servo_moveAll,"ax",%progbits
 1475              		.align	2
 1476              		.global	Servo_moveAll
 1477              		.code	16
 1478              		.thumb_func
 1479              		.type	Servo_moveAll, %function
 1480              	Servo_moveAll:
 1481              	.LFB49:
ARM GAS  C:\Users\EDTRIC~1\AppData\Local\Temp\ccbcYoXT.s 			page 34


 386:.\herkulex2.c **** 
 387:.\herkulex2.c **** void Servo_moveAll (uint8 servoID , int goal , uint8 LED )
 388:.\herkulex2.c **** {
 1482              		.loc 1 388 0
 1483              		.cfi_startproc
 1484              	.LVL98:
 1485 0000 38B5     		push	{r3, r4, r5, lr}
 1486              		.cfi_def_cfa_offset 16
 1487              		.cfi_offset 3, -16
 1488              		.cfi_offset 4, -12
 1489              		.cfi_offset 5, -8
 1490              		.cfi_offset 14, -4
 1491 0002 031C     		mov	r3, r0
 389:.\herkulex2.c ****     if( goal > 1023 || goal < 0 ) return;
 1492              		.loc 1 389 0
 1493 0004 114C     		ldr	r4, .L65
 1494 0006 A142     		cmp	r1, r4
 1495 0008 1FD8     		bhi	.L58
 1496              	.LVL99:
 390:.\herkulex2.c ****     
 391:.\herkulex2.c ****     uint8 mode = 0;
 392:.\herkulex2.c ****     uint8 stop = 0;
 393:.\herkulex2.c ****     
 394:.\herkulex2.c ****     int posLSB = goal & 0x00FF;
 1497              		.loc 1 394 0
 1498 000a FF20     		mov	r0, #255
 1499              	.LVL100:
 1500 000c 0840     		and	r0, r1
 1501              	.LVL101:
 395:.\herkulex2.c ****     int posMSB = ( goal & 0xFF00 ) >> 8;
 1502              		.loc 1 395 0
 1503 000e 0904     		lsl	r1, r1, #16
 1504              	.LVL102:
 1505 0010 090E     		lsr	r1, r1, #24
 1506              	.LVL103:
 396:.\herkulex2.c ****     
 397:.\herkulex2.c ****     uint8 blue = 0;
 398:.\herkulex2.c ****     uint8 green = 0;
 399:.\herkulex2.c ****     uint8 red = 0;
 400:.\herkulex2.c ****     
 401:.\herkulex2.c ****     switch( LED )
 1507              		.loc 1 401 0
 1508 0012 022A     		cmp	r2, #2
 1509 0014 07D0     		beq	.L61
 1510 0016 042A     		cmp	r2, #4
 1511 0018 09D0     		beq	.L62
 1512 001a 012A     		cmp	r2, #1
 1513 001c 0BD0     		beq	.L64
 399:.\herkulex2.c ****     uint8 red = 0;
 1514              		.loc 1 399 0
 1515 001e 0022     		mov	r2, #0
 1516              	.LVL104:
 398:.\herkulex2.c ****     uint8 green = 0;
 1517              		.loc 1 398 0
 1518 0020 0025     		mov	r5, #0
 397:.\herkulex2.c ****     uint8 blue = 0;
 1519              		.loc 1 397 0
ARM GAS  C:\Users\EDTRIC~1\AppData\Local\Temp\ccbcYoXT.s 			page 35


 1520 0022 0024     		mov	r4, #0
 1521 0024 0AE0     		b	.L63
 1522              	.LVL105:
 1523              	.L61:
 399:.\herkulex2.c ****     uint8 red = 0;
 1524              		.loc 1 399 0
 1525 0026 0022     		mov	r2, #0
 1526              	.LVL106:
 398:.\herkulex2.c ****     uint8 green = 0;
 1527              		.loc 1 398 0
 1528 0028 0025     		mov	r5, #0
 402:.\herkulex2.c ****     {
 403:.\herkulex2.c ****         case 1:
 404:.\herkulex2.c ****             green = 1;
 405:.\herkulex2.c ****             break;
 406:.\herkulex2.c ****         case 2:
 407:.\herkulex2.c ****             blue = 1;
 1529              		.loc 1 407 0
 1530 002a 0124     		mov	r4, #1
 408:.\herkulex2.c ****             break;
 1531              		.loc 1 408 0
 1532 002c 06E0     		b	.L63
 1533              	.LVL107:
 1534              	.L62:
 409:.\herkulex2.c ****         case 4:
 410:.\herkulex2.c ****             red = 1;
 1535              		.loc 1 410 0
 1536 002e 0122     		mov	r2, #1
 1537              	.LVL108:
 398:.\herkulex2.c ****     uint8 green = 0;
 1538              		.loc 1 398 0
 1539 0030 0025     		mov	r5, #0
 397:.\herkulex2.c ****     uint8 blue = 0;
 1540              		.loc 1 397 0
 1541 0032 0024     		mov	r4, #0
 411:.\herkulex2.c ****             break;
 1542              		.loc 1 411 0
 1543 0034 02E0     		b	.L63
 1544              	.LVL109:
 1545              	.L64:
 399:.\herkulex2.c ****     uint8 red = 0;
 1546              		.loc 1 399 0
 1547 0036 0022     		mov	r2, #0
 1548              	.LVL110:
 404:.\herkulex2.c ****             green = 1;
 1549              		.loc 1 404 0
 1550 0038 0125     		mov	r5, #1
 397:.\herkulex2.c ****     uint8 blue = 0;
 1551              		.loc 1 397 0
 1552 003a 0024     		mov	r4, #0
 1553              	.LVL111:
 1554              	.L63:
 412:.\herkulex2.c ****     }
 413:.\herkulex2.c ****     
 414:.\herkulex2.c ****     int setValue = stop + mode * 2 + green * 4 + blue * 8 + red * 16;
 1555              		.loc 1 414 0
 1556 003c AD00     		lsl	r5, r5, #2
ARM GAS  C:\Users\EDTRIC~1\AppData\Local\Temp\ccbcYoXT.s 			page 36


 1557              	.LVL112:
 1558 003e E400     		lsl	r4, r4, #3
 1559              	.LVL113:
 1560 0040 1201     		lsl	r2, r2, #4
 1561              	.LVL114:
 1562 0042 2C19     		add	r4, r5, r4
 1563              	.LVL115:
 415:.\herkulex2.c ****     
 416:.\herkulex2.c ****     addData( posLSB , posMSB , setValue , servoID );
 1564              		.loc 1 416 0
 1565 0044 A218     		add	r2, r4, r2
 1566 0046 FFF7FEFF 		bl	addData
 1567              	.LVL116:
 1568              	.L58:
 417:.\herkulex2.c **** }
 1569              		.loc 1 417 0
 1570              		@ sp needed
 1571 004a 38BD     		pop	{r3, r4, r5, pc}
 1572              	.L66:
 1573              		.align	2
 1574              	.L65:
 1575 004c FF030000 		.word	1023
 1576              		.cfi_endproc
 1577              	.LFE49:
 1578              		.size	Servo_moveAll, .-Servo_moveAll
 1579              		.global	__aeabi_fcmpgt
 1580              		.global	__aeabi_fcmplt
 1581              		.global	__aeabi_f2d
 1582              		.global	__aeabi_ddiv
 1583              		.global	__aeabi_d2iz
 1584              		.section	.text.Servo_moveAllAngle,"ax",%progbits
 1585              		.align	2
 1586              		.global	Servo_moveAllAngle
 1587              		.code	16
 1588              		.thumb_func
 1589              		.type	Servo_moveAllAngle, %function
 1590              	Servo_moveAllAngle:
 1591              	.LFB50:
 418:.\herkulex2.c **** 
 419:.\herkulex2.c **** void Servo_moveAllAngle (uint8 servoID , float angle , uint8 LED )
 420:.\herkulex2.c **** {
 1592              		.loc 1 420 0
 1593              		.cfi_startproc
 1594              	.LVL117:
 1595 0000 D0B5     		push	{r4, r6, r7, lr}
 1596              		.cfi_def_cfa_offset 16
 1597              		.cfi_offset 4, -16
 1598              		.cfi_offset 6, -12
 1599              		.cfi_offset 7, -8
 1600              		.cfi_offset 14, -4
 1601 0002 071C     		mov	r7, r0
 1602 0004 0C1C     		add	r4, r1, #0
 1603 0006 161C     		mov	r6, r2
 421:.\herkulex2.c ****     if( angle > 160.0 || angle < -160.0 ) return;
 1604              		.loc 1 421 0
 1605 0008 081C     		add	r0, r1, #0
 1606              	.LVL118:
ARM GAS  C:\Users\EDTRIC~1\AppData\Local\Temp\ccbcYoXT.s 			page 37


 1607 000a 1149     		ldr	r1, .L69+8
 1608              	.LVL119:
 1609 000c FFF7FEFF 		bl	__aeabi_fcmpgt
 1610              	.LVL120:
 1611 0010 0028     		cmp	r0, #0
 1612 0012 15D1     		bne	.L67
 1613              		.loc 1 421 0 is_stmt 0 discriminator 2
 1614 0014 201C     		add	r0, r4, #0
 1615 0016 0F49     		ldr	r1, .L69+12
 1616 0018 FFF7FEFF 		bl	__aeabi_fcmplt
 1617              	.LVL121:
 1618 001c 0028     		cmp	r0, #0
 1619 001e 0FD1     		bne	.L67
 422:.\herkulex2.c ****     int position = (int)(angle/0.325) + 512;
 1620              		.loc 1 422 0 is_stmt 1
 1621 0020 201C     		add	r0, r4, #0
 1622 0022 FFF7FEFF 		bl	__aeabi_f2d
 1623              	.LVL122:
 1624 0026 094B     		ldr	r3, .L69+4
 1625 0028 074A     		ldr	r2, .L69
 1626 002a FFF7FEFF 		bl	__aeabi_ddiv
 1627              	.LVL123:
 1628 002e FFF7FEFF 		bl	__aeabi_d2iz
 1629              	.LVL124:
 1630 0032 8023     		mov	r3, #128
 1631 0034 9B00     		lsl	r3, r3, #2
 1632 0036 C118     		add	r1, r0, r3
 1633              	.LVL125:
 423:.\herkulex2.c ****     Servo_moveAll( servoID , position , LED );
 1634              		.loc 1 423 0
 1635 0038 381C     		mov	r0, r7
 1636 003a 321C     		mov	r2, r6
 1637 003c FFF7FEFF 		bl	Servo_moveAll
 1638              	.LVL126:
 1639              	.L67:
 424:.\herkulex2.c **** }
 1640              		.loc 1 424 0
 1641              		@ sp needed
 1642              	.LVL127:
 1643 0040 D0BD     		pop	{r4, r6, r7, pc}
 1644              	.L70:
 1645 0042 C046C046 		.align	3
 1645      C046
 1646              	.L69:
 1647 0048 CDCCCCCC 		.word	-858993459
 1648 004c CCCCD43F 		.word	1070910668
 1649 0050 00002043 		.word	1126170624
 1650 0054 000020C3 		.word	-1021313024
 1651              		.cfi_endproc
 1652              	.LFE50:
 1653              		.size	Servo_moveAllAngle, .-Servo_moveAllAngle
 1654              		.section	.text.Servo_moveSpeedAll,"ax",%progbits
 1655              		.align	2
 1656              		.global	Servo_moveSpeedAll
 1657              		.code	16
 1658              		.thumb_func
 1659              		.type	Servo_moveSpeedAll, %function
ARM GAS  C:\Users\EDTRIC~1\AppData\Local\Temp\ccbcYoXT.s 			page 38


 1660              	Servo_moveSpeedAll:
 1661              	.LFB51:
 425:.\herkulex2.c **** 
 426:.\herkulex2.c **** void Servo_moveSpeedAll (uint8 servoID , int goal , uint8 LED )
 427:.\herkulex2.c **** {
 1662              		.loc 1 427 0
 1663              		.cfi_startproc
 1664              	.LVL128:
 1665 0000 38B5     		push	{r3, r4, r5, lr}
 1666              		.cfi_def_cfa_offset 16
 1667              		.cfi_offset 3, -16
 1668              		.cfi_offset 4, -12
 1669              		.cfi_offset 5, -8
 1670              		.cfi_offset 14, -4
 1671 0002 031C     		mov	r3, r0
 428:.\herkulex2.c ****     if( goal > 1023 || goal < -1023 ) return;
 1672              		.loc 1 428 0
 1673 0004 1648     		ldr	r0, .L79
 1674              	.LVL129:
 1675 0006 0D18     		add	r5, r1, r0
 1676 0008 164C     		ldr	r4, .L79+4
 1677 000a A542     		cmp	r5, r4
 1678 000c 27D8     		bhi	.L71
 1679              	.LVL130:
 429:.\herkulex2.c ****     
 430:.\herkulex2.c ****     uint8 mode = 1;
 431:.\herkulex2.c ****     uint8 stop = 0;
 432:.\herkulex2.c ****     
 433:.\herkulex2.c ****     int goalSpeedSign;
 434:.\herkulex2.c ****     if ( goal < 0 ) 
 1680              		.loc 1 434 0
 1681 000e 0029     		cmp	r1, #0
 1682 0010 03DA     		bge	.L73
 435:.\herkulex2.c ****     {
 436:.\herkulex2.c ****         goalSpeedSign = (-1) * goal;
 1683              		.loc 1 436 0
 1684 0012 4942     		neg	r1, r1
 1685              	.LVL131:
 437:.\herkulex2.c ****         goalSpeedSign |= 0x4000;
 1686              		.loc 1 437 0
 1687 0014 8020     		mov	r0, #128
 1688 0016 C001     		lsl	r0, r0, #7
 1689 0018 0143     		orr	r1, r0
 1690              	.LVL132:
 1691              	.L73:
 438:.\herkulex2.c ****     }
 439:.\herkulex2.c ****     else 
 440:.\herkulex2.c ****     {
 441:.\herkulex2.c ****         goalSpeedSign = goal;
 442:.\herkulex2.c ****     }
 443:.\herkulex2.c ****     
 444:.\herkulex2.c ****     int speedGoalLSB = goalSpeedSign & 0X00FF;
 1692              		.loc 1 444 0
 1693 001a FF20     		mov	r0, #255
 1694 001c 0840     		and	r0, r1
 1695              	.LVL133:
 445:.\herkulex2.c ****     int speedGoalMSB = ( goalSpeedSign & 0xFF00 ) >> 8;
ARM GAS  C:\Users\EDTRIC~1\AppData\Local\Temp\ccbcYoXT.s 			page 39


 1696              		.loc 1 445 0
 1697 001e 0904     		lsl	r1, r1, #16
 1698              	.LVL134:
 1699 0020 090E     		lsr	r1, r1, #24
 1700              	.LVL135:
 446:.\herkulex2.c **** 
 447:.\herkulex2.c ****     int blue = 0;
 448:.\herkulex2.c ****     int green = 0;
 449:.\herkulex2.c ****     int red = 0;
 450:.\herkulex2.c ****     switch (LED) 
 1701              		.loc 1 450 0
 1702 0022 022A     		cmp	r2, #2
 1703 0024 07D0     		beq	.L75
 1704 0026 042A     		cmp	r2, #4
 1705 0028 09D0     		beq	.L76
 1706 002a 012A     		cmp	r2, #1
 1707 002c 0BD0     		beq	.L78
 449:.\herkulex2.c ****     int red = 0;
 1708              		.loc 1 449 0
 1709 002e 0024     		mov	r4, #0
 448:.\herkulex2.c ****     int green = 0;
 1710              		.loc 1 448 0
 1711 0030 0025     		mov	r5, #0
 1712              	.LVL136:
 447:.\herkulex2.c ****     int blue = 0;
 1713              		.loc 1 447 0
 1714 0032 0022     		mov	r2, #0
 1715              	.LVL137:
 1716 0034 0AE0     		b	.L77
 1717              	.LVL138:
 1718              	.L75:
 449:.\herkulex2.c ****     int red = 0;
 1719              		.loc 1 449 0
 1720 0036 0024     		mov	r4, #0
 448:.\herkulex2.c ****     int green = 0;
 1721              		.loc 1 448 0
 1722 0038 0025     		mov	r5, #0
 451:.\herkulex2.c ****     {
 452:.\herkulex2.c ****         case 1:
 453:.\herkulex2.c ****             green = 1;
 454:.\herkulex2.c ****             break;
 455:.\herkulex2.c ****         case 2:
 456:.\herkulex2.c ****             blue = 1;
 1723              		.loc 1 456 0
 1724 003a 0122     		mov	r2, #1
 1725              	.LVL139:
 457:.\herkulex2.c ****             break;
 1726              		.loc 1 457 0
 1727 003c 06E0     		b	.L77
 1728              	.LVL140:
 1729              	.L76:
 458:.\herkulex2.c ****         case 4:
 459:.\herkulex2.c ****             red = 1;
 1730              		.loc 1 459 0
 1731 003e 0124     		mov	r4, #1
 448:.\herkulex2.c ****     int green = 0;
 1732              		.loc 1 448 0
ARM GAS  C:\Users\EDTRIC~1\AppData\Local\Temp\ccbcYoXT.s 			page 40


 1733 0040 0025     		mov	r5, #0
 447:.\herkulex2.c ****     int blue = 0;
 1734              		.loc 1 447 0
 1735 0042 0022     		mov	r2, #0
 1736              	.LVL141:
 460:.\herkulex2.c ****             break;
 1737              		.loc 1 460 0
 1738 0044 02E0     		b	.L77
 1739              	.LVL142:
 1740              	.L78:
 449:.\herkulex2.c ****     int red = 0;
 1741              		.loc 1 449 0
 1742 0046 0024     		mov	r4, #0
 453:.\herkulex2.c ****             green = 1;
 1743              		.loc 1 453 0
 1744 0048 0125     		mov	r5, #1
 447:.\herkulex2.c ****     int blue = 0;
 1745              		.loc 1 447 0
 1746 004a 0022     		mov	r2, #0
 1747              	.LVL143:
 1748              	.L77:
 461:.\herkulex2.c ****     }
 462:.\herkulex2.c ****     
 463:.\herkulex2.c ****     int setValue = stop + mode * 2 + green * 4 + blue * 8 + red * 16;
 1749              		.loc 1 463 0
 1750 004c AD00     		lsl	r5, r5, #2
 1751              	.LVL144:
 1752 004e 0235     		add	r5, r5, #2
 1753 0050 D200     		lsl	r2, r2, #3
 1754              	.LVL145:
 1755 0052 AA18     		add	r2, r5, r2
 1756 0054 2401     		lsl	r4, r4, #4
 1757              	.LVL146:
 1758 0056 1219     		add	r2, r2, r4
 1759              	.LVL147:
 464:.\herkulex2.c ****     
 465:.\herkulex2.c ****     addData( speedGoalLSB , speedGoalMSB , setValue , servoID );
 1760              		.loc 1 465 0
 1761 0058 D2B2     		uxtb	r2, r2
 1762              	.LVL148:
 1763 005a FFF7FEFF 		bl	addData
 1764              	.LVL149:
 1765              	.L71:
 466:.\herkulex2.c **** }
 1766              		.loc 1 466 0
 1767              		@ sp needed
 1768 005e 38BD     		pop	{r3, r4, r5, pc}
 1769              	.L80:
 1770              		.align	2
 1771              	.L79:
 1772 0060 FF030000 		.word	1023
 1773 0064 FE070000 		.word	2046
 1774              		.cfi_endproc
 1775              	.LFE51:
 1776              		.size	Servo_moveSpeedAll, .-Servo_moveSpeedAll
 1777              		.global	__aeabi_i2f
 1778              		.section	.text.Servo_actionAll,"ax",%progbits
ARM GAS  C:\Users\EDTRIC~1\AppData\Local\Temp\ccbcYoXT.s 			page 41


 1779              		.align	2
 1780              		.global	Servo_actionAll
 1781              		.code	16
 1782              		.thumb_func
 1783              		.type	Servo_actionAll, %function
 1784              	Servo_actionAll:
 1785              	.LFB52:
 467:.\herkulex2.c **** 
 468:.\herkulex2.c **** void Servo_actionAll ( int time )
 469:.\herkulex2.c **** {
 1786              		.loc 1 469 0
 1787              		.cfi_startproc
 1788              	.LVL150:
 1789 0000 F8B5     		push	{r3, r4, r5, r6, r7, lr}
 1790              		.cfi_def_cfa_offset 24
 1791              		.cfi_offset 3, -24
 1792              		.cfi_offset 4, -20
 1793              		.cfi_offset 5, -16
 1794              		.cfi_offset 6, -12
 1795              		.cfi_offset 7, -8
 1796              		.cfi_offset 14, -4
 1797 0002 4F46     		mov	r7, r9
 1798 0004 4646     		mov	r6, r8
 1799 0006 C0B4     		push	{r6, r7}
 1800              		.cfi_def_cfa_offset 32
 1801              		.cfi_offset 8, -32
 1802              		.cfi_offset 9, -28
 470:.\herkulex2.c ****     uint8 i;
 471:.\herkulex2.c ****     
 472:.\herkulex2.c ****     if( time < 0 || time > 2856 ) return;
 1803              		.loc 1 472 0
 1804 0008 2B4B     		ldr	r3, .L85+8
 1805 000a 9842     		cmp	r0, r3
 1806 000c 4BD8     		bhi	.L81
 473:.\herkulex2.c ****     
 474:.\herkulex2.c ****     pSize = 0x08 + conta;
 1807              		.loc 1 474 0
 1808 000e 2B4B     		ldr	r3, .L85+12
 1809 0010 1E78     		ldrb	r6, [r3]
 1810 0012 2B4D     		ldr	r5, .L85+16
 1811 0014 331C     		mov	r3, r6
 1812 0016 0833     		add	r3, r3, #8
 1813 0018 2B70     		strb	r3, [r5]
 475:.\herkulex2.c ****     cmd = S_JOG;
 1814              		.loc 1 475 0
 1815 001a 2A4C     		ldr	r4, .L85+20
 1816 001c 0623     		mov	r3, #6
 1817 001e 2370     		strb	r3, [r4]
 476:.\herkulex2.c ****     playTime = (int)((float)time/11.2);
 1818              		.loc 1 476 0
 1819 0020 FFF7FEFF 		bl	__aeabi_i2f
 1820              	.LVL151:
 1821 0024 FFF7FEFF 		bl	__aeabi_f2d
 1822              	.LVL152:
 1823 0028 224B     		ldr	r3, .L85+4
 1824 002a 214A     		ldr	r2, .L85
 1825 002c FFF7FEFF 		bl	__aeabi_ddiv
ARM GAS  C:\Users\EDTRIC~1\AppData\Local\Temp\ccbcYoXT.s 			page 42


 1826              	.LVL153:
 1827 0030 FFF7FEFF 		bl	__aeabi_d2iz
 1828              	.LVL154:
 1829 0034 244F     		ldr	r7, .L85+24
 1830 0036 3860     		str	r0, [r7]
 477:.\herkulex2.c ****     
 478:.\herkulex2.c ****     pID = PIDALL ^ playTime;
 1831              		.loc 1 478 0
 1832 0038 244A     		ldr	r2, .L85+28
 1833 003a 9046     		mov	r8, r2
 1834 003c 0223     		mov	r3, #2
 1835 003e 5B42     		neg	r3, r3
 1836 0040 9946     		mov	r9, r3
 1837 0042 5840     		eor	r0, r3
 1838 0044 1070     		strb	r0, [r2]
 479:.\herkulex2.c ****     
 480:.\herkulex2.c ****     ck1 = checksum1 ( moveData , conta );
 1839              		.loc 1 480 0
 1840 0046 2248     		ldr	r0, .L85+32
 1841 0048 311C     		mov	r1, r6
 1842 004a FFF7FEFF 		bl	checksum1
 1843              	.LVL155:
 1844 004e 061C     		mov	r6, r0
 1845 0050 204B     		ldr	r3, .L85+36
 1846 0052 1870     		strb	r0, [r3]
 481:.\herkulex2.c ****     ck2 = checksum2 ( ck1 );
 1847              		.loc 1 481 0
 1848 0054 FFF7FEFF 		bl	checksum2
 1849              	.LVL156:
 1850 0058 1F4B     		ldr	r3, .L85+40
 1851 005a 1870     		strb	r0, [r3]
 482:.\herkulex2.c ****     
 483:.\herkulex2.c ****     pID = PIDALL;
 1852              		.loc 1 483 0
 1853 005c 4B46     		mov	r3, r9
 1854 005e 4246     		mov	r2, r8
 1855 0060 1370     		strb	r3, [r2]
 484:.\herkulex2.c ****     
 485:.\herkulex2.c ****     dataEx[0] = HEADER;
 1856              		.loc 1 485 0
 1857 0062 1E4B     		ldr	r3, .L85+44
 1858 0064 FF22     		mov	r2, #255
 1859 0066 1A70     		strb	r2, [r3]
 486:.\herkulex2.c ****     dataEx[1] = HEADER;
 1860              		.loc 1 486 0
 1861 0068 5A70     		strb	r2, [r3, #1]
 487:.\herkulex2.c ****     dataEx[2] = pSize;
 1862              		.loc 1 487 0
 1863 006a 2978     		ldrb	r1, [r5]
 1864 006c 9970     		strb	r1, [r3, #2]
 488:.\herkulex2.c ****     dataEx[3] = pID;
 1865              		.loc 1 488 0
 1866 006e FE22     		mov	r2, #254
 1867 0070 DA70     		strb	r2, [r3, #3]
 489:.\herkulex2.c ****     dataEx[4] = cmd;
 1868              		.loc 1 489 0
 1869 0072 2278     		ldrb	r2, [r4]
ARM GAS  C:\Users\EDTRIC~1\AppData\Local\Temp\ccbcYoXT.s 			page 43


 1870 0074 1A71     		strb	r2, [r3, #4]
 490:.\herkulex2.c ****     dataEx[5] = ck1;
 1871              		.loc 1 490 0
 1872 0076 5E71     		strb	r6, [r3, #5]
 491:.\herkulex2.c ****     dataEx[6] = ck2;
 1873              		.loc 1 491 0
 1874 0078 9871     		strb	r0, [r3, #6]
 492:.\herkulex2.c ****     dataEx[7] = playTime;
 1875              		.loc 1 492 0
 1876 007a 3A68     		ldr	r2, [r7]
 1877 007c DA71     		strb	r2, [r3, #7]
 1878              	.LVL157:
 493:.\herkulex2.c ****     
 494:.\herkulex2.c ****     for ( i = 0; i < conta; i++ )
 1879              		.loc 1 494 0
 1880 007e 0023     		mov	r3, #0
 1881 0080 0E4C     		ldr	r4, .L85+12
 495:.\herkulex2.c ****     {
 496:.\herkulex2.c ****         dataEx[i+8] = moveData[i];
 1882              		.loc 1 496 0
 1883 0082 134E     		ldr	r6, .L85+32
 1884 0084 154D     		ldr	r5, .L85+44
 494:.\herkulex2.c ****     for ( i = 0; i < conta; i++ )
 1885              		.loc 1 494 0
 1886 0086 05E0     		b	.L83
 1887              	.LVL158:
 1888              	.L84:
 1889              		.loc 1 496 0 discriminator 2
 1890 0088 1A1C     		mov	r2, r3
 1891 008a 0832     		add	r2, r2, #8
 1892 008c F05C     		ldrb	r0, [r6, r3]
 1893 008e A854     		strb	r0, [r5, r2]
 494:.\herkulex2.c ****     for ( i = 0; i < conta; i++ )
 1894              		.loc 1 494 0 discriminator 2
 1895 0090 0133     		add	r3, r3, #1
 1896              	.LVL159:
 1897 0092 DBB2     		uxtb	r3, r3
 1898              	.LVL160:
 1899              	.L83:
 494:.\herkulex2.c ****     for ( i = 0; i < conta; i++ )
 1900              		.loc 1 494 0 is_stmt 0 discriminator 1
 1901 0094 2278     		ldrb	r2, [r4]
 1902 0096 9342     		cmp	r3, r2
 1903 0098 F6D3     		bcc	.L84
 497:.\herkulex2.c ****     }
 498:.\herkulex2.c ****     
 499:.\herkulex2.c ****     sendData( dataEx , pSize );
 1904              		.loc 1 499 0 is_stmt 1
 1905 009a 1048     		ldr	r0, .L85+44
 1906 009c FFF7FEFF 		bl	sendData
 1907              	.LVL161:
 500:.\herkulex2.c ****     
 501:.\herkulex2.c ****     conta = 0;
 1908              		.loc 1 501 0
 1909 00a0 0022     		mov	r2, #0
 1910 00a2 064B     		ldr	r3, .L85+12
 1911 00a4 1A70     		strb	r2, [r3]
ARM GAS  C:\Users\EDTRIC~1\AppData\Local\Temp\ccbcYoXT.s 			page 44


 1912              	.L81:
 502:.\herkulex2.c **** }
 1913              		.loc 1 502 0
 1914              		@ sp needed
 1915 00a6 0CBC     		pop	{r2, r3}
 1916 00a8 9046     		mov	r8, r2
 1917 00aa 9946     		mov	r9, r3
 1918 00ac F8BD     		pop	{r3, r4, r5, r6, r7, pc}
 1919              	.L86:
 1920 00ae C046     		.align	3
 1921              	.L85:
 1922 00b0 66666666 		.word	1717986918
 1923 00b4 66662640 		.word	1076258406
 1924 00b8 280B0000 		.word	2856
 1925 00bc 00000000 		.word	conta
 1926 00c0 00000000 		.word	pSize
 1927 00c4 00000000 		.word	cmd
 1928 00c8 00000000 		.word	playTime
 1929 00cc 00000000 		.word	pID
 1930 00d0 00000000 		.word	moveData
 1931 00d4 00000000 		.word	ck1
 1932 00d8 00000000 		.word	ck2
 1933 00dc 00000000 		.word	dataEx
 1934              		.cfi_endproc
 1935              	.LFE52:
 1936              		.size	Servo_actionAll, .-Servo_actionAll
 1937              		.section	.text.Servo_getPosition,"ax",%progbits
 1938              		.align	2
 1939              		.global	Servo_getPosition
 1940              		.code	16
 1941              		.thumb_func
 1942              		.type	Servo_getPosition, %function
 1943              	Servo_getPosition:
 1944              	.LFB53:
 503:.\herkulex2.c **** 
 504:.\herkulex2.c **** int Servo_getPosition ( uint8 servoID )
 505:.\herkulex2.c **** {
 1945              		.loc 1 505 0
 1946              		.cfi_startproc
 1947              	.LVL162:
 1948 0000 F8B5     		push	{r3, r4, r5, r6, r7, lr}
 1949              		.cfi_def_cfa_offset 24
 1950              		.cfi_offset 3, -24
 1951              		.cfi_offset 4, -20
 1952              		.cfi_offset 5, -16
 1953              		.cfi_offset 6, -12
 1954              		.cfi_offset 7, -8
 1955              		.cfi_offset 14, -4
 1956 0002 5F46     		mov	r7, fp
 1957 0004 5646     		mov	r6, r10
 1958 0006 4D46     		mov	r5, r9
 1959 0008 4446     		mov	r4, r8
 1960 000a F0B4     		push	{r4, r5, r6, r7}
 1961              		.cfi_def_cfa_offset 40
 1962              		.cfi_offset 8, -40
 1963              		.cfi_offset 9, -36
 1964              		.cfi_offset 10, -32
ARM GAS  C:\Users\EDTRIC~1\AppData\Local\Temp\ccbcYoXT.s 			page 45


 1965              		.cfi_offset 11, -28
 1966              	.LVL163:
 506:.\herkulex2.c ****     int position = 0;
 507:.\herkulex2.c ****     
 508:.\herkulex2.c ****     pSize = 0x09;
 1967              		.loc 1 508 0
 1968 000c 394A     		ldr	r2, .L91
 1969 000e 9046     		mov	r8, r2
 1970 0010 0923     		mov	r3, #9
 1971 0012 1370     		strb	r3, [r2]
 509:.\herkulex2.c ****     pID = servoID;
 1972              		.loc 1 509 0
 1973 0014 384F     		ldr	r7, .L91+4
 1974 0016 3870     		strb	r0, [r7]
 510:.\herkulex2.c ****     cmd = RAM_READ;
 1975              		.loc 1 510 0
 1976 0018 384E     		ldr	r6, .L91+8
 1977 001a 0423     		mov	r3, #4
 1978 001c 3370     		strb	r3, [r6]
 511:.\herkulex2.c ****     data[0] = 0x3A;
 1979              		.loc 1 511 0
 1980 001e 384C     		ldr	r4, .L91+12
 1981 0020 3A23     		mov	r3, #58
 1982 0022 2370     		strb	r3, [r4]
 512:.\herkulex2.c ****     data[1] = 0x02;
 1983              		.loc 1 512 0
 1984 0024 0223     		mov	r3, #2
 1985 0026 6370     		strb	r3, [r4, #1]
 513:.\herkulex2.c ****     lengthString = 2;
 1986              		.loc 1 513 0
 1987 0028 364A     		ldr	r2, .L91+16
 1988 002a 9346     		mov	fp, r2
 1989 002c 1370     		strb	r3, [r2]
 514:.\herkulex2.c ****     
 515:.\herkulex2.c ****     ck1 = checksum1( data , lengthString );
 1990              		.loc 1 515 0
 1991 002e 201C     		mov	r0, r4
 1992              	.LVL164:
 1993 0030 0221     		mov	r1, #2
 1994 0032 FFF7FEFF 		bl	checksum1
 1995              	.LVL165:
 1996 0036 8146     		mov	r9, r0
 1997 0038 334B     		ldr	r3, .L91+20
 1998 003a 9A46     		mov	r10, r3
 1999 003c 5246     		mov	r2, r10
 2000 003e 1070     		strb	r0, [r2]
 516:.\herkulex2.c ****     ck2 = checksum2( ck1 );
 2001              		.loc 1 516 0
 2002 0040 FFF7FEFF 		bl	checksum2
 2003              	.LVL166:
 2004 0044 314A     		ldr	r2, .L91+24
 2005 0046 1070     		strb	r0, [r2]
 517:.\herkulex2.c ****     
 518:.\herkulex2.c ****     dataEx[0] = HEADER;
 2006              		.loc 1 518 0
 2007 0048 314D     		ldr	r5, .L91+28
 2008 004a FF23     		mov	r3, #255
ARM GAS  C:\Users\EDTRIC~1\AppData\Local\Temp\ccbcYoXT.s 			page 46


 2009 004c 2B70     		strb	r3, [r5]
 519:.\herkulex2.c ****     dataEx[1] = HEADER;
 2010              		.loc 1 519 0
 2011 004e 6B70     		strb	r3, [r5, #1]
 520:.\herkulex2.c ****     dataEx[2] = pSize;
 2012              		.loc 1 520 0
 2013 0050 4346     		mov	r3, r8
 2014 0052 1978     		ldrb	r1, [r3]
 2015 0054 A970     		strb	r1, [r5, #2]
 521:.\herkulex2.c ****     dataEx[3] = pID;
 2016              		.loc 1 521 0
 2017 0056 3B78     		ldrb	r3, [r7]
 2018 0058 EB70     		strb	r3, [r5, #3]
 522:.\herkulex2.c ****     dataEx[4] = cmd;
 2019              		.loc 1 522 0
 2020 005a 3378     		ldrb	r3, [r6]
 2021 005c 2B71     		strb	r3, [r5, #4]
 523:.\herkulex2.c ****     dataEx[5] = ck1;
 2022              		.loc 1 523 0
 2023 005e 4A46     		mov	r2, r9
 2024 0060 6A71     		strb	r2, [r5, #5]
 524:.\herkulex2.c ****     dataEx[6] = ck2;
 2025              		.loc 1 524 0
 2026 0062 A871     		strb	r0, [r5, #6]
 525:.\herkulex2.c ****     dataEx[7] = data[0];
 2027              		.loc 1 525 0
 2028 0064 2378     		ldrb	r3, [r4]
 2029 0066 EB71     		strb	r3, [r5, #7]
 526:.\herkulex2.c ****     dataEx[8] = data[1];
 2030              		.loc 1 526 0
 2031 0068 6378     		ldrb	r3, [r4, #1]
 2032 006a 2B72     		strb	r3, [r5, #8]
 527:.\herkulex2.c ****     
 528:.\herkulex2.c ****     sendData( dataEx , pSize );
 2033              		.loc 1 528 0
 2034 006c 281C     		mov	r0, r5
 2035 006e FFF7FEFF 		bl	sendData
 2036              	.LVL167:
 529:.\herkulex2.c ****     CyDelay(5);
 2037              		.loc 1 529 0
 2038 0072 0520     		mov	r0, #5
 2039 0074 FFF7FEFF 		bl	CyDelay
 2040              	.LVL168:
 530:.\herkulex2.c ****     readData(13);
 2041              		.loc 1 530 0
 2042 0078 0D20     		mov	r0, #13
 2043 007a FFF7FEFF 		bl	readData
 2044              	.LVL169:
 531:.\herkulex2.c ****     
 532:.\herkulex2.c ****     pSize = dataEx[2];
 2045              		.loc 1 532 0
 2046 007e AB78     		ldrb	r3, [r5, #2]
 2047 0080 4246     		mov	r2, r8
 2048 0082 1370     		strb	r3, [r2]
 533:.\herkulex2.c ****     pID = dataEx[3];
 2049              		.loc 1 533 0
 2050 0084 EB78     		ldrb	r3, [r5, #3]
ARM GAS  C:\Users\EDTRIC~1\AppData\Local\Temp\ccbcYoXT.s 			page 47


 2051 0086 3B70     		strb	r3, [r7]
 534:.\herkulex2.c ****     cmd = dataEx[4];
 2052              		.loc 1 534 0
 2053 0088 2B79     		ldrb	r3, [r5, #4]
 2054 008a 3370     		strb	r3, [r6]
 535:.\herkulex2.c ****     data[0] = data[7];
 2055              		.loc 1 535 0
 2056 008c E379     		ldrb	r3, [r4, #7]
 2057 008e 2370     		strb	r3, [r4]
 536:.\herkulex2.c ****     data[1] = data[8];
 2058              		.loc 1 536 0
 2059 0090 237A     		ldrb	r3, [r4, #8]
 2060 0092 6370     		strb	r3, [r4, #1]
 537:.\herkulex2.c ****     data[2] = data[9];
 2061              		.loc 1 537 0
 2062 0094 637A     		ldrb	r3, [r4, #9]
 2063 0096 A370     		strb	r3, [r4, #2]
 538:.\herkulex2.c ****     data[3] = data[10];
 2064              		.loc 1 538 0
 2065 0098 A37A     		ldrb	r3, [r4, #10]
 2066 009a E370     		strb	r3, [r4, #3]
 539:.\herkulex2.c ****     data[4] = data[11];
 2067              		.loc 1 539 0
 2068 009c E37A     		ldrb	r3, [r4, #11]
 2069 009e 2371     		strb	r3, [r4, #4]
 540:.\herkulex2.c ****     data[5] = data[12];
 2070              		.loc 1 540 0
 2071 00a0 237B     		ldrb	r3, [r4, #12]
 2072 00a2 6371     		strb	r3, [r4, #5]
 541:.\herkulex2.c ****     lengthString = 6;
 2073              		.loc 1 541 0
 2074 00a4 0623     		mov	r3, #6
 2075 00a6 5A46     		mov	r2, fp
 2076 00a8 1370     		strb	r3, [r2]
 542:.\herkulex2.c ****     
 543:.\herkulex2.c ****     ck1 = checksum1( data , lengthString );
 2077              		.loc 1 543 0
 2078 00aa 201C     		mov	r0, r4
 2079 00ac 0621     		mov	r1, #6
 2080 00ae FFF7FEFF 		bl	checksum1
 2081              	.LVL170:
 2082 00b2 041C     		mov	r4, r0
 2083 00b4 5346     		mov	r3, r10
 2084 00b6 1870     		strb	r0, [r3]
 544:.\herkulex2.c ****     ck2 = checksum2( ck1 );
 2085              		.loc 1 544 0
 2086 00b8 FFF7FEFF 		bl	checksum2
 2087              	.LVL171:
 2088 00bc 134B     		ldr	r3, .L91+24
 2089 00be 1870     		strb	r0, [r3]
 545:.\herkulex2.c ****     
 546:.\herkulex2.c ****     if( ck1 != dataEx[5] ) return -1;
 2090              		.loc 1 546 0
 2091 00c0 6B79     		ldrb	r3, [r5, #5]
 2092 00c2 9C42     		cmp	r4, r3
 2093 00c4 0BD1     		bne	.L89
 547:.\herkulex2.c ****     if( ck2 != dataEx[6] ) return -1;
ARM GAS  C:\Users\EDTRIC~1\AppData\Local\Temp\ccbcYoXT.s 			page 48


 2094              		.loc 1 547 0
 2095 00c6 124B     		ldr	r3, .L91+28
 2096 00c8 9B79     		ldrb	r3, [r3, #6]
 2097 00ca 9842     		cmp	r0, r3
 2098 00cc 0AD1     		bne	.L90
 548:.\herkulex2.c ****     
 549:.\herkulex2.c ****     position = ( (dataEx[10] & 0x03) << 8 ) | dataEx[9];
 2099              		.loc 1 549 0
 2100 00ce 104B     		ldr	r3, .L91+28
 2101 00d0 9A7A     		ldrb	r2, [r3, #10]
 2102 00d2 0320     		mov	r0, #3
 2103 00d4 1040     		and	r0, r2
 2104 00d6 0002     		lsl	r0, r0, #8
 2105 00d8 5B7A     		ldrb	r3, [r3, #9]
 2106 00da 1843     		orr	r0, r3
 2107              	.LVL172:
 550:.\herkulex2.c ****     return position;
 2108              		.loc 1 550 0
 2109 00dc 04E0     		b	.L88
 2110              	.LVL173:
 2111              	.L89:
 546:.\herkulex2.c ****     if( ck1 != dataEx[5] ) return -1;
 2112              		.loc 1 546 0
 2113 00de 0120     		mov	r0, #1
 2114 00e0 4042     		neg	r0, r0
 2115 00e2 01E0     		b	.L88
 2116              	.L90:
 547:.\herkulex2.c ****     if( ck2 != dataEx[6] ) return -1;
 2117              		.loc 1 547 0
 2118 00e4 0120     		mov	r0, #1
 2119 00e6 4042     		neg	r0, r0
 2120              	.LVL174:
 2121              	.L88:
 551:.\herkulex2.c **** }
 2122              		.loc 1 551 0
 2123              		@ sp needed
 2124 00e8 3CBC     		pop	{r2, r3, r4, r5}
 2125 00ea 9046     		mov	r8, r2
 2126 00ec 9946     		mov	r9, r3
 2127 00ee A246     		mov	r10, r4
 2128 00f0 AB46     		mov	fp, r5
 2129 00f2 F8BD     		pop	{r3, r4, r5, r6, r7, pc}
 2130              	.L92:
 2131              		.align	2
 2132              	.L91:
 2133 00f4 00000000 		.word	pSize
 2134 00f8 00000000 		.word	pID
 2135 00fc 00000000 		.word	cmd
 2136 0100 00000000 		.word	data
 2137 0104 00000000 		.word	lengthString
 2138 0108 00000000 		.word	ck1
 2139 010c 00000000 		.word	ck2
 2140 0110 00000000 		.word	dataEx
 2141              		.cfi_endproc
 2142              	.LFE53:
 2143              		.size	Servo_getPosition, .-Servo_getPosition
 2144              		.global	__aeabi_i2d
ARM GAS  C:\Users\EDTRIC~1\AppData\Local\Temp\ccbcYoXT.s 			page 49


 2145              		.global	__aeabi_dmul
 2146              		.global	__aeabi_d2f
 2147              		.section	.text.Servo_getAngle,"ax",%progbits
 2148              		.align	2
 2149              		.global	Servo_getAngle
 2150              		.code	16
 2151              		.thumb_func
 2152              		.type	Servo_getAngle, %function
 2153              	Servo_getAngle:
 2154              	.LFB54:
 552:.\herkulex2.c **** 
 553:.\herkulex2.c **** float Servo_getAngle ( uint8 servoID )
 554:.\herkulex2.c **** {
 2155              		.loc 1 554 0
 2156              		.cfi_startproc
 2157              	.LVL175:
 2158 0000 08B5     		push	{r3, lr}
 2159              		.cfi_def_cfa_offset 8
 2160              		.cfi_offset 3, -8
 2161              		.cfi_offset 14, -4
 555:.\herkulex2.c ****     int pos = (int)Servo_getPosition(servoID);
 2162              		.loc 1 555 0
 2163 0002 FFF7FEFF 		bl	Servo_getPosition
 2164              	.LVL176:
 556:.\herkulex2.c ****     return ( pos - 512 ) * 0.325;
 2165              		.loc 1 556 0
 2166 0006 084B     		ldr	r3, .L94+8
 2167 0008 C018     		add	r0, r0, r3
 2168              	.LVL177:
 2169 000a FFF7FEFF 		bl	__aeabi_i2d
 2170              	.LVL178:
 2171 000e 054B     		ldr	r3, .L94+4
 2172 0010 034A     		ldr	r2, .L94
 2173 0012 FFF7FEFF 		bl	__aeabi_dmul
 2174              	.LVL179:
 2175 0016 FFF7FEFF 		bl	__aeabi_d2f
 2176              	.LVL180:
 557:.\herkulex2.c **** }
 2177              		.loc 1 557 0
 2178              		@ sp needed
 2179 001a 08BD     		pop	{r3, pc}
 2180              	.L95:
 2181 001c C046C046 		.align	3
 2182              	.L94:
 2183 0020 CDCCCCCC 		.word	-858993459
 2184 0024 CCCCD43F 		.word	1070910668
 2185 0028 00FEFFFF 		.word	-512
 2186              		.cfi_endproc
 2187              	.LFE54:
 2188              		.size	Servo_getAngle, .-Servo_getAngle
 2189 002c C046C046 		.section	.text.Servo_getSpeed,"ax",%progbits
 2190              		.align	2
 2191              		.global	Servo_getSpeed
 2192              		.code	16
 2193              		.thumb_func
 2194              		.type	Servo_getSpeed, %function
 2195              	Servo_getSpeed:
ARM GAS  C:\Users\EDTRIC~1\AppData\Local\Temp\ccbcYoXT.s 			page 50


 2196              	.LFB55:
 558:.\herkulex2.c **** 
 559:.\herkulex2.c **** int Servo_getSpeed ( uint8 servoID )
 560:.\herkulex2.c **** {
 2197              		.loc 1 560 0
 2198              		.cfi_startproc
 2199              	.LVL181:
 2200 0000 F8B5     		push	{r3, r4, r5, r6, r7, lr}
 2201              		.cfi_def_cfa_offset 24
 2202              		.cfi_offset 3, -24
 2203              		.cfi_offset 4, -20
 2204              		.cfi_offset 5, -16
 2205              		.cfi_offset 6, -12
 2206              		.cfi_offset 7, -8
 2207              		.cfi_offset 14, -4
 2208 0002 5F46     		mov	r7, fp
 2209 0004 5646     		mov	r6, r10
 2210 0006 4D46     		mov	r5, r9
 2211 0008 4446     		mov	r4, r8
 2212 000a F0B4     		push	{r4, r5, r6, r7}
 2213              		.cfi_def_cfa_offset 40
 2214              		.cfi_offset 8, -40
 2215              		.cfi_offset 9, -36
 2216              		.cfi_offset 10, -32
 2217              		.cfi_offset 11, -28
 2218              	.LVL182:
 561:.\herkulex2.c ****     int speed = 0;
 562:.\herkulex2.c ****     
 563:.\herkulex2.c ****     pSize = 0x09;
 2219              		.loc 1 563 0
 2220 000c 384A     		ldr	r2, .L100
 2221 000e 9046     		mov	r8, r2
 2222 0010 0923     		mov	r3, #9
 2223 0012 1370     		strb	r3, [r2]
 564:.\herkulex2.c ****     pID = servoID;
 2224              		.loc 1 564 0
 2225 0014 374F     		ldr	r7, .L100+4
 2226 0016 3870     		strb	r0, [r7]
 565:.\herkulex2.c ****     cmd = RAM_READ;
 2227              		.loc 1 565 0
 2228 0018 374E     		ldr	r6, .L100+8
 2229 001a 0423     		mov	r3, #4
 2230 001c 3370     		strb	r3, [r6]
 566:.\herkulex2.c ****     data[0] = 0x40;
 2231              		.loc 1 566 0
 2232 001e 374C     		ldr	r4, .L100+12
 2233 0020 4023     		mov	r3, #64
 2234 0022 2370     		strb	r3, [r4]
 567:.\herkulex2.c ****     data[1] = 0x02;
 2235              		.loc 1 567 0
 2236 0024 0223     		mov	r3, #2
 2237 0026 6370     		strb	r3, [r4, #1]
 568:.\herkulex2.c ****     lengthString = 2;
 2238              		.loc 1 568 0
 2239 0028 354A     		ldr	r2, .L100+16
 2240 002a 9346     		mov	fp, r2
 2241 002c 1370     		strb	r3, [r2]
ARM GAS  C:\Users\EDTRIC~1\AppData\Local\Temp\ccbcYoXT.s 			page 51


 569:.\herkulex2.c ****     
 570:.\herkulex2.c ****     ck1 = checksum1( data , lengthString );
 2242              		.loc 1 570 0
 2243 002e 201C     		mov	r0, r4
 2244              	.LVL183:
 2245 0030 0221     		mov	r1, #2
 2246 0032 FFF7FEFF 		bl	checksum1
 2247              	.LVL184:
 2248 0036 8146     		mov	r9, r0
 2249 0038 324B     		ldr	r3, .L100+20
 2250 003a 9A46     		mov	r10, r3
 2251 003c 5246     		mov	r2, r10
 2252 003e 1070     		strb	r0, [r2]
 571:.\herkulex2.c ****     ck2 = checksum2( ck1 );
 2253              		.loc 1 571 0
 2254 0040 FFF7FEFF 		bl	checksum2
 2255              	.LVL185:
 2256 0044 304A     		ldr	r2, .L100+24
 2257 0046 1070     		strb	r0, [r2]
 572:.\herkulex2.c ****     
 573:.\herkulex2.c ****     dataEx[0] = HEADER;
 2258              		.loc 1 573 0
 2259 0048 304D     		ldr	r5, .L100+28
 2260 004a FF23     		mov	r3, #255
 2261 004c 2B70     		strb	r3, [r5]
 574:.\herkulex2.c ****     dataEx[1] = HEADER;
 2262              		.loc 1 574 0
 2263 004e 6B70     		strb	r3, [r5, #1]
 575:.\herkulex2.c ****     dataEx[2] = pSize;
 2264              		.loc 1 575 0
 2265 0050 4346     		mov	r3, r8
 2266 0052 1978     		ldrb	r1, [r3]
 2267 0054 A970     		strb	r1, [r5, #2]
 576:.\herkulex2.c ****     dataEx[3] = pID;
 2268              		.loc 1 576 0
 2269 0056 3B78     		ldrb	r3, [r7]
 2270 0058 EB70     		strb	r3, [r5, #3]
 577:.\herkulex2.c ****     dataEx[4] = cmd;
 2271              		.loc 1 577 0
 2272 005a 3378     		ldrb	r3, [r6]
 2273 005c 2B71     		strb	r3, [r5, #4]
 578:.\herkulex2.c ****     dataEx[5] = ck1;
 2274              		.loc 1 578 0
 2275 005e 4A46     		mov	r2, r9
 2276 0060 6A71     		strb	r2, [r5, #5]
 579:.\herkulex2.c ****     dataEx[6] = ck2;
 2277              		.loc 1 579 0
 2278 0062 A871     		strb	r0, [r5, #6]
 580:.\herkulex2.c ****     dataEx[7] = data[0];
 2279              		.loc 1 580 0
 2280 0064 2378     		ldrb	r3, [r4]
 2281 0066 EB71     		strb	r3, [r5, #7]
 581:.\herkulex2.c ****     dataEx[8] = data[1];
 2282              		.loc 1 581 0
 2283 0068 6378     		ldrb	r3, [r4, #1]
 2284 006a 2B72     		strb	r3, [r5, #8]
 582:.\herkulex2.c ****     
ARM GAS  C:\Users\EDTRIC~1\AppData\Local\Temp\ccbcYoXT.s 			page 52


 583:.\herkulex2.c ****     sendData( dataEx , pSize );
 2285              		.loc 1 583 0
 2286 006c 281C     		mov	r0, r5
 2287 006e FFF7FEFF 		bl	sendData
 2288              	.LVL186:
 584:.\herkulex2.c ****     CyDelay(5);
 2289              		.loc 1 584 0
 2290 0072 0520     		mov	r0, #5
 2291 0074 FFF7FEFF 		bl	CyDelay
 2292              	.LVL187:
 585:.\herkulex2.c ****     readData(13);
 2293              		.loc 1 585 0
 2294 0078 0D20     		mov	r0, #13
 2295 007a FFF7FEFF 		bl	readData
 2296              	.LVL188:
 586:.\herkulex2.c ****     
 587:.\herkulex2.c ****     pSize = dataEx[2];
 2297              		.loc 1 587 0
 2298 007e AB78     		ldrb	r3, [r5, #2]
 2299 0080 4246     		mov	r2, r8
 2300 0082 1370     		strb	r3, [r2]
 588:.\herkulex2.c ****     pID = dataEx[3];
 2301              		.loc 1 588 0
 2302 0084 EB78     		ldrb	r3, [r5, #3]
 2303 0086 3B70     		strb	r3, [r7]
 589:.\herkulex2.c ****     cmd = dataEx[4];
 2304              		.loc 1 589 0
 2305 0088 2B79     		ldrb	r3, [r5, #4]
 2306 008a 3370     		strb	r3, [r6]
 590:.\herkulex2.c ****     data[0] = data[7];
 2307              		.loc 1 590 0
 2308 008c E379     		ldrb	r3, [r4, #7]
 2309 008e 2370     		strb	r3, [r4]
 591:.\herkulex2.c ****     data[1] = data[8];
 2310              		.loc 1 591 0
 2311 0090 237A     		ldrb	r3, [r4, #8]
 2312 0092 6370     		strb	r3, [r4, #1]
 592:.\herkulex2.c ****     data[2] = data[9];
 2313              		.loc 1 592 0
 2314 0094 637A     		ldrb	r3, [r4, #9]
 2315 0096 A370     		strb	r3, [r4, #2]
 593:.\herkulex2.c ****     data[3] = data[10];
 2316              		.loc 1 593 0
 2317 0098 A37A     		ldrb	r3, [r4, #10]
 2318 009a E370     		strb	r3, [r4, #3]
 594:.\herkulex2.c ****     data[4] = data[11];
 2319              		.loc 1 594 0
 2320 009c E37A     		ldrb	r3, [r4, #11]
 2321 009e 2371     		strb	r3, [r4, #4]
 595:.\herkulex2.c ****     data[5] = data[12];
 2322              		.loc 1 595 0
 2323 00a0 237B     		ldrb	r3, [r4, #12]
 2324 00a2 6371     		strb	r3, [r4, #5]
 596:.\herkulex2.c ****     lengthString = 6;
 2325              		.loc 1 596 0
 2326 00a4 0623     		mov	r3, #6
 2327 00a6 5A46     		mov	r2, fp
ARM GAS  C:\Users\EDTRIC~1\AppData\Local\Temp\ccbcYoXT.s 			page 53


 2328 00a8 1370     		strb	r3, [r2]
 597:.\herkulex2.c ****     
 598:.\herkulex2.c ****     ck1 = checksum1( data , lengthString );
 2329              		.loc 1 598 0
 2330 00aa 201C     		mov	r0, r4
 2331 00ac 0621     		mov	r1, #6
 2332 00ae FFF7FEFF 		bl	checksum1
 2333              	.LVL189:
 2334 00b2 041C     		mov	r4, r0
 2335 00b4 5346     		mov	r3, r10
 2336 00b6 1870     		strb	r0, [r3]
 599:.\herkulex2.c ****     ck2 = checksum2( ck1 );
 2337              		.loc 1 599 0
 2338 00b8 FFF7FEFF 		bl	checksum2
 2339              	.LVL190:
 2340 00bc 124B     		ldr	r3, .L100+24
 2341 00be 1870     		strb	r0, [r3]
 600:.\herkulex2.c ****     
 601:.\herkulex2.c ****     if( ck1 != dataEx[5] ) return -1;
 2342              		.loc 1 601 0
 2343 00c0 6B79     		ldrb	r3, [r5, #5]
 2344 00c2 9C42     		cmp	r4, r3
 2345 00c4 09D1     		bne	.L98
 602:.\herkulex2.c ****     if( ck2 != dataEx[6] ) return -1;
 2346              		.loc 1 602 0
 2347 00c6 114B     		ldr	r3, .L100+28
 2348 00c8 9B79     		ldrb	r3, [r3, #6]
 2349 00ca 9842     		cmp	r0, r3
 2350 00cc 08D1     		bne	.L99
 603:.\herkulex2.c ****     
 604:.\herkulex2.c ****     speed = ( (dataEx[10] & 0xFF) << 8 ) | dataEx[9];
 2351              		.loc 1 604 0
 2352 00ce 0F4B     		ldr	r3, .L100+28
 2353 00d0 987A     		ldrb	r0, [r3, #10]
 2354 00d2 0002     		lsl	r0, r0, #8
 2355 00d4 5B7A     		ldrb	r3, [r3, #9]
 2356 00d6 1843     		orr	r0, r3
 2357              	.LVL191:
 605:.\herkulex2.c ****     return speed;
 2358              		.loc 1 605 0
 2359 00d8 04E0     		b	.L97
 2360              	.LVL192:
 2361              	.L98:
 601:.\herkulex2.c ****     if( ck1 != dataEx[5] ) return -1;
 2362              		.loc 1 601 0
 2363 00da 0120     		mov	r0, #1
 2364 00dc 4042     		neg	r0, r0
 2365 00de 01E0     		b	.L97
 2366              	.L99:
 602:.\herkulex2.c ****     if( ck2 != dataEx[6] ) return -1;
 2367              		.loc 1 602 0
 2368 00e0 0120     		mov	r0, #1
 2369 00e2 4042     		neg	r0, r0
 2370              	.LVL193:
 2371              	.L97:
 606:.\herkulex2.c **** }
 2372              		.loc 1 606 0
ARM GAS  C:\Users\EDTRIC~1\AppData\Local\Temp\ccbcYoXT.s 			page 54


 2373              		@ sp needed
 2374 00e4 3CBC     		pop	{r2, r3, r4, r5}
 2375 00e6 9046     		mov	r8, r2
 2376 00e8 9946     		mov	r9, r3
 2377 00ea A246     		mov	r10, r4
 2378 00ec AB46     		mov	fp, r5
 2379 00ee F8BD     		pop	{r3, r4, r5, r6, r7, pc}
 2380              	.L101:
 2381              		.align	2
 2382              	.L100:
 2383 00f0 00000000 		.word	pSize
 2384 00f4 00000000 		.word	pID
 2385 00f8 00000000 		.word	cmd
 2386 00fc 00000000 		.word	data
 2387 0100 00000000 		.word	lengthString
 2388 0104 00000000 		.word	ck1
 2389 0108 00000000 		.word	ck2
 2390 010c 00000000 		.word	dataEx
 2391              		.cfi_endproc
 2392              	.LFE55:
 2393              		.size	Servo_getSpeed, .-Servo_getSpeed
 2394              		.section	.text.Servo_reboot,"ax",%progbits
 2395              		.align	2
 2396              		.global	Servo_reboot
 2397              		.code	16
 2398              		.thumb_func
 2399              		.type	Servo_reboot, %function
 2400              	Servo_reboot:
 2401              	.LFB56:
 607:.\herkulex2.c **** 
 608:.\herkulex2.c **** void Servo_reboot( uint8 servoID )
 609:.\herkulex2.c **** {
 2402              		.loc 1 609 0
 2403              		.cfi_startproc
 2404              	.LVL194:
 2405 0000 70B5     		push	{r4, r5, r6, lr}
 2406              		.cfi_def_cfa_offset 16
 2407              		.cfi_offset 4, -16
 2408              		.cfi_offset 5, -12
 2409              		.cfi_offset 6, -8
 2410              		.cfi_offset 14, -4
 610:.\herkulex2.c ****     pSize = 0x07;
 2411              		.loc 1 610 0
 2412 0002 0725     		mov	r5, #7
 2413 0004 114B     		ldr	r3, .L103
 2414 0006 1D70     		strb	r5, [r3]
 611:.\herkulex2.c ****     pID = servoID;
 2415              		.loc 1 611 0
 2416 0008 114B     		ldr	r3, .L103+4
 2417 000a 1870     		strb	r0, [r3]
 612:.\herkulex2.c ****     cmd = REBOOT;
 2418              		.loc 1 612 0
 2419 000c 0924     		mov	r4, #9
 2420 000e 114B     		ldr	r3, .L103+8
 2421 0010 1C70     		strb	r4, [r3]
 613:.\herkulex2.c ****     
 614:.\herkulex2.c ****     ck1 = ( pSize ^ pID ^ cmd) & 0xFE;
ARM GAS  C:\Users\EDTRIC~1\AppData\Local\Temp\ccbcYoXT.s 			page 55


 2422              		.loc 1 614 0
 2423 0012 0722     		mov	r2, #7
 2424 0014 4240     		eor	r2, r0
 2425 0016 0923     		mov	r3, #9
 2426 0018 5A40     		eor	r2, r3
 2427 001a D2B2     		uxtb	r2, r2
 2428 001c 0123     		mov	r3, #1
 2429 001e 111C     		mov	r1, r2
 2430 0020 9943     		bic	r1, r3
 2431 0022 0D4E     		ldr	r6, .L103+12
 2432 0024 3170     		strb	r1, [r6]
 615:.\herkulex2.c ****     ck2 = ( ~( pSize ^ pID ^ cmd ) ) & 0xFE;
 2433              		.loc 1 615 0
 2434 0026 D243     		mvn	r2, r2
 2435 0028 9A43     		bic	r2, r3
 2436 002a D2B2     		uxtb	r2, r2
 2437 002c 0B4B     		ldr	r3, .L103+16
 2438 002e 1A70     		strb	r2, [r3]
 616:.\herkulex2.c ****     
 617:.\herkulex2.c ****     dataEx[0] = HEADER;
 2439              		.loc 1 617 0
 2440 0030 0B4B     		ldr	r3, .L103+20
 2441 0032 FF26     		mov	r6, #255
 2442 0034 1E70     		strb	r6, [r3]
 618:.\herkulex2.c ****     dataEx[1] = HEADER;
 2443              		.loc 1 618 0
 2444 0036 5E70     		strb	r6, [r3, #1]
 619:.\herkulex2.c ****     dataEx[2] = pSize;
 2445              		.loc 1 619 0
 2446 0038 9D70     		strb	r5, [r3, #2]
 620:.\herkulex2.c ****     dataEx[3] = pID;
 2447              		.loc 1 620 0
 2448 003a D870     		strb	r0, [r3, #3]
 621:.\herkulex2.c ****     dataEx[4] = cmd;
 2449              		.loc 1 621 0
 2450 003c 1C71     		strb	r4, [r3, #4]
 622:.\herkulex2.c ****     dataEx[5] = ck1;
 2451              		.loc 1 622 0
 2452 003e 5971     		strb	r1, [r3, #5]
 623:.\herkulex2.c ****     dataEx[6] = ck2;
 2453              		.loc 1 623 0
 2454 0040 9A71     		strb	r2, [r3, #6]
 624:.\herkulex2.c ****     
 625:.\herkulex2.c ****     sendData( dataEx , pSize );
 2455              		.loc 1 625 0
 2456 0042 181C     		mov	r0, r3
 2457              	.LVL195:
 2458 0044 0721     		mov	r1, #7
 2459 0046 FFF7FEFF 		bl	sendData
 2460              	.LVL196:
 626:.\herkulex2.c **** }
 2461              		.loc 1 626 0
 2462              		@ sp needed
 2463 004a 70BD     		pop	{r4, r5, r6, pc}
 2464              	.L104:
 2465              		.align	2
 2466              	.L103:
ARM GAS  C:\Users\EDTRIC~1\AppData\Local\Temp\ccbcYoXT.s 			page 56


 2467 004c 00000000 		.word	pSize
 2468 0050 00000000 		.word	pID
 2469 0054 00000000 		.word	cmd
 2470 0058 00000000 		.word	ck1
 2471 005c 00000000 		.word	ck2
 2472 0060 00000000 		.word	dataEx
 2473              		.cfi_endproc
 2474              	.LFE56:
 2475              		.size	Servo_reboot, .-Servo_reboot
 2476              		.section	.text.Servo_setLED,"ax",%progbits
 2477              		.align	2
 2478              		.global	Servo_setLED
 2479              		.code	16
 2480              		.thumb_func
 2481              		.type	Servo_setLED, %function
 2482              	Servo_setLED:
 2483              	.LFB57:
 627:.\herkulex2.c **** 
 628:.\herkulex2.c **** void Servo_setLED( uint8 servoID , uint8 LED_Value )
 629:.\herkulex2.c **** {
 2484              		.loc 1 629 0
 2485              		.cfi_startproc
 2486              	.LVL197:
 2487 0000 F0B5     		push	{r4, r5, r6, r7, lr}
 2488              		.cfi_def_cfa_offset 20
 2489              		.cfi_offset 4, -20
 2490              		.cfi_offset 5, -16
 2491              		.cfi_offset 6, -12
 2492              		.cfi_offset 7, -8
 2493              		.cfi_offset 14, -4
 2494 0002 4746     		mov	r7, r8
 2495 0004 80B4     		push	{r7}
 2496              		.cfi_def_cfa_offset 24
 2497              		.cfi_offset 8, -24
 630:.\herkulex2.c ****     pSize = 0x0A;
 2498              		.loc 1 630 0
 2499 0006 1A4A     		ldr	r2, .L106
 2500 0008 9046     		mov	r8, r2
 2501 000a 0A23     		mov	r3, #10
 2502 000c 1370     		strb	r3, [r2]
 631:.\herkulex2.c ****     pID = servoID;
 2503              		.loc 1 631 0
 2504 000e 194F     		ldr	r7, .L106+4
 2505 0010 3870     		strb	r0, [r7]
 632:.\herkulex2.c ****     cmd = RAM_WRITE;
 2506              		.loc 1 632 0
 2507 0012 194E     		ldr	r6, .L106+8
 2508 0014 0323     		mov	r3, #3
 2509 0016 3370     		strb	r3, [r6]
 633:.\herkulex2.c ****     data[0] = 0x35;
 2510              		.loc 1 633 0
 2511 0018 184C     		ldr	r4, .L106+12
 2512 001a 3522     		mov	r2, #53
 2513 001c 2270     		strb	r2, [r4]
 634:.\herkulex2.c ****     data[1] = 0x01;
 2514              		.loc 1 634 0
 2515 001e 0122     		mov	r2, #1
ARM GAS  C:\Users\EDTRIC~1\AppData\Local\Temp\ccbcYoXT.s 			page 57


 2516 0020 6270     		strb	r2, [r4, #1]
 635:.\herkulex2.c ****     data[2] = LED_Value;
 2517              		.loc 1 635 0
 2518 0022 A170     		strb	r1, [r4, #2]
 636:.\herkulex2.c ****     lengthString = 3;
 2519              		.loc 1 636 0
 2520 0024 164A     		ldr	r2, .L106+16
 2521 0026 1370     		strb	r3, [r2]
 637:.\herkulex2.c ****     
 638:.\herkulex2.c ****     ck1 = checksum1( data , lengthString );
 2522              		.loc 1 638 0
 2523 0028 201C     		mov	r0, r4
 2524              	.LVL198:
 2525 002a 0321     		mov	r1, #3
 2526              	.LVL199:
 2527 002c FFF7FEFF 		bl	checksum1
 2528              	.LVL200:
 2529 0030 051C     		mov	r5, r0
 2530 0032 144B     		ldr	r3, .L106+20
 2531 0034 1870     		strb	r0, [r3]
 639:.\herkulex2.c ****     ck2 = checksum2( ck1 );
 2532              		.loc 1 639 0
 2533 0036 FFF7FEFF 		bl	checksum2
 2534              	.LVL201:
 2535 003a 134B     		ldr	r3, .L106+24
 2536 003c 1870     		strb	r0, [r3]
 640:.\herkulex2.c ****     
 641:.\herkulex2.c ****     dataEx[0] = HEADER;
 2537              		.loc 1 641 0
 2538 003e 134B     		ldr	r3, .L106+28
 2539 0040 FF22     		mov	r2, #255
 2540 0042 1A70     		strb	r2, [r3]
 642:.\herkulex2.c ****     dataEx[1] = HEADER;
 2541              		.loc 1 642 0
 2542 0044 5A70     		strb	r2, [r3, #1]
 643:.\herkulex2.c ****     dataEx[2] = pSize;
 2543              		.loc 1 643 0
 2544 0046 4246     		mov	r2, r8
 2545 0048 1178     		ldrb	r1, [r2]
 2546 004a 9970     		strb	r1, [r3, #2]
 644:.\herkulex2.c ****     dataEx[3] = pID;
 2547              		.loc 1 644 0
 2548 004c 3A78     		ldrb	r2, [r7]
 2549 004e DA70     		strb	r2, [r3, #3]
 645:.\herkulex2.c ****     dataEx[4] = cmd;
 2550              		.loc 1 645 0
 2551 0050 3278     		ldrb	r2, [r6]
 2552 0052 1A71     		strb	r2, [r3, #4]
 646:.\herkulex2.c ****     dataEx[5] = ck1;
 2553              		.loc 1 646 0
 2554 0054 5D71     		strb	r5, [r3, #5]
 647:.\herkulex2.c ****     dataEx[6] = ck2;
 2555              		.loc 1 647 0
 2556 0056 9871     		strb	r0, [r3, #6]
 648:.\herkulex2.c ****     dataEx[7] = data[0];
 2557              		.loc 1 648 0
 2558 0058 2278     		ldrb	r2, [r4]
ARM GAS  C:\Users\EDTRIC~1\AppData\Local\Temp\ccbcYoXT.s 			page 58


 2559 005a DA71     		strb	r2, [r3, #7]
 649:.\herkulex2.c ****     dataEx[8] = data[1];
 2560              		.loc 1 649 0
 2561 005c 6278     		ldrb	r2, [r4, #1]
 2562 005e 1A72     		strb	r2, [r3, #8]
 650:.\herkulex2.c ****     dataEx[9] = data[2];
 2563              		.loc 1 650 0
 2564 0060 A278     		ldrb	r2, [r4, #2]
 2565 0062 5A72     		strb	r2, [r3, #9]
 651:.\herkulex2.c ****     
 652:.\herkulex2.c ****     sendData( dataEx , pSize );
 2566              		.loc 1 652 0
 2567 0064 181C     		mov	r0, r3
 2568 0066 FFF7FEFF 		bl	sendData
 2569              	.LVL202:
 653:.\herkulex2.c **** }
 2570              		.loc 1 653 0
 2571              		@ sp needed
 2572 006a 04BC     		pop	{r2}
 2573 006c 9046     		mov	r8, r2
 2574 006e F0BD     		pop	{r4, r5, r6, r7, pc}
 2575              	.L107:
 2576              		.align	2
 2577              	.L106:
 2578 0070 00000000 		.word	pSize
 2579 0074 00000000 		.word	pID
 2580 0078 00000000 		.word	cmd
 2581 007c 00000000 		.word	data
 2582 0080 00000000 		.word	lengthString
 2583 0084 00000000 		.word	ck1
 2584 0088 00000000 		.word	ck2
 2585 008c 00000000 		.word	dataEx
 2586              		.cfi_endproc
 2587              	.LFE57:
 2588              		.size	Servo_setLED, .-Servo_setLED
 2589              		.section	.text.Servo_moveOne,"ax",%progbits
 2590              		.align	2
 2591              		.global	Servo_moveOne
 2592              		.code	16
 2593              		.thumb_func
 2594              		.type	Servo_moveOne, %function
 2595              	Servo_moveOne:
 2596              	.LFB58:
 654:.\herkulex2.c **** 
 655:.\herkulex2.c **** void Servo_moveOne (uint8 servoID , int goal , int time , uint8 LED )
 656:.\herkulex2.c **** {
 2597              		.loc 1 656 0
 2598              		.cfi_startproc
 2599              	.LVL203:
 2600 0000 F8B5     		push	{r3, r4, r5, r6, r7, lr}
 2601              		.cfi_def_cfa_offset 24
 2602              		.cfi_offset 3, -24
 2603              		.cfi_offset 4, -20
 2604              		.cfi_offset 5, -16
 2605              		.cfi_offset 6, -12
 2606              		.cfi_offset 7, -8
 2607              		.cfi_offset 14, -4
ARM GAS  C:\Users\EDTRIC~1\AppData\Local\Temp\ccbcYoXT.s 			page 59


 2608 0002 5F46     		mov	r7, fp
 2609 0004 5646     		mov	r6, r10
 2610 0006 4D46     		mov	r5, r9
 2611 0008 4446     		mov	r4, r8
 2612 000a F0B4     		push	{r4, r5, r6, r7}
 2613              		.cfi_def_cfa_offset 40
 2614              		.cfi_offset 8, -40
 2615              		.cfi_offset 9, -36
 2616              		.cfi_offset 10, -32
 2617              		.cfi_offset 11, -28
 2618 000c 041C     		mov	r4, r0
 657:.\herkulex2.c ****     if( goal > 1023 || goal < 0 ) return;
 2619              		.loc 1 657 0
 2620 000e 3C4D     		ldr	r5, .L115+8
 2621 0010 A942     		cmp	r1, r5
 2622 0012 6BD8     		bhi	.L108
 658:.\herkulex2.c ****     if( time < 0 || time > 2856 ) return;
 2623              		.loc 1 658 0
 2624 0014 3B48     		ldr	r0, .L115+12
 2625              	.LVL204:
 2626 0016 8242     		cmp	r2, r0
 2627 0018 68D8     		bhi	.L108
 659:.\herkulex2.c ****     
 660:.\herkulex2.c ****     int posLSB = goal & 0X00FF;
 2628              		.loc 1 660 0
 2629 001a FF27     		mov	r7, #255
 2630 001c 0F40     		and	r7, r1
 2631 001e B846     		mov	r8, r7
 2632              	.LVL205:
 661:.\herkulex2.c ****     int posMSB = ( goal & 0xFF00 ) >> 8;
 2633              		.loc 1 661 0
 2634 0020 0E04     		lsl	r6, r1, #16
 2635 0022 360E     		lsr	r6, r6, #24
 2636              	.LVL206:
 662:.\herkulex2.c **** 
 663:.\herkulex2.c ****     int blue = 0;
 664:.\herkulex2.c ****     int green = 0;
 665:.\herkulex2.c ****     int red = 0;
 666:.\herkulex2.c ****     switch (LED) 
 2637              		.loc 1 666 0
 2638 0024 022B     		cmp	r3, #2
 2639 0026 07D0     		beq	.L111
 2640 0028 042B     		cmp	r3, #4
 2641 002a 09D0     		beq	.L112
 2642 002c 012B     		cmp	r3, #1
 2643 002e 0BD0     		beq	.L114
 665:.\herkulex2.c ****     int red = 0;
 2644              		.loc 1 665 0
 2645 0030 0023     		mov	r3, #0
 2646              	.LVL207:
 664:.\herkulex2.c ****     int green = 0;
 2647              		.loc 1 664 0
 2648 0032 0021     		mov	r1, #0
 2649              	.LVL208:
 663:.\herkulex2.c ****     int blue = 0;
 2650              		.loc 1 663 0
 2651 0034 0025     		mov	r5, #0
ARM GAS  C:\Users\EDTRIC~1\AppData\Local\Temp\ccbcYoXT.s 			page 60


 2652 0036 0AE0     		b	.L113
 2653              	.LVL209:
 2654              	.L111:
 665:.\herkulex2.c ****     int red = 0;
 2655              		.loc 1 665 0
 2656 0038 0023     		mov	r3, #0
 2657              	.LVL210:
 664:.\herkulex2.c ****     int green = 0;
 2658              		.loc 1 664 0
 2659 003a 0021     		mov	r1, #0
 2660              	.LVL211:
 667:.\herkulex2.c ****     {
 668:.\herkulex2.c ****         case 1:
 669:.\herkulex2.c ****             green = 1;
 670:.\herkulex2.c ****             break;
 671:.\herkulex2.c ****         case 2:
 672:.\herkulex2.c ****             blue = 1;
 2661              		.loc 1 672 0
 2662 003c 0125     		mov	r5, #1
 673:.\herkulex2.c ****             break;
 2663              		.loc 1 673 0
 2664 003e 06E0     		b	.L113
 2665              	.LVL212:
 2666              	.L112:
 674:.\herkulex2.c ****         case 4:
 675:.\herkulex2.c ****             red = 1;
 2667              		.loc 1 675 0
 2668 0040 0123     		mov	r3, #1
 2669              	.LVL213:
 664:.\herkulex2.c ****     int green = 0;
 2670              		.loc 1 664 0
 2671 0042 0021     		mov	r1, #0
 2672              	.LVL214:
 663:.\herkulex2.c ****     int blue = 0;
 2673              		.loc 1 663 0
 2674 0044 0025     		mov	r5, #0
 676:.\herkulex2.c ****             break;
 2675              		.loc 1 676 0
 2676 0046 02E0     		b	.L113
 2677              	.LVL215:
 2678              	.L114:
 665:.\herkulex2.c ****     int red = 0;
 2679              		.loc 1 665 0
 2680 0048 0023     		mov	r3, #0
 2681              	.LVL216:
 669:.\herkulex2.c ****             green = 1;
 2682              		.loc 1 669 0
 2683 004a 0121     		mov	r1, #1
 2684              	.LVL217:
 663:.\herkulex2.c ****     int blue = 0;
 2685              		.loc 1 663 0
 2686 004c 0025     		mov	r5, #0
 2687              	.LVL218:
 2688              	.L113:
 677:.\herkulex2.c ****     }
 678:.\herkulex2.c ****     
 679:.\herkulex2.c ****     int setValue = green * 4 + blue * 8 + red * 16;
ARM GAS  C:\Users\EDTRIC~1\AppData\Local\Temp\ccbcYoXT.s 			page 61


 2689              		.loc 1 679 0
 2690 004e 6D00     		lsl	r5, r5, #1
 2691              	.LVL219:
 2692 0050 6D18     		add	r5, r5, r1
 2693 0052 9B00     		lsl	r3, r3, #2
 2694              	.LVL220:
 2695 0054 ED18     		add	r5, r5, r3
 2696 0056 AD00     		lsl	r5, r5, #2
 2697              	.LVL221:
 680:.\herkulex2.c ****     
 681:.\herkulex2.c ****     playTime = (int)((float)time/11.2);
 2698              		.loc 1 681 0
 2699 0058 101C     		mov	r0, r2
 2700 005a FFF7FEFF 		bl	__aeabi_i2f
 2701              	.LVL222:
 2702 005e FFF7FEFF 		bl	__aeabi_f2d
 2703              	.LVL223:
 2704 0062 264B     		ldr	r3, .L115+4
 2705 0064 244A     		ldr	r2, .L115
 2706 0066 FFF7FEFF 		bl	__aeabi_ddiv
 2707              	.LVL224:
 2708 006a FFF7FEFF 		bl	__aeabi_d2iz
 2709              	.LVL225:
 2710 006e 264A     		ldr	r2, .L115+16
 2711 0070 9146     		mov	r9, r2
 2712 0072 1060     		str	r0, [r2]
 682:.\herkulex2.c ****     
 683:.\herkulex2.c ****     pSize = 0x0C;
 2713              		.loc 1 683 0
 2714 0074 254A     		ldr	r2, .L115+20
 2715 0076 9346     		mov	fp, r2
 2716 0078 0C23     		mov	r3, #12
 2717 007a 1370     		strb	r3, [r2]
 684:.\herkulex2.c ****     cmd = S_JOG;
 2718              		.loc 1 684 0
 2719 007c 244B     		ldr	r3, .L115+24
 2720 007e 9A46     		mov	r10, r3
 2721 0080 0623     		mov	r3, #6
 2722 0082 5246     		mov	r2, r10
 2723 0084 1370     		strb	r3, [r2]
 685:.\herkulex2.c ****     
 686:.\herkulex2.c ****     data[0] = posLSB;
 2724              		.loc 1 686 0
 2725 0086 234F     		ldr	r7, .L115+28
 2726              	.LVL226:
 2727 0088 4346     		mov	r3, r8
 2728 008a 3B70     		strb	r3, [r7]
 687:.\herkulex2.c ****     data[1] = posMSB;
 2729              		.loc 1 687 0
 2730 008c 7E70     		strb	r6, [r7, #1]
 688:.\herkulex2.c ****     data[2] = setValue;
 2731              		.loc 1 688 0
 2732 008e BD70     		strb	r5, [r7, #2]
 689:.\herkulex2.c ****     data[3] = servoID;
 2733              		.loc 1 689 0
 2734 0090 FC70     		strb	r4, [r7, #3]
 690:.\herkulex2.c ****     
ARM GAS  C:\Users\EDTRIC~1\AppData\Local\Temp\ccbcYoXT.s 			page 62


 691:.\herkulex2.c ****     pID = servoID ^ playTime;
 2735              		.loc 1 691 0
 2736 0092 214E     		ldr	r6, .L115+32
 2737              	.LVL227:
 2738 0094 6040     		eor	r0, r4
 2739 0096 3070     		strb	r0, [r6]
 692:.\herkulex2.c ****     lengthString = 4;
 2740              		.loc 1 692 0
 2741 0098 0422     		mov	r2, #4
 2742 009a 204B     		ldr	r3, .L115+36
 2743 009c 1A70     		strb	r2, [r3]
 693:.\herkulex2.c ****     
 694:.\herkulex2.c ****     ck1 = checksum1( data , lengthString );
 2744              		.loc 1 694 0
 2745 009e 381C     		mov	r0, r7
 2746 00a0 0421     		mov	r1, #4
 2747 00a2 FFF7FEFF 		bl	checksum1
 2748              	.LVL228:
 2749 00a6 051C     		mov	r5, r0
 2750              	.LVL229:
 2751 00a8 1D4B     		ldr	r3, .L115+40
 2752 00aa 1870     		strb	r0, [r3]
 695:.\herkulex2.c ****     ck2 = checksum2( ck1 );
 2753              		.loc 1 695 0
 2754 00ac FFF7FEFF 		bl	checksum2
 2755              	.LVL230:
 2756 00b0 1C4B     		ldr	r3, .L115+44
 2757 00b2 1870     		strb	r0, [r3]
 696:.\herkulex2.c ****     
 697:.\herkulex2.c ****     pID = servoID;
 2758              		.loc 1 697 0
 2759 00b4 3470     		strb	r4, [r6]
 698:.\herkulex2.c ****     
 699:.\herkulex2.c ****     dataEx[0] = HEADER;
 2760              		.loc 1 699 0
 2761 00b6 1C4B     		ldr	r3, .L115+48
 2762 00b8 FF22     		mov	r2, #255
 2763 00ba 1A70     		strb	r2, [r3]
 700:.\herkulex2.c ****     dataEx[1] = HEADER;
 2764              		.loc 1 700 0
 2765 00bc 5A70     		strb	r2, [r3, #1]
 701:.\herkulex2.c ****     dataEx[2] = pSize;
 2766              		.loc 1 701 0
 2767 00be 5A46     		mov	r2, fp
 2768 00c0 1178     		ldrb	r1, [r2]
 2769 00c2 9970     		strb	r1, [r3, #2]
 702:.\herkulex2.c ****     dataEx[3] = pID;
 2770              		.loc 1 702 0
 2771 00c4 DC70     		strb	r4, [r3, #3]
 703:.\herkulex2.c ****     dataEx[4] = cmd;
 2772              		.loc 1 703 0
 2773 00c6 5446     		mov	r4, r10
 2774 00c8 2278     		ldrb	r2, [r4]
 2775 00ca 1A71     		strb	r2, [r3, #4]
 704:.\herkulex2.c ****     dataEx[5] = ck1;
 2776              		.loc 1 704 0
 2777 00cc 5D71     		strb	r5, [r3, #5]
ARM GAS  C:\Users\EDTRIC~1\AppData\Local\Temp\ccbcYoXT.s 			page 63


 705:.\herkulex2.c ****     dataEx[6] = ck2;
 2778              		.loc 1 705 0
 2779 00ce 9871     		strb	r0, [r3, #6]
 706:.\herkulex2.c ****     dataEx[7] = playTime;
 2780              		.loc 1 706 0
 2781 00d0 4846     		mov	r0, r9
 2782 00d2 0268     		ldr	r2, [r0]
 2783 00d4 DA71     		strb	r2, [r3, #7]
 707:.\herkulex2.c ****     dataEx[8] = data[0];
 2784              		.loc 1 707 0
 2785 00d6 3A78     		ldrb	r2, [r7]
 2786 00d8 1A72     		strb	r2, [r3, #8]
 708:.\herkulex2.c ****     dataEx[9] = data[1];
 2787              		.loc 1 708 0
 2788 00da 7A78     		ldrb	r2, [r7, #1]
 2789 00dc 5A72     		strb	r2, [r3, #9]
 709:.\herkulex2.c ****     dataEx[10] = data[2];
 2790              		.loc 1 709 0
 2791 00de BA78     		ldrb	r2, [r7, #2]
 2792 00e0 9A72     		strb	r2, [r3, #10]
 710:.\herkulex2.c ****     dataEx[11] = data[3];
 2793              		.loc 1 710 0
 2794 00e2 FA78     		ldrb	r2, [r7, #3]
 2795 00e4 DA72     		strb	r2, [r3, #11]
 711:.\herkulex2.c ****     
 712:.\herkulex2.c ****     sendData( dataEx , pSize );
 2796              		.loc 1 712 0
 2797 00e6 181C     		mov	r0, r3
 2798 00e8 FFF7FEFF 		bl	sendData
 2799              	.LVL231:
 2800              	.L108:
 713:.\herkulex2.c **** }
 2801              		.loc 1 713 0
 2802              		@ sp needed
 2803 00ec 3CBC     		pop	{r2, r3, r4, r5}
 2804 00ee 9046     		mov	r8, r2
 2805 00f0 9946     		mov	r9, r3
 2806 00f2 A246     		mov	r10, r4
 2807 00f4 AB46     		mov	fp, r5
 2808 00f6 F8BD     		pop	{r3, r4, r5, r6, r7, pc}
 2809              	.L116:
 2810              		.align	3
 2811              	.L115:
 2812 00f8 66666666 		.word	1717986918
 2813 00fc 66662640 		.word	1076258406
 2814 0100 FF030000 		.word	1023
 2815 0104 280B0000 		.word	2856
 2816 0108 00000000 		.word	playTime
 2817 010c 00000000 		.word	pSize
 2818 0110 00000000 		.word	cmd
 2819 0114 00000000 		.word	data
 2820 0118 00000000 		.word	pID
 2821 011c 00000000 		.word	lengthString
 2822 0120 00000000 		.word	ck1
 2823 0124 00000000 		.word	ck2
 2824 0128 00000000 		.word	dataEx
 2825              		.cfi_endproc
ARM GAS  C:\Users\EDTRIC~1\AppData\Local\Temp\ccbcYoXT.s 			page 64


 2826              	.LFE58:
 2827              		.size	Servo_moveOne, .-Servo_moveOne
 2828 012c C046C046 		.section	.text.Servo_moveOneAngle,"ax",%progbits
 2829              		.align	2
 2830              		.global	Servo_moveOneAngle
 2831              		.code	16
 2832              		.thumb_func
 2833              		.type	Servo_moveOneAngle, %function
 2834              	Servo_moveOneAngle:
 2835              	.LFB59:
 714:.\herkulex2.c **** 
 715:.\herkulex2.c **** void Servo_moveOneAngle (uint8 servoID , float angle , int time , uint8 LED )
 716:.\herkulex2.c **** {
 2836              		.loc 1 716 0
 2837              		.cfi_startproc
 2838              	.LVL232:
 2839 0000 D8B5     		push	{r3, r4, r6, r7, lr}
 2840              		.cfi_def_cfa_offset 20
 2841              		.cfi_offset 3, -20
 2842              		.cfi_offset 4, -16
 2843              		.cfi_offset 6, -12
 2844              		.cfi_offset 7, -8
 2845              		.cfi_offset 14, -4
 2846 0002 4746     		mov	r7, r8
 2847 0004 80B4     		push	{r7}
 2848              		.cfi_def_cfa_offset 24
 2849              		.cfi_offset 8, -24
 2850 0006 8046     		mov	r8, r0
 2851 0008 0C1C     		add	r4, r1, #0
 2852 000a 171C     		mov	r7, r2
 2853 000c 1E1C     		mov	r6, r3
 717:.\herkulex2.c ****     if( angle > 160.0 || angle < -160.0 ) return;
 2854              		.loc 1 717 0
 2855 000e 081C     		add	r0, r1, #0
 2856              	.LVL233:
 2857 0010 1149     		ldr	r1, .L119+8
 2858              	.LVL234:
 2859 0012 FFF7FEFF 		bl	__aeabi_fcmpgt
 2860              	.LVL235:
 2861 0016 0028     		cmp	r0, #0
 2862 0018 16D1     		bne	.L117
 2863              		.loc 1 717 0 is_stmt 0 discriminator 2
 2864 001a 201C     		add	r0, r4, #0
 2865 001c 0F49     		ldr	r1, .L119+12
 2866 001e FFF7FEFF 		bl	__aeabi_fcmplt
 2867              	.LVL236:
 2868 0022 0028     		cmp	r0, #0
 2869 0024 10D1     		bne	.L117
 718:.\herkulex2.c ****     int position = (int)(angle/0.325) + 512;
 2870              		.loc 1 718 0 is_stmt 1
 2871 0026 201C     		add	r0, r4, #0
 2872 0028 FFF7FEFF 		bl	__aeabi_f2d
 2873              	.LVL237:
 2874 002c 094B     		ldr	r3, .L119+4
 2875 002e 084A     		ldr	r2, .L119
 2876 0030 FFF7FEFF 		bl	__aeabi_ddiv
 2877              	.LVL238:
ARM GAS  C:\Users\EDTRIC~1\AppData\Local\Temp\ccbcYoXT.s 			page 65


 2878 0034 FFF7FEFF 		bl	__aeabi_d2iz
 2879              	.LVL239:
 2880 0038 8023     		mov	r3, #128
 2881 003a 9B00     		lsl	r3, r3, #2
 2882 003c C118     		add	r1, r0, r3
 2883              	.LVL240:
 719:.\herkulex2.c ****     Servo_moveOne( servoID , position , time , LED );
 2884              		.loc 1 719 0
 2885 003e 4046     		mov	r0, r8
 2886 0040 3A1C     		mov	r2, r7
 2887 0042 331C     		mov	r3, r6
 2888 0044 FFF7FEFF 		bl	Servo_moveOne
 2889              	.LVL241:
 2890              	.L117:
 720:.\herkulex2.c **** }
 2891              		.loc 1 720 0
 2892              		@ sp needed
 2893              	.LVL242:
 2894              	.LVL243:
 2895 0048 04BC     		pop	{r2}
 2896 004a 9046     		mov	r8, r2
 2897 004c D8BD     		pop	{r3, r4, r6, r7, pc}
 2898              	.L120:
 2899 004e C046     		.align	3
 2900              	.L119:
 2901 0050 CDCCCCCC 		.word	-858993459
 2902 0054 CCCCD43F 		.word	1070910668
 2903 0058 00002043 		.word	1126170624
 2904 005c 000020C3 		.word	-1021313024
 2905              		.cfi_endproc
 2906              	.LFE59:
 2907              		.size	Servo_moveOneAngle, .-Servo_moveOneAngle
 2908              		.section	.text.Servo_initialize,"ax",%progbits
 2909              		.align	2
 2910              		.global	Servo_initialize
 2911              		.code	16
 2912              		.thumb_func
 2913              		.type	Servo_initialize, %function
 2914              	Servo_initialize:
 2915              	.LFB40:
 118:.\herkulex2.c **** {
 2916              		.loc 1 118 0
 2917              		.cfi_startproc
 2918 0000 08B5     		push	{r3, lr}
 2919              		.cfi_def_cfa_offset 8
 2920              		.cfi_offset 3, -8
 2921              		.cfi_offset 14, -4
 119:.\herkulex2.c ****     UART_Start();
 2922              		.loc 1 119 0
 2923 0002 FFF7FEFF 		bl	UART_Start
 2924              	.LVL244:
 120:.\herkulex2.c ****     conta = 0;
 2925              		.loc 1 120 0
 2926 0006 0023     		mov	r3, #0
 2927 0008 194A     		ldr	r2, .L122
 2928 000a 1370     		strb	r3, [r2]
 121:.\herkulex2.c ****     lengthString = 0;
ARM GAS  C:\Users\EDTRIC~1\AppData\Local\Temp\ccbcYoXT.s 			page 66


 2929              		.loc 1 121 0
 2930 000c 194A     		ldr	r2, .L122+4
 2931 000e 1370     		strb	r3, [r2]
 122:.\herkulex2.c ****     CyDelay(100);
 2932              		.loc 1 122 0
 2933 0010 6420     		mov	r0, #100
 2934 0012 FFF7FEFF 		bl	CyDelay
 2935              	.LVL245:
 123:.\herkulex2.c ****     Servo_clearError(PIDALL);
 2936              		.loc 1 123 0
 2937 0016 FE20     		mov	r0, #254
 2938 0018 FFF7FEFF 		bl	Servo_clearError
 2939              	.LVL246:
 124:.\herkulex2.c ****     CyDelay(10);
 2940              		.loc 1 124 0
 2941 001c 0A20     		mov	r0, #10
 2942 001e FFF7FEFF 		bl	CyDelay
 2943              	.LVL247:
 125:.\herkulex2.c ****     Servo_ACK(1);
 2944              		.loc 1 125 0
 2945 0022 0120     		mov	r0, #1
 2946 0024 FFF7FEFF 		bl	Servo_ACK
 2947              	.LVL248:
 126:.\herkulex2.c ****     CyDelay(10);
 2948              		.loc 1 126 0
 2949 0028 0A20     		mov	r0, #10
 2950 002a FFF7FEFF 		bl	CyDelay
 2951              	.LVL249:
 127:.\herkulex2.c ****     Servo_torqueON(PIDALL);
 2952              		.loc 1 127 0
 2953 002e FE20     		mov	r0, #254
 2954 0030 FFF7FEFF 		bl	Servo_torqueON
 2955              	.LVL250:
 128:.\herkulex2.c ****     CyDelay(10);
 2956              		.loc 1 128 0
 2957 0034 0A20     		mov	r0, #10
 2958 0036 FFF7FEFF 		bl	CyDelay
 2959              	.LVL251:
 130:.\herkulex2.c ****     Servo_moveOneAngle( PIDALL , 0 , 1000 , LED_RED );
 2960              		.loc 1 130 0
 2961 003a FE20     		mov	r0, #254
 2962 003c 0021     		mov	r1, #0
 2963 003e FA22     		mov	r2, #250
 2964 0040 9200     		lsl	r2, r2, #2
 2965 0042 0423     		mov	r3, #4
 2966 0044 FFF7FEFF 		bl	Servo_moveOneAngle
 2967              	.LVL252:
 131:.\herkulex2.c ****     CyDelay(1200);
 2968              		.loc 1 131 0
 2969 0048 9620     		mov	r0, #150
 2970 004a C000     		lsl	r0, r0, #3
 2971 004c FFF7FEFF 		bl	CyDelay
 2972              	.LVL253:
 132:.\herkulex2.c ****     Servo_setLED( PIDALL , LED_GREEN );
 2973              		.loc 1 132 0
 2974 0050 FE20     		mov	r0, #254
 2975 0052 0121     		mov	r1, #1
ARM GAS  C:\Users\EDTRIC~1\AppData\Local\Temp\ccbcYoXT.s 			page 67


 2976 0054 FFF7FEFF 		bl	Servo_setLED
 2977              	.LVL254:
 133:.\herkulex2.c ****     CyDelay(100);
 2978              		.loc 1 133 0
 2979 0058 6420     		mov	r0, #100
 2980 005a FFF7FEFF 		bl	CyDelay
 2981              	.LVL255:
 134:.\herkulex2.c ****     Servo_setLED( PIDALL , 0 );
 2982              		.loc 1 134 0
 2983 005e FE20     		mov	r0, #254
 2984 0060 0021     		mov	r1, #0
 2985 0062 FFF7FEFF 		bl	Servo_setLED
 2986              	.LVL256:
 135:.\herkulex2.c ****     CyDelay(500);
 2987              		.loc 1 135 0
 2988 0066 FA20     		mov	r0, #250
 2989 0068 4000     		lsl	r0, r0, #1
 2990 006a FFF7FEFF 		bl	CyDelay
 2991              	.LVL257:
 136:.\herkulex2.c **** }
 2992              		.loc 1 136 0
 2993              		@ sp needed
 2994 006e 08BD     		pop	{r3, pc}
 2995              	.L123:
 2996              		.align	2
 2997              	.L122:
 2998 0070 00000000 		.word	conta
 2999 0074 00000000 		.word	lengthString
 3000              		.cfi_endproc
 3001              	.LFE40:
 3002              		.size	Servo_initialize, .-Servo_initialize
 3003              		.section	.text.Servo_moveSpeedOne,"ax",%progbits
 3004              		.align	2
 3005              		.global	Servo_moveSpeedOne
 3006              		.code	16
 3007              		.thumb_func
 3008              		.type	Servo_moveSpeedOne, %function
 3009              	Servo_moveSpeedOne:
 3010              	.LFB60:
 721:.\herkulex2.c **** 
 722:.\herkulex2.c **** void Servo_moveSpeedOne ( uint8 servoID , int goal , int time , uint8 LED )
 723:.\herkulex2.c **** {
 3011              		.loc 1 723 0
 3012              		.cfi_startproc
 3013              	.LVL258:
 3014 0000 F8B5     		push	{r3, r4, r5, r6, r7, lr}
 3015              		.cfi_def_cfa_offset 24
 3016              		.cfi_offset 3, -24
 3017              		.cfi_offset 4, -20
 3018              		.cfi_offset 5, -16
 3019              		.cfi_offset 6, -12
 3020              		.cfi_offset 7, -8
 3021              		.cfi_offset 14, -4
 3022 0002 5F46     		mov	r7, fp
 3023 0004 5646     		mov	r6, r10
 3024 0006 4D46     		mov	r5, r9
 3025 0008 4446     		mov	r4, r8
ARM GAS  C:\Users\EDTRIC~1\AppData\Local\Temp\ccbcYoXT.s 			page 68


 3026 000a F0B4     		push	{r4, r5, r6, r7}
 3027              		.cfi_def_cfa_offset 40
 3028              		.cfi_offset 8, -40
 3029              		.cfi_offset 9, -36
 3030              		.cfi_offset 10, -32
 3031              		.cfi_offset 11, -28
 3032 000c 041C     		mov	r4, r0
 724:.\herkulex2.c ****     /*if ( goal > 1023 || goal < -1023 ) return;
 725:.\herkulex2.c ****     if ( time < 0 || time > 2856 ) return;
 726:.\herkulex2.c ****     
 727:.\herkulex2.c ****     int goalSpeedSign;
 728:.\herkulex2.c ****     if ( goal < 0 ) {
 729:.\herkulex2.c ****         goalSpeedSign = (-1) * goal;
 730:.\herkulex2.c ****         goalSpeedSign |= 0x4000;
 731:.\herkulex2.c ****     }
 732:.\herkulex2.c ****     else {
 733:.\herkulex2.c ****         goalSpeedSign = goal;
 734:.\herkulex2.c ****     }
 735:.\herkulex2.c ****     
 736:.\herkulex2.c ****     int speedGoalLSB = goalSpeedSign & 0X00FF;
 737:.\herkulex2.c ****     int speedGoalMSB = ( goalSpeedSign & 0xFF00 ) >> 8;
 738:.\herkulex2.c **** 
 739:.\herkulex2.c ****     int blue = 0;
 740:.\herkulex2.c ****     int green = 0;
 741:.\herkulex2.c ****     int red = 0;
 742:.\herkulex2.c ****     switch (LED) {
 743:.\herkulex2.c ****         
 744:.\herkulex2.c ****         case 1:
 745:.\herkulex2.c ****             green = 1;
 746:.\herkulex2.c ****             break;
 747:.\herkulex2.c ****         case 2:
 748:.\herkulex2.c ****             blue = 1;
 749:.\herkulex2.c ****             break;
 750:.\herkulex2.c ****         case 4:
 751:.\herkulex2.c ****             red = 1;
 752:.\herkulex2.c ****             break;
 753:.\herkulex2.c ****     }
 754:.\herkulex2.c ****     
 755:.\herkulex2.c ****     int setValue = 2 + green * 4 + blue * 8 + red * 16;
 756:.\herkulex2.c **** 
 757:.\herkulex2.c ****     playTime = (int)((float)time/11.2);
 758:.\herkulex2.c **** 
 759:.\herkulex2.c ****     pSize = 0x0C;
 760:.\herkulex2.c ****     cmd = S_JOG;
 761:.\herkulex2.c **** 
 762:.\herkulex2.c ****     data[0] = speedGoalLSB;
 763:.\herkulex2.c ****     data[1] = speedGoalMSB;
 764:.\herkulex2.c ****     data[2] = setValue;
 765:.\herkulex2.c ****     data[3] = servoID;
 766:.\herkulex2.c **** 
 767:.\herkulex2.c ****     pID = servoID ^ playTime;
 768:.\herkulex2.c **** 
 769:.\herkulex2.c ****     lengthString = 4;
 770:.\herkulex2.c **** 
 771:.\herkulex2.c ****     ck1 = checksum1 ( data , lengthString );
 772:.\herkulex2.c ****     ck2 = checksum2 ( ck1 );
 773:.\herkulex2.c **** 
ARM GAS  C:\Users\EDTRIC~1\AppData\Local\Temp\ccbcYoXT.s 			page 69


 774:.\herkulex2.c ****     pID = servoID;
 775:.\herkulex2.c **** 
 776:.\herkulex2.c ****     dataEx[0] = HEADER;
 777:.\herkulex2.c ****     dataEx[1] = HEADER;
 778:.\herkulex2.c ****     dataEx[2] = pSize;
 779:.\herkulex2.c ****     dataEx[3] = pID;
 780:.\herkulex2.c ****     dataEx[4] = cmd;
 781:.\herkulex2.c ****     dataEx[5] = ck1;
 782:.\herkulex2.c ****     dataEx[6] = ck2;
 783:.\herkulex2.c ****     dataEx[7] = playTime;
 784:.\herkulex2.c ****     dataEx[8] = data[0];
 785:.\herkulex2.c ****     dataEx[9] = data[1];
 786:.\herkulex2.c ****     dataEx[10] = data[2];
 787:.\herkulex2.c ****     dataEx[11] = data[3];
 788:.\herkulex2.c **** 
 789:.\herkulex2.c ****     sendData ( dataEx , pSize );*/
 790:.\herkulex2.c ****     if( goal > 1023 || goal < -1023 ) return;
 3033              		.loc 1 790 0
 3034 000e 4248     		ldr	r0, .L132+8
 3035              	.LVL259:
 3036 0010 0E18     		add	r6, r1, r0
 3037 0012 424D     		ldr	r5, .L132+12
 3038 0014 AE42     		cmp	r6, r5
 3039 0016 72D8     		bhi	.L124
 791:.\herkulex2.c ****     if( time < 0 || time > 2856 ) return;
 3040              		.loc 1 791 0
 3041 0018 4148     		ldr	r0, .L132+16
 3042 001a 8242     		cmp	r2, r0
 3043 001c 6FD8     		bhi	.L124
 792:.\herkulex2.c ****     
 793:.\herkulex2.c ****     int goalSpeedSign;
 794:.\herkulex2.c ****     if ( goal < 0 ) 
 3044              		.loc 1 794 0
 3045 001e 0029     		cmp	r1, #0
 3046 0020 03DA     		bge	.L126
 795:.\herkulex2.c ****     {
 796:.\herkulex2.c ****         goalSpeedSign = (-1) * goal;
 3047              		.loc 1 796 0
 3048 0022 4942     		neg	r1, r1
 3049              	.LVL260:
 797:.\herkulex2.c ****         goalSpeedSign |= 0x4000;
 3050              		.loc 1 797 0
 3051 0024 8026     		mov	r6, #128
 3052 0026 F601     		lsl	r6, r6, #7
 3053 0028 3143     		orr	r1, r6
 3054              	.LVL261:
 3055              	.L126:
 798:.\herkulex2.c ****     }
 799:.\herkulex2.c ****     else 
 800:.\herkulex2.c ****     {
 801:.\herkulex2.c ****         goalSpeedSign = goal;
 802:.\herkulex2.c ****     }
 803:.\herkulex2.c ****     
 804:.\herkulex2.c ****     int speedGoalLSB = goalSpeedSign & 0x00FF;
 3056              		.loc 1 804 0
 3057 002a FF27     		mov	r7, #255
 3058 002c 0F40     		and	r7, r1
ARM GAS  C:\Users\EDTRIC~1\AppData\Local\Temp\ccbcYoXT.s 			page 70


 3059 002e B846     		mov	r8, r7
 3060              	.LVL262:
 805:.\herkulex2.c ****     int speedGoalMSB = ( goalSpeedSign & 0xFF00 ) >> 8;
 3061              		.loc 1 805 0
 3062 0030 0E04     		lsl	r6, r1, #16
 3063 0032 360E     		lsr	r6, r6, #24
 3064              	.LVL263:
 806:.\herkulex2.c **** 
 807:.\herkulex2.c ****     int blue = 0;
 808:.\herkulex2.c ****     int green = 0;
 809:.\herkulex2.c ****     int red = 0;
 810:.\herkulex2.c ****     switch (LED) 
 3065              		.loc 1 810 0
 3066 0034 022B     		cmp	r3, #2
 3067 0036 07D0     		beq	.L128
 3068 0038 042B     		cmp	r3, #4
 3069 003a 09D0     		beq	.L129
 3070 003c 012B     		cmp	r3, #1
 3071 003e 0BD0     		beq	.L131
 809:.\herkulex2.c ****     int red = 0;
 3072              		.loc 1 809 0
 3073 0040 0023     		mov	r3, #0
 3074              	.LVL264:
 808:.\herkulex2.c ****     int green = 0;
 3075              		.loc 1 808 0
 3076 0042 0025     		mov	r5, #0
 807:.\herkulex2.c ****     int blue = 0;
 3077              		.loc 1 807 0
 3078 0044 0021     		mov	r1, #0
 3079              	.LVL265:
 3080 0046 0AE0     		b	.L130
 3081              	.LVL266:
 3082              	.L128:
 809:.\herkulex2.c ****     int red = 0;
 3083              		.loc 1 809 0
 3084 0048 0023     		mov	r3, #0
 3085              	.LVL267:
 808:.\herkulex2.c ****     int green = 0;
 3086              		.loc 1 808 0
 3087 004a 0025     		mov	r5, #0
 811:.\herkulex2.c ****     {
 812:.\herkulex2.c ****         case 1:
 813:.\herkulex2.c ****             green = 1;
 814:.\herkulex2.c ****             break;
 815:.\herkulex2.c ****         case 2:
 816:.\herkulex2.c ****             blue = 1;
 3088              		.loc 1 816 0
 3089 004c 0121     		mov	r1, #1
 3090              	.LVL268:
 817:.\herkulex2.c ****             break;
 3091              		.loc 1 817 0
 3092 004e 06E0     		b	.L130
 3093              	.LVL269:
 3094              	.L129:
 818:.\herkulex2.c ****         case 4:
 819:.\herkulex2.c ****             red = 1;
 3095              		.loc 1 819 0
ARM GAS  C:\Users\EDTRIC~1\AppData\Local\Temp\ccbcYoXT.s 			page 71


 3096 0050 0123     		mov	r3, #1
 3097              	.LVL270:
 808:.\herkulex2.c ****     int green = 0;
 3098              		.loc 1 808 0
 3099 0052 0025     		mov	r5, #0
 807:.\herkulex2.c ****     int blue = 0;
 3100              		.loc 1 807 0
 3101 0054 0021     		mov	r1, #0
 3102              	.LVL271:
 820:.\herkulex2.c ****             break;
 3103              		.loc 1 820 0
 3104 0056 02E0     		b	.L130
 3105              	.LVL272:
 3106              	.L131:
 809:.\herkulex2.c ****     int red = 0;
 3107              		.loc 1 809 0
 3108 0058 0023     		mov	r3, #0
 3109              	.LVL273:
 813:.\herkulex2.c ****             green = 1;
 3110              		.loc 1 813 0
 3111 005a 0125     		mov	r5, #1
 807:.\herkulex2.c ****     int blue = 0;
 3112              		.loc 1 807 0
 3113 005c 0021     		mov	r1, #0
 3114              	.LVL274:
 3115              	.L130:
 821:.\herkulex2.c ****     }
 822:.\herkulex2.c ****     
 823:.\herkulex2.c ****     int setValue = 2 + green * 4 + blue * 8 + red * 16;
 3116              		.loc 1 823 0
 3117 005e AD00     		lsl	r5, r5, #2
 3118              	.LVL275:
 3119 0060 0235     		add	r5, r5, #2
 3120 0062 C900     		lsl	r1, r1, #3
 3121              	.LVL276:
 3122 0064 6D18     		add	r5, r5, r1
 3123 0066 1B01     		lsl	r3, r3, #4
 3124              	.LVL277:
 3125 0068 ED18     		add	r5, r5, r3
 3126              	.LVL278:
 824:.\herkulex2.c ****     
 825:.\herkulex2.c ****     playTime = (int)((float)time/11.2);
 3127              		.loc 1 825 0
 3128 006a 101C     		mov	r0, r2
 3129 006c FFF7FEFF 		bl	__aeabi_i2f
 3130              	.LVL279:
 3131 0070 FFF7FEFF 		bl	__aeabi_f2d
 3132              	.LVL280:
 3133 0074 274B     		ldr	r3, .L132+4
 3134 0076 264A     		ldr	r2, .L132
 3135 0078 FFF7FEFF 		bl	__aeabi_ddiv
 3136              	.LVL281:
 3137 007c FFF7FEFF 		bl	__aeabi_d2iz
 3138              	.LVL282:
 3139 0080 284A     		ldr	r2, .L132+20
 3140 0082 9146     		mov	r9, r2
 3141 0084 1060     		str	r0, [r2]
ARM GAS  C:\Users\EDTRIC~1\AppData\Local\Temp\ccbcYoXT.s 			page 72


 826:.\herkulex2.c ****     
 827:.\herkulex2.c ****     pSize = 0x0C;
 3142              		.loc 1 827 0
 3143 0086 284A     		ldr	r2, .L132+24
 3144 0088 9346     		mov	fp, r2
 3145 008a 0C23     		mov	r3, #12
 3146 008c 1370     		strb	r3, [r2]
 828:.\herkulex2.c ****     cmd = S_JOG;
 3147              		.loc 1 828 0
 3148 008e 274B     		ldr	r3, .L132+28
 3149 0090 9A46     		mov	r10, r3
 3150 0092 0623     		mov	r3, #6
 3151 0094 5246     		mov	r2, r10
 3152 0096 1370     		strb	r3, [r2]
 829:.\herkulex2.c ****     
 830:.\herkulex2.c ****     data[0] = speedGoalLSB;
 3153              		.loc 1 830 0
 3154 0098 254F     		ldr	r7, .L132+32
 3155              	.LVL283:
 3156 009a 4346     		mov	r3, r8
 3157 009c 3B70     		strb	r3, [r7]
 831:.\herkulex2.c ****     data[1] = speedGoalMSB;
 3158              		.loc 1 831 0
 3159 009e 7E70     		strb	r6, [r7, #1]
 832:.\herkulex2.c ****     data[2] = setValue;
 3160              		.loc 1 832 0
 3161 00a0 BD70     		strb	r5, [r7, #2]
 833:.\herkulex2.c ****     data[3] = servoID;
 3162              		.loc 1 833 0
 3163 00a2 FC70     		strb	r4, [r7, #3]
 834:.\herkulex2.c ****     
 835:.\herkulex2.c ****     pID = servoID ^ playTime;
 3164              		.loc 1 835 0
 3165 00a4 234E     		ldr	r6, .L132+36
 3166              	.LVL284:
 3167 00a6 6040     		eor	r0, r4
 3168 00a8 3070     		strb	r0, [r6]
 836:.\herkulex2.c ****     lengthString = 4;
 3169              		.loc 1 836 0
 3170 00aa 0422     		mov	r2, #4
 3171 00ac 224B     		ldr	r3, .L132+40
 3172 00ae 1A70     		strb	r2, [r3]
 837:.\herkulex2.c ****     
 838:.\herkulex2.c ****     ck1 = checksum1( data , lengthString );
 3173              		.loc 1 838 0
 3174 00b0 381C     		mov	r0, r7
 3175 00b2 0421     		mov	r1, #4
 3176 00b4 FFF7FEFF 		bl	checksum1
 3177              	.LVL285:
 3178 00b8 051C     		mov	r5, r0
 3179              	.LVL286:
 3180 00ba 204B     		ldr	r3, .L132+44
 3181 00bc 1870     		strb	r0, [r3]
 839:.\herkulex2.c ****     ck2 = checksum2( ck1 );
 3182              		.loc 1 839 0
 3183 00be FFF7FEFF 		bl	checksum2
 3184              	.LVL287:
ARM GAS  C:\Users\EDTRIC~1\AppData\Local\Temp\ccbcYoXT.s 			page 73


 3185 00c2 1F4B     		ldr	r3, .L132+48
 3186 00c4 1870     		strb	r0, [r3]
 840:.\herkulex2.c ****     
 841:.\herkulex2.c ****     pID = servoID;
 3187              		.loc 1 841 0
 3188 00c6 3470     		strb	r4, [r6]
 842:.\herkulex2.c ****     
 843:.\herkulex2.c ****     dataEx[0] = HEADER;
 3189              		.loc 1 843 0
 3190 00c8 1E4B     		ldr	r3, .L132+52
 3191 00ca FF22     		mov	r2, #255
 3192 00cc 1A70     		strb	r2, [r3]
 844:.\herkulex2.c ****     dataEx[1] = HEADER;
 3193              		.loc 1 844 0
 3194 00ce 5A70     		strb	r2, [r3, #1]
 845:.\herkulex2.c ****     dataEx[2] = pSize;
 3195              		.loc 1 845 0
 3196 00d0 5A46     		mov	r2, fp
 3197 00d2 1178     		ldrb	r1, [r2]
 3198 00d4 9970     		strb	r1, [r3, #2]
 846:.\herkulex2.c ****     dataEx[3] = pID;
 3199              		.loc 1 846 0
 3200 00d6 DC70     		strb	r4, [r3, #3]
 847:.\herkulex2.c ****     dataEx[4] = cmd;
 3201              		.loc 1 847 0
 3202 00d8 5446     		mov	r4, r10
 3203 00da 2278     		ldrb	r2, [r4]
 3204 00dc 1A71     		strb	r2, [r3, #4]
 848:.\herkulex2.c ****     dataEx[5] = ck1;
 3205              		.loc 1 848 0
 3206 00de 5D71     		strb	r5, [r3, #5]
 849:.\herkulex2.c ****     dataEx[6] = ck2;
 3207              		.loc 1 849 0
 3208 00e0 9871     		strb	r0, [r3, #6]
 850:.\herkulex2.c ****     dataEx[7] = playTime;
 3209              		.loc 1 850 0
 3210 00e2 4846     		mov	r0, r9
 3211 00e4 0268     		ldr	r2, [r0]
 3212 00e6 DA71     		strb	r2, [r3, #7]
 851:.\herkulex2.c ****     dataEx[8] = data[0];
 3213              		.loc 1 851 0
 3214 00e8 3A78     		ldrb	r2, [r7]
 3215 00ea 1A72     		strb	r2, [r3, #8]
 852:.\herkulex2.c ****     dataEx[9] = data[1];
 3216              		.loc 1 852 0
 3217 00ec 7A78     		ldrb	r2, [r7, #1]
 3218 00ee 5A72     		strb	r2, [r3, #9]
 853:.\herkulex2.c ****     dataEx[10] = data[2];
 3219              		.loc 1 853 0
 3220 00f0 BA78     		ldrb	r2, [r7, #2]
 3221 00f2 9A72     		strb	r2, [r3, #10]
 854:.\herkulex2.c ****     dataEx[11] = data[3];
 3222              		.loc 1 854 0
 3223 00f4 FA78     		ldrb	r2, [r7, #3]
 3224 00f6 DA72     		strb	r2, [r3, #11]
 855:.\herkulex2.c ****     
 856:.\herkulex2.c ****     sendData( dataEx , pSize );
ARM GAS  C:\Users\EDTRIC~1\AppData\Local\Temp\ccbcYoXT.s 			page 74


 3225              		.loc 1 856 0
 3226 00f8 181C     		mov	r0, r3
 3227 00fa FFF7FEFF 		bl	sendData
 3228              	.LVL288:
 3229              	.L124:
 857:.\herkulex2.c **** }
 3230              		.loc 1 857 0
 3231              		@ sp needed
 3232 00fe 3CBC     		pop	{r2, r3, r4, r5}
 3233 0100 9046     		mov	r8, r2
 3234 0102 9946     		mov	r9, r3
 3235 0104 A246     		mov	r10, r4
 3236 0106 AB46     		mov	fp, r5
 3237 0108 F8BD     		pop	{r3, r4, r5, r6, r7, pc}
 3238              	.L133:
 3239 010a C046C046 		.align	3
 3239      C046
 3240              	.L132:
 3241 0110 66666666 		.word	1717986918
 3242 0114 66662640 		.word	1076258406
 3243 0118 FF030000 		.word	1023
 3244 011c FE070000 		.word	2046
 3245 0120 280B0000 		.word	2856
 3246 0124 00000000 		.word	playTime
 3247 0128 00000000 		.word	pSize
 3248 012c 00000000 		.word	cmd
 3249 0130 00000000 		.word	data
 3250 0134 00000000 		.word	pID
 3251 0138 00000000 		.word	lengthString
 3252 013c 00000000 		.word	ck1
 3253 0140 00000000 		.word	ck2
 3254 0144 00000000 		.word	dataEx
 3255              		.cfi_endproc
 3256              	.LFE60:
 3257              		.size	Servo_moveSpeedOne, .-Servo_moveSpeedOne
 3258              		.section	.text.Servo_writeRegistryRAM,"ax",%progbits
 3259              		.align	2
 3260              		.global	Servo_writeRegistryRAM
 3261              		.code	16
 3262              		.thumb_func
 3263              		.type	Servo_writeRegistryRAM, %function
 3264              	Servo_writeRegistryRAM:
 3265              	.LFB61:
 858:.\herkulex2.c **** 
 859:.\herkulex2.c **** void Servo_writeRegistryRAM( uint8 servoID , uint8 address , uint8 writeByte )
 860:.\herkulex2.c **** {
 3266              		.loc 1 860 0
 3267              		.cfi_startproc
 3268              	.LVL289:
 3269 0000 F0B5     		push	{r4, r5, r6, r7, lr}
 3270              		.cfi_def_cfa_offset 20
 3271              		.cfi_offset 4, -20
 3272              		.cfi_offset 5, -16
 3273              		.cfi_offset 6, -12
 3274              		.cfi_offset 7, -8
 3275              		.cfi_offset 14, -4
 3276 0002 4746     		mov	r7, r8
ARM GAS  C:\Users\EDTRIC~1\AppData\Local\Temp\ccbcYoXT.s 			page 75


 3277 0004 80B4     		push	{r7}
 3278              		.cfi_def_cfa_offset 24
 3279              		.cfi_offset 8, -24
 861:.\herkulex2.c ****     pSize = 0x0A;
 3280              		.loc 1 861 0
 3281 0006 1B4B     		ldr	r3, .L135
 3282 0008 9846     		mov	r8, r3
 3283 000a 0A23     		mov	r3, #10
 3284 000c 4446     		mov	r4, r8
 3285 000e 2370     		strb	r3, [r4]
 862:.\herkulex2.c ****     pID = servoID;
 3286              		.loc 1 862 0
 3287 0010 194F     		ldr	r7, .L135+4
 3288 0012 3870     		strb	r0, [r7]
 863:.\herkulex2.c ****     cmd = RAM_WRITE;
 3289              		.loc 1 863 0
 3290 0014 194E     		ldr	r6, .L135+8
 3291 0016 0323     		mov	r3, #3
 3292 0018 3370     		strb	r3, [r6]
 864:.\herkulex2.c ****     data[0] = address;
 3293              		.loc 1 864 0
 3294 001a 194C     		ldr	r4, .L135+12
 3295 001c 2170     		strb	r1, [r4]
 865:.\herkulex2.c ****     data[1] = 0x01;
 3296              		.loc 1 865 0
 3297 001e 0121     		mov	r1, #1
 3298              	.LVL290:
 3299 0020 6170     		strb	r1, [r4, #1]
 866:.\herkulex2.c ****     data[2] = writeByte;
 3300              		.loc 1 866 0
 3301 0022 A270     		strb	r2, [r4, #2]
 867:.\herkulex2.c ****     lengthString = 3;
 3302              		.loc 1 867 0
 3303 0024 174A     		ldr	r2, .L135+16
 3304              	.LVL291:
 3305 0026 1370     		strb	r3, [r2]
 868:.\herkulex2.c ****     
 869:.\herkulex2.c ****     ck1 = checksum1( data , lengthString );
 3306              		.loc 1 869 0
 3307 0028 201C     		mov	r0, r4
 3308              	.LVL292:
 3309 002a 0321     		mov	r1, #3
 3310 002c FFF7FEFF 		bl	checksum1
 3311              	.LVL293:
 3312 0030 051C     		mov	r5, r0
 3313 0032 154B     		ldr	r3, .L135+20
 3314 0034 1870     		strb	r0, [r3]
 870:.\herkulex2.c ****     ck2 = checksum2( ck1 );
 3315              		.loc 1 870 0
 3316 0036 FFF7FEFF 		bl	checksum2
 3317              	.LVL294:
 3318 003a 144B     		ldr	r3, .L135+24
 3319 003c 1870     		strb	r0, [r3]
 871:.\herkulex2.c ****     
 872:.\herkulex2.c ****     dataEx[0] = HEADER;
 3320              		.loc 1 872 0
 3321 003e 144B     		ldr	r3, .L135+28
ARM GAS  C:\Users\EDTRIC~1\AppData\Local\Temp\ccbcYoXT.s 			page 76


 3322 0040 FF22     		mov	r2, #255
 3323 0042 1A70     		strb	r2, [r3]
 873:.\herkulex2.c ****     dataEx[1] = HEADER;
 3324              		.loc 1 873 0
 3325 0044 5A70     		strb	r2, [r3, #1]
 874:.\herkulex2.c ****     dataEx[2] = pSize;
 3326              		.loc 1 874 0
 3327 0046 4246     		mov	r2, r8
 3328 0048 1178     		ldrb	r1, [r2]
 3329 004a 9970     		strb	r1, [r3, #2]
 875:.\herkulex2.c ****     dataEx[3] = pID;
 3330              		.loc 1 875 0
 3331 004c 3A78     		ldrb	r2, [r7]
 3332 004e DA70     		strb	r2, [r3, #3]
 876:.\herkulex2.c ****     dataEx[4] = cmd;
 3333              		.loc 1 876 0
 3334 0050 3278     		ldrb	r2, [r6]
 3335 0052 1A71     		strb	r2, [r3, #4]
 877:.\herkulex2.c ****     dataEx[5] = ck1;
 3336              		.loc 1 877 0
 3337 0054 5D71     		strb	r5, [r3, #5]
 878:.\herkulex2.c ****     dataEx[6] = ck2;
 3338              		.loc 1 878 0
 3339 0056 9871     		strb	r0, [r3, #6]
 879:.\herkulex2.c ****     dataEx[7] = data[0];
 3340              		.loc 1 879 0
 3341 0058 2278     		ldrb	r2, [r4]
 3342 005a DA71     		strb	r2, [r3, #7]
 880:.\herkulex2.c ****     dataEx[8] = data[1];
 3343              		.loc 1 880 0
 3344 005c 6278     		ldrb	r2, [r4, #1]
 3345 005e 1A72     		strb	r2, [r3, #8]
 881:.\herkulex2.c ****     dataEx[9] = data[2];
 3346              		.loc 1 881 0
 3347 0060 A278     		ldrb	r2, [r4, #2]
 3348 0062 5A72     		strb	r2, [r3, #9]
 882:.\herkulex2.c ****     dataEx[10] = data[3];
 3349              		.loc 1 882 0
 3350 0064 E278     		ldrb	r2, [r4, #3]
 3351 0066 9A72     		strb	r2, [r3, #10]
 883:.\herkulex2.c ****     
 884:.\herkulex2.c ****     sendData( dataEx , pSize );
 3352              		.loc 1 884 0
 3353 0068 181C     		mov	r0, r3
 3354 006a FFF7FEFF 		bl	sendData
 3355              	.LVL295:
 885:.\herkulex2.c **** }
 3356              		.loc 1 885 0
 3357              		@ sp needed
 3358 006e 04BC     		pop	{r2}
 3359 0070 9046     		mov	r8, r2
 3360 0072 F0BD     		pop	{r4, r5, r6, r7, pc}
 3361              	.L136:
 3362              		.align	2
 3363              	.L135:
 3364 0074 00000000 		.word	pSize
 3365 0078 00000000 		.word	pID
ARM GAS  C:\Users\EDTRIC~1\AppData\Local\Temp\ccbcYoXT.s 			page 77


 3366 007c 00000000 		.word	cmd
 3367 0080 00000000 		.word	data
 3368 0084 00000000 		.word	lengthString
 3369 0088 00000000 		.word	ck1
 3370 008c 00000000 		.word	ck2
 3371 0090 00000000 		.word	dataEx
 3372              		.cfi_endproc
 3373              	.LFE61:
 3374              		.size	Servo_writeRegistryRAM, .-Servo_writeRegistryRAM
 3375              		.section	.text.Servo_writeRegistryEEP,"ax",%progbits
 3376              		.align	2
 3377              		.global	Servo_writeRegistryEEP
 3378              		.code	16
 3379              		.thumb_func
 3380              		.type	Servo_writeRegistryEEP, %function
 3381              	Servo_writeRegistryEEP:
 3382              	.LFB62:
 886:.\herkulex2.c **** 
 887:.\herkulex2.c **** void Servo_writeRegistryEEP( uint8 servoID , uint8 address , uint8 writeByte )
 888:.\herkulex2.c **** {
 3383              		.loc 1 888 0
 3384              		.cfi_startproc
 3385              	.LVL296:
 3386 0000 F0B5     		push	{r4, r5, r6, r7, lr}
 3387              		.cfi_def_cfa_offset 20
 3388              		.cfi_offset 4, -20
 3389              		.cfi_offset 5, -16
 3390              		.cfi_offset 6, -12
 3391              		.cfi_offset 7, -8
 3392              		.cfi_offset 14, -4
 3393 0002 4746     		mov	r7, r8
 3394 0004 80B4     		push	{r7}
 3395              		.cfi_def_cfa_offset 24
 3396              		.cfi_offset 8, -24
 889:.\herkulex2.c ****     pSize = 0x0A;
 3397              		.loc 1 889 0
 3398 0006 1B4B     		ldr	r3, .L138
 3399 0008 9846     		mov	r8, r3
 3400 000a 0A23     		mov	r3, #10
 3401 000c 4446     		mov	r4, r8
 3402 000e 2370     		strb	r3, [r4]
 890:.\herkulex2.c ****     pID = servoID;
 3403              		.loc 1 890 0
 3404 0010 194F     		ldr	r7, .L138+4
 3405 0012 3870     		strb	r0, [r7]
 891:.\herkulex2.c ****     cmd = EEP_WRITE;
 3406              		.loc 1 891 0
 3407 0014 194E     		ldr	r6, .L138+8
 3408 0016 0123     		mov	r3, #1
 3409 0018 3370     		strb	r3, [r6]
 892:.\herkulex2.c ****     data[0] = address;
 3410              		.loc 1 892 0
 3411 001a 194C     		ldr	r4, .L138+12
 3412 001c 2170     		strb	r1, [r4]
 893:.\herkulex2.c ****     data[1] = 0x01;
 3413              		.loc 1 893 0
 3414 001e 6370     		strb	r3, [r4, #1]
ARM GAS  C:\Users\EDTRIC~1\AppData\Local\Temp\ccbcYoXT.s 			page 78


 894:.\herkulex2.c ****     data[2] = writeByte;
 3415              		.loc 1 894 0
 3416 0020 A270     		strb	r2, [r4, #2]
 895:.\herkulex2.c ****     lengthString = 3;
 3417              		.loc 1 895 0
 3418 0022 0322     		mov	r2, #3
 3419              	.LVL297:
 3420 0024 174B     		ldr	r3, .L138+16
 3421 0026 1A70     		strb	r2, [r3]
 896:.\herkulex2.c ****     
 897:.\herkulex2.c ****     ck1 = checksum1( data , lengthString );
 3422              		.loc 1 897 0
 3423 0028 201C     		mov	r0, r4
 3424              	.LVL298:
 3425 002a 0321     		mov	r1, #3
 3426              	.LVL299:
 3427 002c FFF7FEFF 		bl	checksum1
 3428              	.LVL300:
 3429 0030 051C     		mov	r5, r0
 3430 0032 154B     		ldr	r3, .L138+20
 3431 0034 1870     		strb	r0, [r3]
 898:.\herkulex2.c ****     ck2 = checksum2( ck1 );
 3432              		.loc 1 898 0
 3433 0036 FFF7FEFF 		bl	checksum2
 3434              	.LVL301:
 3435 003a 144B     		ldr	r3, .L138+24
 3436 003c 1870     		strb	r0, [r3]
 899:.\herkulex2.c ****     
 900:.\herkulex2.c ****     dataEx[0] = HEADER;
 3437              		.loc 1 900 0
 3438 003e 144B     		ldr	r3, .L138+28
 3439 0040 FF22     		mov	r2, #255
 3440 0042 1A70     		strb	r2, [r3]
 901:.\herkulex2.c ****     dataEx[1] = HEADER;
 3441              		.loc 1 901 0
 3442 0044 5A70     		strb	r2, [r3, #1]
 902:.\herkulex2.c ****     dataEx[2] = pSize;
 3443              		.loc 1 902 0
 3444 0046 4246     		mov	r2, r8
 3445 0048 1178     		ldrb	r1, [r2]
 3446 004a 9970     		strb	r1, [r3, #2]
 903:.\herkulex2.c ****     dataEx[3] = pID;
 3447              		.loc 1 903 0
 3448 004c 3A78     		ldrb	r2, [r7]
 3449 004e DA70     		strb	r2, [r3, #3]
 904:.\herkulex2.c ****     dataEx[4] = cmd;
 3450              		.loc 1 904 0
 3451 0050 3278     		ldrb	r2, [r6]
 3452 0052 1A71     		strb	r2, [r3, #4]
 905:.\herkulex2.c ****     dataEx[5] = ck1;
 3453              		.loc 1 905 0
 3454 0054 5D71     		strb	r5, [r3, #5]
 906:.\herkulex2.c ****     dataEx[6] = ck2;
 3455              		.loc 1 906 0
 3456 0056 9871     		strb	r0, [r3, #6]
 907:.\herkulex2.c ****     dataEx[7] = data[0];
 3457              		.loc 1 907 0
ARM GAS  C:\Users\EDTRIC~1\AppData\Local\Temp\ccbcYoXT.s 			page 79


 3458 0058 2278     		ldrb	r2, [r4]
 3459 005a DA71     		strb	r2, [r3, #7]
 908:.\herkulex2.c ****     dataEx[8] = data[1];
 3460              		.loc 1 908 0
 3461 005c 6278     		ldrb	r2, [r4, #1]
 3462 005e 1A72     		strb	r2, [r3, #8]
 909:.\herkulex2.c ****     dataEx[9] = data[2];
 3463              		.loc 1 909 0
 3464 0060 A278     		ldrb	r2, [r4, #2]
 3465 0062 5A72     		strb	r2, [r3, #9]
 910:.\herkulex2.c ****     dataEx[10] = data[3];
 3466              		.loc 1 910 0
 3467 0064 E278     		ldrb	r2, [r4, #3]
 3468 0066 9A72     		strb	r2, [r3, #10]
 911:.\herkulex2.c ****     
 912:.\herkulex2.c ****     sendData( dataEx , pSize );
 3469              		.loc 1 912 0
 3470 0068 181C     		mov	r0, r3
 3471 006a FFF7FEFF 		bl	sendData
 3472              	.LVL302:
 913:.\herkulex2.c **** }
 3473              		.loc 1 913 0
 3474              		@ sp needed
 3475 006e 04BC     		pop	{r2}
 3476 0070 9046     		mov	r8, r2
 3477 0072 F0BD     		pop	{r4, r5, r6, r7, pc}
 3478              	.L139:
 3479              		.align	2
 3480              	.L138:
 3481 0074 00000000 		.word	pSize
 3482 0078 00000000 		.word	pID
 3483 007c 00000000 		.word	cmd
 3484 0080 00000000 		.word	data
 3485 0084 00000000 		.word	lengthString
 3486 0088 00000000 		.word	ck1
 3487 008c 00000000 		.word	ck2
 3488 0090 00000000 		.word	dataEx
 3489              		.cfi_endproc
 3490              	.LFE62:
 3491              		.size	Servo_writeRegistryEEP, .-Servo_writeRegistryEEP
 3492              		.comm	moveData,50,4
 3493              		.comm	dataEx,58,4
 3494              		.comm	data,30,4
 3495              		.comm	playTime,4,4
 3496              		.comm	XOR,1,1
 3497              		.comm	conta,1,1
 3498              		.comm	ck2,1,1
 3499              		.comm	ck1,1,1
 3500              		.comm	lengthString,1,1
 3501              		.comm	cmd,1,1
 3502              		.comm	pID,1,1
 3503              		.comm	pSize,1,1
 3504              		.section	.rodata.str1.4,"aMS",%progbits,1
 3505              		.align	2
 3506              	.LC4:
 3507 0000 257800   		.ascii	"%x\000"
 3508 0003 00       		.space	1
ARM GAS  C:\Users\EDTRIC~1\AppData\Local\Temp\ccbcYoXT.s 			page 80


 3509              	.LC6:
 3510 0004 307800   		.ascii	"0x\000"
 3511 0007 00       		.text
 3512              	.Letext0:
 3513              		.file 2 "Generated_Source\\PSoC4/cytypes.h"
 3514              		.file 3 ".\\herkulex2.h"
 3515              		.file 4 "Generated_Source\\PSoC4/UART_SPI_UART.h"
 3516              		.file 5 "Generated_Source\\PSoC4/CyLib.h"
 3517              		.file 6 "Generated_Source\\PSoC4/UART.h"
 3518              		.file 7 "c:\\program files (x86)\\cypress\\psoc creator\\3.2\\psoc creator\\import\\gnu\\arm\\4.8.