ARM GAS  C:\Users\EDTRIC~1\AppData\Local\Temp\ccbcYoXT.s 			page 1


   1              		.cpu cortex-m0
   2              		.fpu softvfp
   3              		.eabi_attribute 20, 1
   4              		.eabi_attribute 21, 1
   5              		.eabi_attribute 23, 3
   6              		.eabi_attribute 24, 1
   7              		.eabi_attribute 25, 1
   8              		.eabi_attribute 26, 1
   9              		.eabi_attribute 30, 1
  10              		.eabi_attribute 34, 0
  11              		.eabi_attribute 18, 4
  12              		.code	16
  13              		.file	"herkulex2.c"
  14              		.text
  15              	.Ltext0:
  16              		.cfi_sections	.debug_frame
  17              		.section	.text.clearBuffer,"ax",%progbits
  18              		.align	2
  19              		.global	clearBuffer
  20              		.code	16
  21              		.thumb_func
  22              		.type	clearBuffer, %function
  23              	clearBuffer:
  24              	.LFB33:
  25              		.file 1 ".\\herkulex2.c"
   1:.\herkulex2.c **** /* ========================================
   2:.\herkulex2.c ****  *
   3:.\herkulex2.c ****  * Copyright YOUR COMPANY, THE YEAR
   4:.\herkulex2.c ****  * All Rights Reserved
   5:.\herkulex2.c ****  * UNPUBLISHED, LICENSED SOFTWARE.
   6:.\herkulex2.c ****  *
   7:.\herkulex2.c ****  * CONFIDENTIAL AND PROPRIETARY INFORMATION
   8:.\herkulex2.c ****  * WHICH IS THE PROPERTY OF your company.
   9:.\herkulex2.c ****  *
  10:.\herkulex2.c ****  * ========================================
  11:.\herkulex2.c **** */
  12:.\herkulex2.c **** 
  13:.\herkulex2.c **** #include "herkulex2.h"
  14:.\herkulex2.c **** 
  15:.\herkulex2.c **** uint8 pSize;
  16:.\herkulex2.c **** uint8 pID;
  17:.\herkulex2.c **** uint8 cmd;
  18:.\herkulex2.c **** uint8 lengthString;
  19:.\herkulex2.c **** uint8 ck1;
  20:.\herkulex2.c **** uint8 ck2;
  21:.\herkulex2.c **** 
  22:.\herkulex2.c **** uint8 conta;
  23:.\herkulex2.c **** 
  24:.\herkulex2.c **** uint8 XOR;
  25:.\herkulex2.c **** int playTime;
  26:.\herkulex2.c **** 
  27:.\herkulex2.c **** uint8 data[DATASIZE];
  28:.\herkulex2.c **** uint8 dataEx[DATAMOVE+8];
  29:.\herkulex2.c **** uint8 moveData[DATAMOVE];
  30:.\herkulex2.c **** 
  31:.\herkulex2.c **** void clearBuffer( void )
  32:.\herkulex2.c **** {
ARM GAS  C:\Users\EDTRIC~1\AppData\Local\Temp\ccbcYoXT.s 			page 2


  26              		.loc 1 32 0
  27              		.cfi_startproc
  28 0000 08B5     		push	{r3, lr}
  29              		.cfi_def_cfa_offset 8
  30              		.cfi_offset 3, -8
  31              		.cfi_offset 14, -4
  33:.\herkulex2.c ****     UART_SpiUartClearTxBuffer();
  32              		.loc 1 33 0
  33 0002 FFF7FEFF 		bl	UART_SpiUartClearTxBuffer
  34              	.LVL0:
  34:.\herkulex2.c ****     UART_SpiUartClearRxBuffer();
  35              		.loc 1 34 0
  36 0006 FFF7FEFF 		bl	UART_SpiUartClearRxBuffer
  37              	.LVL1:
  35:.\herkulex2.c **** }
  38              		.loc 1 35 0
  39              		@ sp needed
  40 000a 08BD     		pop	{r3, pc}
  41              		.cfi_endproc
  42              	.LFE33:
  43              		.size	clearBuffer, .-clearBuffer
  44              		.section	.text.checksum1,"ax",%progbits
  45              		.align	2
  46              		.global	checksum1
  47              		.code	16
  48              		.thumb_func
  49              		.type	checksum1, %function
  50              	checksum1:
  51              	.LFB34:
  36:.\herkulex2.c **** 
  37:.\herkulex2.c **** uint8 checksum1( uint8 * data , uint8 lengthString )
  38:.\herkulex2.c **** {
  52              		.loc 1 38 0
  53              		.cfi_startproc
  54              	.LVL2:
  55 0000 30B5     		push	{r4, r5, lr}
  56              		.cfi_def_cfa_offset 12
  57              		.cfi_offset 4, -12
  58              		.cfi_offset 5, -8
  59              		.cfi_offset 14, -4
  39:.\herkulex2.c ****     uint8 i;
  40:.\herkulex2.c ****     
  41:.\herkulex2.c ****     XOR = 0;
  42:.\herkulex2.c ****     XOR = XOR ^ pSize;
  60              		.loc 1 42 0
  61 0002 0D4B     		ldr	r3, .L5
  62 0004 1A78     		ldrb	r2, [r3]
  43:.\herkulex2.c ****     XOR = XOR ^ pID;
  63              		.loc 1 43 0
  64 0006 0D4B     		ldr	r3, .L5+4
  65 0008 1B78     		ldrb	r3, [r3]
  66 000a 5A40     		eor	r2, r3
  44:.\herkulex2.c ****     XOR = XOR ^ cmd;
  67              		.loc 1 44 0
  68 000c 0C4B     		ldr	r3, .L5+8
  69 000e 1B78     		ldrb	r3, [r3]
  70 0010 5A40     		eor	r2, r3
ARM GAS  C:\Users\EDTRIC~1\AppData\Local\Temp\ccbcYoXT.s 			page 3


  71 0012 0C4B     		ldr	r3, .L5+12
  72 0014 1A70     		strb	r2, [r3]
  73              	.LVL3:
  45:.\herkulex2.c ****     
  46:.\herkulex2.c ****     for( i = 0; i < lengthString; i++ )
  74              		.loc 1 46 0
  75 0016 0023     		mov	r3, #0
  47:.\herkulex2.c ****     {
  48:.\herkulex2.c ****         XOR = XOR ^ data[i];
  76              		.loc 1 48 0
  77 0018 0A4A     		ldr	r2, .L5+12
  46:.\herkulex2.c ****     for( i = 0; i < lengthString; i++ )
  78              		.loc 1 46 0
  79 001a 05E0     		b	.L3
  80              	.LVL4:
  81              	.L4:
  82              		.loc 1 48 0 discriminator 2
  83 001c C55C     		ldrb	r5, [r0, r3]
  84 001e 1478     		ldrb	r4, [r2]
  85 0020 6C40     		eor	r4, r5
  86 0022 1470     		strb	r4, [r2]
  46:.\herkulex2.c ****     for( i = 0; i < lengthString; i++ )
  87              		.loc 1 46 0 discriminator 2
  88 0024 0133     		add	r3, r3, #1
  89              	.LVL5:
  90 0026 DBB2     		uxtb	r3, r3
  91              	.LVL6:
  92              	.L3:
  46:.\herkulex2.c ****     for( i = 0; i < lengthString; i++ )
  93              		.loc 1 46 0 is_stmt 0 discriminator 1
  94 0028 8B42     		cmp	r3, r1
  95 002a F7D3     		bcc	.L4
  49:.\herkulex2.c ****     }
  50:.\herkulex2.c ****     
  51:.\herkulex2.c ****     return XOR & 0xFE;
  96              		.loc 1 51 0 is_stmt 1
  97 002c 054B     		ldr	r3, .L5+12
  98              	.LVL7:
  99 002e 1878     		ldrb	r0, [r3]
 100              	.LVL8:
 101 0030 0123     		mov	r3, #1
 102 0032 9843     		bic	r0, r3
  52:.\herkulex2.c **** }
 103              		.loc 1 52 0
 104              		@ sp needed
 105 0034 30BD     		pop	{r4, r5, pc}
 106              	.L6:
 107 0036 C046     		.align	2
 108              	.L5:
 109 0038 00000000 		.word	pSize
 110 003c 00000000 		.word	pID
 111 0040 00000000 		.word	cmd
 112 0044 00000000 		.word	XOR
 113              		.cfi_endproc
 114              	.LFE34:
 115              		.size	checksum1, .-checksum1
 116              		.section	.text.checksum2,"ax",%progbits
ARM GAS  C:\Users\EDTRIC~1\AppData\Local\Temp\ccbcYoXT.s 			page 4


 117              		.align	2
 118              		.global	checksum2
 119              		.code	16
 120              		.thumb_func
 121              		.type	checksum2, %function
 122              	checksum2:
 123              	.LFB35:
  53:.\herkulex2.c **** 
  54:.\herkulex2.c **** uint8 checksum2( uint8 XOR )
  55:.\herkulex2.c **** {
 124              		.loc 1 55 0
 125              		.cfi_startproc
 126              	.LVL9:
  56:.\herkulex2.c ****     return (~XOR) & 0xFE;
 127              		.loc 1 56 0
 128 0000 FE23     		mov	r3, #254
 129 0002 8343     		bic	r3, r0
 130 0004 181C     		mov	r0, r3
 131              	.LVL10:
  57:.\herkulex2.c **** }
 132              		.loc 1 57 0
 133              		@ sp needed
 134 0006 7047     		bx	lr
 135              		.cfi_endproc
 136              	.LFE35:
 137              		.size	checksum2, .-checksum2
 138              		.section	.text.printHexByte,"ax",%progbits
 139              		.align	2
 140              		.global	printHexByte
 141              		.code	16
 142              		.thumb_func
 143              		.type	printHexByte, %function
 144              	printHexByte:
 145              	.LFB36:
  58:.\herkulex2.c **** 
  59:.\herkulex2.c **** void printHexByte( uint8 x )
  60:.\herkulex2.c **** {
 146              		.loc 1 60 0
 147              		.cfi_startproc
 148              	.LVL11:
 149 0000 10B5     		push	{r4, lr}
 150              		.cfi_def_cfa_offset 8
 151              		.cfi_offset 4, -8
 152              		.cfi_offset 14, -4
 153 0002 82B0     		sub	sp, sp, #8
 154              		.cfi_def_cfa_offset 16
 155 0004 041C     		mov	r4, r0
  61:.\herkulex2.c ****     char byte[4];
  62:.\herkulex2.c ****     
  63:.\herkulex2.c ****     sprintf( byte , "%x" , x );
 156              		.loc 1 63 0
 157 0006 01A8     		add	r0, sp, #4
 158              	.LVL12:
 159 0008 0949     		ldr	r1, .L10
 160 000a 221C     		mov	r2, r4
 161 000c FFF7FEFF 		bl	sprintf
 162              	.LVL13:
ARM GAS  C:\Users\EDTRIC~1\AppData\Local\Temp\ccbcYoXT.s 			page 5


  64:.\herkulex2.c ****     
  65:.\herkulex2.c ****     UART_UartPutString("0x");
 163              		.loc 1 65 0
 164 0010 0848     		ldr	r0, .L10+4
 165 0012 FFF7FEFF 		bl	UART_UartPutString
 166              	.LVL14:
  66:.\herkulex2.c ****     if( x < 16)
 167              		.loc 1 66 0
 168 0016 0F2C     		cmp	r4, #15
 169 0018 02D8     		bhi	.L9
  67:.\herkulex2.c ****     {
  68:.\herkulex2.c ****         UART_UartPutChar('0');
 170              		.loc 1 68 0
 171 001a 3020     		mov	r0, #48
 172 001c FFF7FEFF 		bl	UART_SpiUartWriteTxData
 173              	.LVL15:
 174              	.L9:
  69:.\herkulex2.c ****     }
  70:.\herkulex2.c ****     UART_UartPutString(byte);
 175              		.loc 1 70 0
 176 0020 01A8     		add	r0, sp, #4
 177 0022 FFF7FEFF 		bl	UART_UartPutString
 178              	.LVL16:
  71:.\herkulex2.c ****     UART_UartPutChar(' ');
 179              		.loc 1 71 0
 180 0026 2020     		mov	r0, #32
 181 0028 FFF7FEFF 		bl	UART_SpiUartWriteTxData
 182              	.LVL17:
  72:.\herkulex2.c **** }
 183              		.loc 1 72 0
 184 002c 02B0     		add	sp, sp, #8
 185              		@ sp needed
 186 002e 10BD     		pop	{r4, pc}
 187              	.L11:
 188              		.align	2
 189              	.L10:
 190 0030 00000000 		.word	.LC4
 191 0034 04000000 		.word	.LC6
 192              		.cfi_endproc
 193              	.LFE36:
 194              		.size	printHexByte, .-printHexByte
 195              		.section	.text.sendData,"ax",%progbits
 196              		.align	2
 197              		.global	sendData
 198              		.code	16
 199              		.thumb_func
 200              		.type	sendData, %function
 201              	sendData:
 202              	.LFB37:
  73:.\herkulex2.c **** 
  74:.\herkulex2.c **** void sendData( uint8 * buffer , uint8 length )
  75:.\herkulex2.c **** {
 203              		.loc 1 75 0
 204              		.cfi_startproc
 205              	.LVL18:
 206 0000 38B5     		push	{r3, r4, r5, lr}
 207              		.cfi_def_cfa_offset 16
ARM GAS  C:\Users\EDTRIC~1\AppData\Local\Temp\ccbcYoXT.s 			page 6


 208              		.cfi_offset 3, -16
 209              		.cfi_offset 4, -12
 210              		.cfi_offset 5, -8
 211              		.cfi_offset 14, -4
 212 0002 051C     		mov	r5, r0
 213 0004 0C1C     		mov	r4, r1
  76:.\herkulex2.c ****     clearBuffer();
 214              		.loc 1 76 0
 215 0006 FFF7FEFF 		bl	clearBuffer
 216              	.LVL19:
  77:.\herkulex2.c ****     UART_SpiUartPutArray( buffer , length );
 217              		.loc 1 77 0
 218 000a 281C     		mov	r0, r5
 219 000c 211C     		mov	r1, r4
 220 000e FFF7FEFF 		bl	UART_SpiUartPutArray
 221              	.LVL20:
  78:.\herkulex2.c ****     CyDelay(1);
 222              		.loc 1 78 0
 223 0012 0120     		mov	r0, #1
 224 0014 FFF7FEFF 		bl	CyDelay
 225              	.LVL21:
  79:.\herkulex2.c **** }
 226              		.loc 1 79 0
 227              		@ sp needed
 228              	.LVL22:
 229 0018 38BD     		pop	{r3, r4, r5, pc}
 230              		.cfi_endproc
 231              	.LFE37:
 232              		.size	sendData, .-sendData
 233 001a C046     		.section	.text.readData,"ax",%progbits
 234              		.align	2
 235              		.global	readData
 236              		.code	16
 237              		.thumb_func
 238              		.type	readData, %function
 239              	readData:
 240              	.LFB38:
  80:.\herkulex2.c **** 
  81:.\herkulex2.c **** void readData( uint8 size )
  82:.\herkulex2.c **** {
 241              		.loc 1 82 0
 242              		.cfi_startproc
 243              	.LVL23:
 244 0000 F0B5     		push	{r4, r5, r6, r7, lr}
 245              		.cfi_def_cfa_offset 20
 246              		.cfi_offset 4, -20
 247              		.cfi_offset 5, -16
 248              		.cfi_offset 6, -12
 249              		.cfi_offset 7, -8
 250              		.cfi_offset 14, -4
 251 0002 4746     		mov	r7, r8
 252 0004 80B4     		push	{r7}
 253              		.cfi_def_cfa_offset 24
 254              		.cfi_offset 8, -24
 255 0006 061C     		mov	r6, r0
 256              	.LVL24:
  83:.\herkulex2.c ****     uint8 i = 0;
ARM GAS  C:\Users\EDTRIC~1\AppData\Local\Temp\ccbcYoXT.s 			page 7


  84:.\herkulex2.c ****     uint8 beginsave = 0;
  85:.\herkulex2.c ****     uint8 timeCounter = 0;
 257              		.loc 1 85 0
 258 0008 0024     		mov	r4, #0
  86:.\herkulex2.c ****     
  87:.\herkulex2.c ****     while( (UART_SpiUartGetRxBufferSize() < size) & (timeCounter < TIMEOUT) )
 259              		.loc 1 87 0
 260 000a 0427     		mov	r7, #4
 261 000c 0025     		mov	r5, #0
 262 000e 04E0     		b	.L14
 263              	.LVL25:
 264              	.L15:
  88:.\herkulex2.c ****     {
  89:.\herkulex2.c ****         timeCounter++;
 265              		.loc 1 89 0
 266 0010 0134     		add	r4, r4, #1
 267              	.LVL26:
 268 0012 E4B2     		uxtb	r4, r4
 269              	.LVL27:
  90:.\herkulex2.c ****         CyDelay(1);
 270              		.loc 1 90 0
 271 0014 0120     		mov	r0, #1
 272 0016 FFF7FEFF 		bl	CyDelay
 273              	.LVL28:
 274              	.L14:
  87:.\herkulex2.c ****     while( (UART_SpiUartGetRxBufferSize() < size) & (timeCounter < TIMEOUT) )
 275              		.loc 1 87 0 discriminator 1
 276 001a FFF7FEFF 		bl	UART_SpiUartGetRxBufferSize
 277              	.LVL29:
 278 001e B042     		cmp	r0, r6
 279 0020 9B41     		sbc	r3, r3, r3
 280 0022 5B42     		neg	r3, r3
 281 0024 2A1C     		mov	r2, r5
 282 0026 A742     		cmp	r7, r4
 283 0028 6A41     		adc	r2, r2, r5
 284 002a 1A42     		tst	r2, r3
 285 002c F0D1     		bne	.L15
 286 002e 0024     		mov	r4, #0
 287              	.LVL30:
 288 0030 0025     		mov	r5, #0
 289              	.LBB2:
  91:.\herkulex2.c ****     }
  92:.\herkulex2.c ****     while( (UART_SpiUartGetRxBufferSize() > 0) )
  93:.\herkulex2.c ****     {
  94:.\herkulex2.c ****         uint8 recByte = UART_UartGetByte();
  95:.\herkulex2.c ****         if( recByte == 0xFF )
  96:.\herkulex2.c ****         {
  97:.\herkulex2.c ****             beginsave = 1;
 290              		.loc 1 97 0
 291 0032 0123     		mov	r3, #1
 292 0034 9846     		mov	r8, r3
  98:.\herkulex2.c ****             i = 0;
 293              		.loc 1 98 0
 294 0036 0027     		mov	r7, #0
 295 0038 0EE0     		b	.L21
 296              	.LVL31:
 297              	.L19:
ARM GAS  C:\Users\EDTRIC~1\AppData\Local\Temp\ccbcYoXT.s 			page 8


  94:.\herkulex2.c ****         uint8 recByte = UART_UartGetByte();
 298              		.loc 1 94 0
 299 003a FFF7FEFF 		bl	UART_UartGetByte
 300              	.LVL32:
 301 003e C0B2     		uxtb	r0, r0
 302              	.LVL33:
  95:.\herkulex2.c ****         if( recByte == 0xFF )
 303              		.loc 1 95 0
 304 0040 FF28     		cmp	r0, #255
 305 0042 01D1     		bne	.L17
  97:.\herkulex2.c ****             beginsave = 1;
 306              		.loc 1 97 0
 307 0044 4446     		mov	r4, r8
 308              	.LVL34:
 309              		.loc 1 98 0
 310 0046 3D1C     		mov	r5, r7
 311              	.LVL35:
 312              	.L17:
  99:.\herkulex2.c ****         }
 100:.\herkulex2.c ****         if( beginsave == 1 && i < size )
 313              		.loc 1 100 0
 314 0048 012C     		cmp	r4, #1
 315 004a 05D1     		bne	.L21
 316              		.loc 1 100 0 is_stmt 0 discriminator 1
 317 004c B542     		cmp	r5, r6
 318 004e 03D2     		bcs	.L21
 101:.\herkulex2.c ****         {
 102:.\herkulex2.c ****             dataEx[i] = recByte;
 319              		.loc 1 102 0 is_stmt 1
 320 0050 064B     		ldr	r3, .L22
 321 0052 5855     		strb	r0, [r3, r5]
 103:.\herkulex2.c ****             i++;
 322              		.loc 1 103 0
 323 0054 0135     		add	r5, r5, #1
 324              	.LVL36:
 325 0056 EDB2     		uxtb	r5, r5
 326              	.LVL37:
 327              	.L21:
 328              	.LBE2:
  92:.\herkulex2.c ****     while( (UART_SpiUartGetRxBufferSize() > 0) )
 329              		.loc 1 92 0 discriminator 1
 330 0058 FFF7FEFF 		bl	UART_SpiUartGetRxBufferSize
 331              	.LVL38:
 332 005c 0028     		cmp	r0, #0
 333 005e ECD1     		bne	.L19
 104:.\herkulex2.c ****         }
 105:.\herkulex2.c ****     }
 106:.\herkulex2.c ****     clearBuffer();
 334              		.loc 1 106 0
 335 0060 FFF7FEFF 		bl	clearBuffer
 336              	.LVL39:
 107:.\herkulex2.c **** }
 337              		.loc 1 107 0
 338              		@ sp needed
 339              	.LVL40:
 340              	.LVL41:
 341 0064 04BC     		pop	{r2}
ARM GAS  C:\Users\EDTRIC~1\AppData\Local\Temp\ccbcYoXT.s 			page 9


 342 0066 9046     		mov	r8, r2
 343 0068 F0BD     		pop	{r4, r5, r6, r7, pc}
 344              	.L23:
 345 006a C046     		.align	2
 346              	.L22:
 347 006c 00000000 		.word	dataEx
 348              		.cfi_endproc
 349              	.LFE38:
 350              		.size	readData, .-readData
 351              		.section	.text.addData,"ax",%progbits
 352              		.align	2
 353              		.global	addData
 354              		.code	16
 355              		.thumb_func
 356              		.type	addData, %function
 357              	addData:
 358              	.LFB39:
 108:.\herkulex2.c **** 
 109:.\herkulex2.c **** void addData( int goalLSB , int goalMSB , uint8 set , uint8 servoID)
 110:.\herkulex2.c **** {
 359              		.loc 1 110 0
 360              		.cfi_startproc
 361              	.LVL42:
 362 0000 F0B5     		push	{r4, r5, r6, r7, lr}
 363              		.cfi_def_cfa_offset 20
 364              		.cfi_offset 4, -20
 365              		.cfi_offset 5, -16
 366              		.cfi_offset 6, -12
 367              		.cfi_offset 7, -8
 368              		.cfi_offset 14, -4
 111:.\herkulex2.c ****     moveData[conta++] = goalLSB;
 369              		.loc 1 111 0
 370 0002 084D     		ldr	r5, .L25
 371 0004 2F78     		ldrb	r7, [r5]
 372 0006 7E1C     		add	r6, r7, #1
 373 0008 F6B2     		uxtb	r6, r6
 374 000a 074C     		ldr	r4, .L25+4
 375 000c E055     		strb	r0, [r4, r7]
 112:.\herkulex2.c ****     moveData[conta++] = goalMSB;
 376              		.loc 1 112 0
 377 000e 701C     		add	r0, r6, #1
 378              	.LVL43:
 379 0010 C0B2     		uxtb	r0, r0
 380 0012 A155     		strb	r1, [r4, r6]
 113:.\herkulex2.c ****     moveData[conta++] = set;
 381              		.loc 1 113 0
 382 0014 411C     		add	r1, r0, #1
 383              	.LVL44:
 384 0016 C9B2     		uxtb	r1, r1
 385 0018 2254     		strb	r2, [r4, r0]
 114:.\herkulex2.c ****     moveData[conta++] = servoID;
 386              		.loc 1 114 0
 387 001a 4A1C     		add	r2, r1, #1
 388              	.LVL45:
 389 001c 2A70     		strb	r2, [r5]
 390 001e 6354     		strb	r3, [r4, r1]
 391              	.LVL46:
ARM GAS  C:\Users\EDTRIC~1\AppData\Local\Temp\ccbcYoXT.s 			page 10


 115:.\herkulex2.c **** }
 392              		.loc 1 115 0
 393              		@ sp needed
 394 0020 F0BD     		pop	{r4, r5, r6, r7, pc}
 395              	.L26:
 396 0022 C046     		.align	2
 397              	.L25:
 398 0024 00000000 		.word	conta
 399 0028 00000000 		.word	moveData
 400              		.cfi_endproc
 401              	.LFE39:
 402              		.size	addData, .-addData
 403              		.section	.text.Servo_status,"ax",%progbits
 404              		.align	2
 405              		.global	Servo_status
 406              		.code	16
 407              		.thumb_func
 408              		.type	Servo_status, %function
 409              	Servo_status:
 410              	.LFB41:
 116:.\herkulex2.c **** 
 117:.\herkulex2.c **** void Servo_initialize( void )
 118:.\herkulex2.c **** {
 119:.\herkulex2.c ****     UART_Start();
 120:.\herkulex2.c ****     conta = 0;
 121:.\herkulex2.c ****     lengthString = 0;
 122:.\herkulex2.c ****     CyDelay(100);
 123:.\herkulex2.c ****     Servo_clearError(PIDALL);
 124:.\herkulex2.c ****     CyDelay(10);
 125:.\herkulex2.c ****     Servo_ACK(1);
 126:.\herkulex2.c ****     CyDelay(10);
 127:.\herkulex2.c ****     Servo_torqueON(PIDALL);
 128:.\herkulex2.c ****     CyDelay(10);
 129:.\herkulex2.c ****     
 130:.\herkulex2.c ****     Servo_moveOneAngle( PIDALL , 0 , 1000 , LED_RED );
 131:.\herkulex2.c ****     CyDelay(1200);
 132:.\herkulex2.c ****     Servo_setLED( PIDALL , LED_GREEN );
 133:.\herkulex2.c ****     CyDelay(100);
 134:.\herkulex2.c ****     Servo_setLED( PIDALL , 0 );
 135:.\herkulex2.c ****     CyDelay(500);
 136:.\herkulex2.c **** }
 137:.\herkulex2.c **** 
 138:.\herkulex2.c **** uint8 Servo_status( uint8 servoID )
 139:.\herkulex2.c **** {
 411              		.loc 1 139 0
 412              		.cfi_startproc
 413              	.LVL47:
 414 0000 F8B5     		push	{r3, r4, r5, r6, r7, lr}
 415              		.cfi_def_cfa_offset 24
 416              		.cfi_offset 3, -24
 417              		.cfi_offset 4, -20
 418              		.cfi_offset 5, -16
 419              		.cfi_offset 6, -12
 420              		.cfi_offset 7, -8
 421              		.cfi_offset 14, -4
 422 0002 5F46     		mov	r7, fp
 423 0004 5646     		mov	r6, r10
ARM GAS  C:\Users\EDTRIC~1\AppData\Local\Temp\ccbcYoXT.s 			page 11


 424 0006 4D46     		mov	r5, r9
 425 0008 4446     		mov	r4, r8
 426 000a F0B4     		push	{r4, r5, r6, r7}
 427              		.cfi_def_cfa_offset 40
 428              		.cfi_offset 8, -40
 429              		.cfi_offset 9, -36
 430              		.cfi_offset 10, -32
 431              		.cfi_offset 11, -28
 140:.\herkulex2.c ****     pSize = 0x07;
 432              		.loc 1 140 0
 433 000c 2F49     		ldr	r1, .L30
 434 000e 8A46     		mov	r10, r1
 435 0010 0723     		mov	r3, #7
 436 0012 0B70     		strb	r3, [r1]
 141:.\herkulex2.c ****     pID = servoID;
 437              		.loc 1 141 0
 438 0014 2E49     		ldr	r1, .L30+4
 439 0016 8946     		mov	r9, r1
 440 0018 0870     		strb	r0, [r1]
 142:.\herkulex2.c ****     cmd = STAT;
 441              		.loc 1 142 0
 442 001a 2E49     		ldr	r1, .L30+8
 443 001c 8846     		mov	r8, r1
 444 001e 0B70     		strb	r3, [r1]
 143:.\herkulex2.c ****     
 144:.\herkulex2.c ****     ck1 = ( pSize ^ pID ^ cmd) & 0xFE;
 445              		.loc 1 144 0
 446 0020 0125     		mov	r5, #1
 447 0022 011C     		mov	r1, r0
 448 0024 A943     		bic	r1, r5
 449 0026 2C4F     		ldr	r7, .L30+12
 450 0028 3970     		strb	r1, [r7]
 145:.\herkulex2.c ****     ck2 = ( ~( pSize ^ pID ^ cmd ) ) & 0xFE;
 451              		.loc 1 145 0
 452 002a C243     		mvn	r2, r0
 453 002c AA43     		bic	r2, r5
 454 002e D2B2     		uxtb	r2, r2
 455 0030 9346     		mov	fp, r2
 456 0032 2A4E     		ldr	r6, .L30+16
 457 0034 3270     		strb	r2, [r6]
 146:.\herkulex2.c ****     
 147:.\herkulex2.c ****     dataEx[0] = HEADER;
 458              		.loc 1 147 0
 459 0036 2A4C     		ldr	r4, .L30+20
 460 0038 FF22     		mov	r2, #255
 461 003a 2270     		strb	r2, [r4]
 148:.\herkulex2.c ****     dataEx[1] = HEADER;
 462              		.loc 1 148 0
 463 003c 6270     		strb	r2, [r4, #1]
 149:.\herkulex2.c ****     dataEx[2] = pSize;
 464              		.loc 1 149 0
 465 003e A370     		strb	r3, [r4, #2]
 150:.\herkulex2.c ****     dataEx[3] = pID;
 466              		.loc 1 150 0
 467 0040 E070     		strb	r0, [r4, #3]
 151:.\herkulex2.c ****     dataEx[4] = cmd;
 468              		.loc 1 151 0
ARM GAS  C:\Users\EDTRIC~1\AppData\Local\Temp\ccbcYoXT.s 			page 12


 469 0042 2371     		strb	r3, [r4, #4]
 152:.\herkulex2.c ****     dataEx[5] = ck1;
 470              		.loc 1 152 0
 471 0044 6171     		strb	r1, [r4, #5]
 153:.\herkulex2.c ****     dataEx[6] = ck2;
 472              		.loc 1 153 0
 473 0046 5B46     		mov	r3, fp
 474 0048 A371     		strb	r3, [r4, #6]
 154:.\herkulex2.c ****     
 155:.\herkulex2.c ****     sendData( dataEx , pSize );
 475              		.loc 1 155 0
 476 004a 201C     		mov	r0, r4
 477              	.LVL48:
 478 004c 0721     		mov	r1, #7
 479 004e FFF7FEFF 		bl	sendData
 480              	.LVL49:
 156:.\herkulex2.c ****     CyDelay(5);
 481              		.loc 1 156 0
 482 0052 0520     		mov	r0, #5
 483 0054 FFF7FEFF 		bl	CyDelay
 484              	.LVL50:
 157:.\herkulex2.c ****     readData(9);
 485              		.loc 1 157 0
 486 0058 0920     		mov	r0, #9
 487 005a FFF7FEFF 		bl	readData
 488              	.LVL51:
 158:.\herkulex2.c ****     
 159:.\herkulex2.c ****     pSize = dataEx[2];
 489              		.loc 1 159 0
 490 005e A078     		ldrb	r0, [r4, #2]
 491 0060 5146     		mov	r1, r10
 492 0062 0870     		strb	r0, [r1]
 160:.\herkulex2.c ****     pID = dataEx[3];
 493              		.loc 1 160 0
 494 0064 E178     		ldrb	r1, [r4, #3]
 495 0066 4A46     		mov	r2, r9
 496 0068 1170     		strb	r1, [r2]
 161:.\herkulex2.c ****     cmd = dataEx[4];
 497              		.loc 1 161 0
 498 006a 2379     		ldrb	r3, [r4, #4]
 499 006c 9946     		mov	r9, r3
 500 006e 4246     		mov	r2, r8
 501 0070 1370     		strb	r3, [r2]
 162:.\herkulex2.c ****     data[0] = data[7];
 502              		.loc 1 162 0
 503 0072 1C4B     		ldr	r3, .L30+24
 504 0074 DA79     		ldrb	r2, [r3, #7]
 505 0076 1A70     		strb	r2, [r3]
 163:.\herkulex2.c ****     data[1] = data[8];
 506              		.loc 1 163 0
 507 0078 1A7A     		ldrb	r2, [r3, #8]
 508 007a 5A70     		strb	r2, [r3, #1]
 164:.\herkulex2.c ****     lengthString = 2;
 509              		.loc 1 164 0
 510 007c 0223     		mov	r3, #2
 511 007e 9C46     		mov	ip, r3
 512 0080 194B     		ldr	r3, .L30+28
ARM GAS  C:\Users\EDTRIC~1\AppData\Local\Temp\ccbcYoXT.s 			page 13


 513 0082 6246     		mov	r2, ip
 514 0084 1A70     		strb	r2, [r3]
 165:.\herkulex2.c ****     
 166:.\herkulex2.c ****     ck1 = ( dataEx[2] ^ dataEx[3] ^ dataEx[4] ^ dataEx[7] ^ dataEx[8] ) & 0xFE;
 515              		.loc 1 166 0
 516 0086 E379     		ldrb	r3, [r4, #7]
 517 0088 9846     		mov	r8, r3
 518 008a 237A     		ldrb	r3, [r4, #8]
 519 008c 4140     		eor	r1, r0
 520 008e 4A46     		mov	r2, r9
 521 0090 4A40     		eor	r2, r1
 522 0092 4146     		mov	r1, r8
 523 0094 4A40     		eor	r2, r1
 524 0096 5A40     		eor	r2, r3
 525 0098 AA43     		bic	r2, r5
 526 009a 151C     		mov	r5, r2
 527 009c 3A70     		strb	r2, [r7]
 167:.\herkulex2.c ****     ck2 = checksum2(ck1);
 528              		.loc 1 167 0
 529 009e 101C     		mov	r0, r2
 530 00a0 FFF7FEFF 		bl	checksum2
 531              	.LVL52:
 532 00a4 3070     		strb	r0, [r6]
 168:.\herkulex2.c ****     
 169:.\herkulex2.c ****     if( ck1 != dataEx[5] ) return -1;
 533              		.loc 1 169 0
 534 00a6 6379     		ldrb	r3, [r4, #5]
 535 00a8 9D42     		cmp	r5, r3
 536 00aa 06D1     		bne	.L29
 170:.\herkulex2.c ****     if( ck2 != dataEx[6] ) return -2;
 537              		.loc 1 170 0
 538 00ac 0C4B     		ldr	r3, .L30+20
 539 00ae 9B79     		ldrb	r3, [r3, #6]
 540 00b0 9842     		cmp	r0, r3
 541 00b2 04D0     		beq	.L28
 542 00b4 FE22     		mov	r2, #254
 543 00b6 9046     		mov	r8, r2
 544 00b8 01E0     		b	.L28
 545              	.L29:
 169:.\herkulex2.c ****     if( ck1 != dataEx[5] ) return -1;
 546              		.loc 1 169 0
 547 00ba FF23     		mov	r3, #255
 548 00bc 9846     		mov	r8, r3
 549              	.L28:
 171:.\herkulex2.c ****     
 172:.\herkulex2.c ****     return dataEx[7];
 173:.\herkulex2.c **** }
 550              		.loc 1 173 0
 551 00be 4046     		mov	r0, r8
 552              		@ sp needed
 553 00c0 3CBC     		pop	{r2, r3, r4, r5}
 554 00c2 9046     		mov	r8, r2
 555 00c4 9946     		mov	r9, r3
 556 00c6 A246     		mov	r10, r4
 557 00c8 AB46     		mov	fp, r5
 558 00ca F8BD     		pop	{r3, r4, r5, r6, r7, pc}
 559              	.L31:
ARM GAS  C:\Users\EDTRIC~1\AppData\Local\Temp\ccbcYoXT.s 			page 14


 560              		.align	2
 561              	.L30:
 562 00cc 00000000 		.word	pSize
 563 00d0 00000000 		.word	pID
 564 00d4 00000000 		.word	cmd
 565 00d8 00000000 		.word	ck1
 566 00dc 00000000 		.word	ck2
 567 00e0 00000000 		.word	dataEx
 568 00e4 00000000 		.word	data
 569 00e8 00000000 		.word	lengthString
 570              		.cfi_endproc
 571              	.LFE41:
 572              		.size	Servo_status, .-Servo_status
 573              		.section	.text.Servo_torqueON,"ax",%progbits
 574              		.align	2
 575              		.global	Servo_torqueON
 576              		.code	16
 577              		.thumb_func
 578              		.type	Servo_torqueON, %function
 579              	Servo_torqueON:
 580              	.LFB42:
 174:.\herkulex2.c **** 
 175:.\herkulex2.c **** void Servo_torqueON( uint8 servoID )
 176:.\herkulex2.c **** {
 581              		.loc 1 176 0
 582              		.cfi_startproc
 583              	.LVL53:
 584 0000 F0B5     		push	{r4, r5, r6, r7, lr}
 585              		.cfi_def_cfa_offset 20
 586              		.cfi_offset 4, -20
 587              		.cfi_offset 5, -16
 588              		.cfi_offset 6, -12
 589              		.cfi_offset 7, -8
 590              		.cfi_offset 14, -4
 591 0002 4746     		mov	r7, r8
 592 0004 80B4     		push	{r7}
 593              		.cfi_def_cfa_offset 24
 594              		.cfi_offset 8, -24
 177:.\herkulex2.c ****     pSize = 0x0A;
 595              		.loc 1 177 0
 596 0006 1B4A     		ldr	r2, .L33
 597 0008 9046     		mov	r8, r2
 598 000a 0A23     		mov	r3, #10
 599 000c 1370     		strb	r3, [r2]
 178:.\herkulex2.c ****     pID = servoID;
 600              		.loc 1 178 0
 601 000e 1A4F     		ldr	r7, .L33+4
 602 0010 3870     		strb	r0, [r7]
 179:.\herkulex2.c ****     cmd = RAM_WRITE;
 603              		.loc 1 179 0
 604 0012 1A4E     		ldr	r6, .L33+8
 605 0014 0323     		mov	r3, #3
 606 0016 3370     		strb	r3, [r6]
 180:.\herkulex2.c ****     data[0] = 0x34;
 607              		.loc 1 180 0
 608 0018 194C     		ldr	r4, .L33+12
 609 001a 3422     		mov	r2, #52
ARM GAS  C:\Users\EDTRIC~1\AppData\Local\Temp\ccbcYoXT.s 			page 15


 610 001c 2270     		strb	r2, [r4]
 181:.\herkulex2.c ****     data[1] = 0x01;
 611              		.loc 1 181 0
 612 001e 0122     		mov	r2, #1
 613 0020 6270     		strb	r2, [r4, #1]
 182:.\herkulex2.c ****     data[2] = 0x60;
 614              		.loc 1 182 0
 615 0022 6022     		mov	r2, #96
 616 0024 A270     		strb	r2, [r4, #2]
 183:.\herkulex2.c ****     lengthString = 3;
 617              		.loc 1 183 0
 618 0026 174A     		ldr	r2, .L33+16
 619 0028 1370     		strb	r3, [r2]
 184:.\herkulex2.c ****     
 185:.\herkulex2.c ****     ck1 = checksum1( data , lengthString );
 620              		.loc 1 185 0
 621 002a 201C     		mov	r0, r4
 622              	.LVL54:
 623 002c 0321     		mov	r1, #3
 624 002e FFF7FEFF 		bl	checksum1
 625              	.LVL55:
 626 0032 051C     		mov	r5, r0
 627 0034 144B     		ldr	r3, .L33+20
 628 0036 1870     		strb	r0, [r3]
 186:.\herkulex2.c ****     ck2 = checksum2( ck1 );
 629              		.loc 1 186 0
 630 0038 FFF7FEFF 		bl	checksum2
 631              	.LVL56:
 632 003c 134B     		ldr	r3, .L33+24
 633 003e 1870     		strb	r0, [r3]
 187:.\herkulex2.c ****     
 188:.\herkulex2.c ****     dataEx[0] = HEADER;
 634              		.loc 1 188 0
 635 0040 134B     		ldr	r3, .L33+28
 636 0042 FF22     		mov	r2, #255
 637 0044 1A70     		strb	r2, [r3]
 189:.\herkulex2.c ****     dataEx[1] = HEADER;
 638              		.loc 1 189 0
 639 0046 5A70     		strb	r2, [r3, #1]
 190:.\herkulex2.c ****     dataEx[2] = pSize;
 640              		.loc 1 190 0
 641 0048 4246     		mov	r2, r8
 642 004a 1178     		ldrb	r1, [r2]
 643 004c 9970     		strb	r1, [r3, #2]
 191:.\herkulex2.c ****     dataEx[3] = pID;
 644              		.loc 1 191 0
 645 004e 3A78     		ldrb	r2, [r7]
 646 0050 DA70     		strb	r2, [r3, #3]
 192:.\herkulex2.c ****     dataEx[4] = cmd;
 647              		.loc 1 192 0
 648 0052 3278     		ldrb	r2, [r6]
 649 0054 1A71     		strb	r2, [r3, #4]
 193:.\herkulex2.c ****     dataEx[5] = ck1;
 650              		.loc 1 193 0
 651 0056 5D71     		strb	r5, [r3, #5]
 194:.\herkulex2.c ****     dataEx[6] = ck2;
 652              		.loc 1 194 0
ARM GAS  C:\Users\EDTRIC~1\AppData\Local\Temp\ccbcYoXT.s 			page 16


 653 0058 9871     		strb	r0, [r3, #6]
 195:.\herkulex2.c ****     dataEx[7] = data[0];
 654              		.loc 1 195 0
 655 005a 2278     		ldrb	r2, [r4]
 656 005c DA71     		strb	r2, [r3, #7]
 196:.\herkulex2.c ****     dataEx[8] = data[1];
 657              		.loc 1 196 0
 658 005e 6278     		ldrb	r2, [r4, #1]
 659 0060 1A72     		strb	r2, [r3, #8]
 197:.\herkulex2.c ****     dataEx[9] = data[2];
 660              		.loc 1 197 0
 661 0062 A278     		ldrb	r2, [r4, #2]
 662 0064 5A72     		strb	r2, [r3, #9]
 198:.\herkulex2.c ****     
 199:.\herkulex2.c ****     sendData( dataEx , pSize );
 663              		.loc 1 199 0
 664 0066 181C     		mov	r0, r3
 665 0068 FFF7FEFF 		bl	sendData
 666              	.LVL57:
 200:.\herkulex2.c **** }
 667              		.loc 1 200 0
 668              		@ sp needed
 669 006c 04BC     		pop	{r2}
 670 006e 9046     		mov	r8, r2
 671 0070 F0BD     		pop	{r4, r5, r6, r7, pc}
 672              	.L34:
 673 0072 C046     		.align	2
 674              	.L33:
 675 0074 00000000 		.word	pSize
 676 0078 00000000 		.word	pID
 677 007c 00000000 		.word	cmd
 678 0080 00000000 		.word	data
 679 0084 00000000 		.word	lengthString
 680 0088 00000000 		.word	ck1
 681 008c 00000000 		.word	ck2
 682 0090 00000000 		.word	dataEx
 683              		.cfi_endproc
 684              	.LFE42:
 685              		.size	Servo_torqueON, .-Servo_torqueON
 686              		.section	.text.Servo_torqueOFF,"ax",%progbits
 687              		.align	2
 688              		.global	Servo_torqueOFF
 689              		.code	16
 690              		.thumb_func
 691              		.type	Servo_torqueOFF, %function
 692              	Servo_torqueOFF:
 693              	.LFB43:
 201:.\herkulex2.c **** 
 202:.\herkulex2.c **** void Servo_torqueOFF( uint8 servoID )
 203:.\herkulex2.c **** {
 694              		.loc 1 203 0
 695              		.cfi_startproc
 696              	.LVL58:
 697 0000 F0B5     		push	{r4, r5, r6, r7, lr}
 698              		.cfi_def_cfa_offset 20
 699              		.cfi_offset 4, -20
 700              		.cfi_offset 5, -16
ARM GAS  C:\Users\EDTRIC~1\AppData\Local\Temp\ccbcYoXT.s 			page 17


 701              		.cfi_offset 6, -12
 702              		.cfi_offset 7, -8
 703              		.cfi_offset 14, -4
 704 0002 4746     		mov	r7, r8
 705 0004 80B4     		push	{r7}
 706              		.cfi_def_cfa_offset 24
 707              		.cfi_offset 8, -24
 204:.\herkulex2.c ****     pSize = 0x0A;
 708              		.loc 1 204 0
 709 0006 1B4A     		ldr	r2, .L36
 710 0008 9046     		mov	r8, r2
 711 000a 0A23     		mov	r3, #10
 712 000c 1370     		strb	r3, [r2]
 205:.\herkulex2.c ****     pID = servoID;
 713              		.loc 1 205 0
 714 000e 1A4F     		ldr	r7, .L36+4
 715 0010 3870     		strb	r0, [r7]
 206:.\herkulex2.c ****     cmd = RAM_WRITE;
 716              		.loc 1 206 0
 717 0012 1A4E     		ldr	r6, .L36+8
 718 0014 0323     		mov	r3, #3
 719 0016 3370     		strb	r3, [r6]
 207:.\herkulex2.c ****     data[0] = 0x34;
 720              		.loc 1 207 0
 721 0018 194C     		ldr	r4, .L36+12
 722 001a 3422     		mov	r2, #52
 723 001c 2270     		strb	r2, [r4]
 208:.\herkulex2.c ****     data[1] = 0x01;
 724              		.loc 1 208 0
 725 001e 0122     		mov	r2, #1
 726 0020 6270     		strb	r2, [r4, #1]
 209:.\herkulex2.c ****     data[2] = 0x00;
 727              		.loc 1 209 0
 728 0022 0022     		mov	r2, #0
 729 0024 A270     		strb	r2, [r4, #2]
 210:.\herkulex2.c ****     lengthString = 3;
 730              		.loc 1 210 0
 731 0026 174A     		ldr	r2, .L36+16
 732 0028 1370     		strb	r3, [r2]
 211:.\herkulex2.c ****     
 212:.\herkulex2.c ****     ck1 = checksum1( data , lengthString );
 733              		.loc 1 212 0
 734 002a 201C     		mov	r0, r4
 735              	.LVL59:
 736 002c 0321     		mov	r1, #3
 737 002e FFF7FEFF 		bl	checksum1
 738              	.LVL60:
 739 0032 051C     		mov	r5, r0
 740 0034 144B     		ldr	r3, .L36+20
 741 0036 1870     		strb	r0, [r3]
 213:.\herkulex2.c ****     ck2 = checksum2( ck1 );
 742              		.loc 1 213 0
 743 0038 FFF7FEFF 		bl	checksum2
 744              	.LVL61:
 745 003c 134B     		ldr	r3, .L36+24
 746 003e 1870     		strb	r0, [r3]
 214:.\herkulex2.c ****     
ARM GAS  C:\Users\EDTRIC~1\AppData\Local\Temp\ccbcYoXT.s 			page 18


 215:.\herkulex2.c ****     dataEx[0] = HEADER;
 747              		.loc 1 215 0
 748 0040 134B     		ldr	r3, .L36+28
 749 0042 FF22     		mov	r2, #255
 750 0044 1A70     		strb	r2, [r3]
 216:.\herkulex2.c ****     dataEx[1] = HEADER;
 751              		.loc 1 216 0
 752 0046 5A70     		strb	r2, [r3, #1]
 217:.\herkulex2.c ****     dataEx[2] = pSize;
 753              		.loc 1 217 0
 754 0048 4246     		mov	r2, r8
 755 004a 1178     		ldrb	r1, [r2]
 756 004c 9970     		strb	r1, [r3, #2]
 218:.\herkulex2.c ****     dataEx[3] = pID;
 757              		.loc 1 218 0
 758 004e 3A78     		ldrb	r2, [r7]
 759 0050 DA70     		strb	r2, [r3, #3]
 219:.\herkulex2.c ****     dataEx[4] = cmd;
 760              		.loc 1 219 0
 761 0052 3278     		ldrb	r2, [r6]
 762 0054 1A71     		strb	r2, [r3, #4]
 220:.\herkulex2.c ****     dataEx[5] = ck1;
 763              		.loc 1 220 0
 764 0056 5D71     		strb	r5, [r3, #5]
 221:.\herkulex2.c ****     dataEx[6] = ck2;
 765              		.loc 1 221 0
 766 0058 9871     		strb	r0, [r3, #6]
 222:.\herkulex2.c ****     dataEx[7] = data[0];
 767              		.loc 1 222 0
 768 005a 2278     		ldrb	r2, [r4]
 769 005c DA71     		strb	r2, [r3, #7]
 223:.\herkulex2.c ****     dataEx[8] = data[1];
 770              		.loc 1 223 0
 771 005e 6278     		ldrb	r2, [r4, #1]
 772 0060 1A72     		strb	r2, [r3, #8]
 224:.\herkulex2.c ****     dataEx[9] = data[2];
 773              		.loc 1 224 0
 774 0062 A278     		ldrb	r2, [r4, #2]
 775 0064 5A72     		strb	r2, [r3, #9]
 225:.\herkulex2.c ****     
 226:.\herkulex2.c ****     sendData( dataEx , pSize );
 776              		.loc 1 226 0
 777 0066 181C     		mov	r0, r3
 778 0068 FFF7FEFF 		bl	sendData
 779              	.LVL62:
 227:.\herkulex2.c **** }
 780              		.loc 1 227 0
 781              		@ sp needed
 782 006c 04BC     		pop	{r2}
 783 006e 9046     		mov	r8, r2
 784 0070 F0BD     		pop	{r4, r5, r6, r7, pc}
 785              	.L37:
 786 0072 C046     		.align	2
 787              	.L36:
 788 0074 00000000 		.word	pSize
 789 0078 00000000 		.word	pID
 790 007c 00000000 		.word	cmd
ARM GAS  C:\Users\EDTRIC~1\AppData\Local\Temp\ccbcYoXT.s 			page 19


 791 0080 00000000 		.word	data
 792 0084 00000000 		.word	lengthString
 793 0088 00000000 		.word	ck1
 794 008c 00000000 		.word	ck2
 795 0090 00000000 		.word	dataEx
 796              		.cfi_endproc
 797              	.LFE43:
 798              		.size	Servo_torqueOFF, .-Servo_torqueOFF
 799              		.section	.text.Servo_ACK,"ax",%progbits
 800              		.align	2
 801              		.global	Servo_ACK
 802              		.code	16
 803              		.thumb_func
 804              		.type	Servo_ACK, %function
 805              	Servo_ACK:
 806              	.LFB44:
 228:.\herkulex2.c **** 
 229:.\herkulex2.c **** void Servo_ACK( uint8 valueACK )
 230:.\herkulex2.c **** {
 807              		.loc 1 230 0
 808              		.cfi_startproc
 809              	.LVL63:
 810 0000 F0B5     		push	{r4, r5, r6, r7, lr}
 811              		.cfi_def_cfa_offset 20
 812              		.cfi_offset 4, -20
 813              		.cfi_offset 5, -16
 814              		.cfi_offset 6, -12
 815              		.cfi_offset 7, -8
 816              		.cfi_offset 14, -4
 817 0002 4746     		mov	r7, r8
 818 0004 80B4     		push	{r7}
 819              		.cfi_def_cfa_offset 24
 820              		.cfi_offset 8, -24
 231:.\herkulex2.c ****     pSize = 0x0A;
 821              		.loc 1 231 0
 822 0006 1B4A     		ldr	r2, .L39
 823 0008 9046     		mov	r8, r2
 824 000a 0A23     		mov	r3, #10
 825 000c 1370     		strb	r3, [r2]
 232:.\herkulex2.c ****     pID = PIDALL;
 826              		.loc 1 232 0
 827 000e 1A4F     		ldr	r7, .L39+4
 828 0010 FE23     		mov	r3, #254
 829 0012 3B70     		strb	r3, [r7]
 233:.\herkulex2.c ****     cmd = RAM_WRITE;
 830              		.loc 1 233 0
 831 0014 194E     		ldr	r6, .L39+8
 832 0016 0323     		mov	r3, #3
 833 0018 3370     		strb	r3, [r6]
 234:.\herkulex2.c ****     data[0] = 0x34;
 834              		.loc 1 234 0
 835 001a 194C     		ldr	r4, .L39+12
 836 001c 3422     		mov	r2, #52
 837 001e 2270     		strb	r2, [r4]
 235:.\herkulex2.c ****     data[1] = 0x01;
 838              		.loc 1 235 0
 839 0020 0122     		mov	r2, #1
ARM GAS  C:\Users\EDTRIC~1\AppData\Local\Temp\ccbcYoXT.s 			page 20


 840 0022 6270     		strb	r2, [r4, #1]
 236:.\herkulex2.c ****     data[2] = valueACK;
 841              		.loc 1 236 0
 842 0024 A070     		strb	r0, [r4, #2]
 237:.\herkulex2.c ****     lengthString = 3;
 843              		.loc 1 237 0
 844 0026 174A     		ldr	r2, .L39+16
 845 0028 1370     		strb	r3, [r2]
 238:.\herkulex2.c ****     
 239:.\herkulex2.c ****     ck1 = checksum1( data , lengthString );
 846              		.loc 1 239 0
 847 002a 201C     		mov	r0, r4
 848              	.LVL64:
 849 002c 0321     		mov	r1, #3
 850 002e FFF7FEFF 		bl	checksum1
 851              	.LVL65:
 852 0032 051C     		mov	r5, r0
 853 0034 144B     		ldr	r3, .L39+20
 854 0036 1870     		strb	r0, [r3]
 240:.\herkulex2.c ****     ck2 = checksum2( ck1 );
 855              		.loc 1 240 0
 856 0038 FFF7FEFF 		bl	checksum2
 857              	.LVL66:
 858 003c 134B     		ldr	r3, .L39+24
 859 003e 1870     		strb	r0, [r3]
 241:.\herkulex2.c ****     
 242:.\herkulex2.c ****     dataEx[0] = HEADER;
 860              		.loc 1 242 0
 861 0040 134B     		ldr	r3, .L39+28
 862 0042 FF22     		mov	r2, #255
 863 0044 1A70     		strb	r2, [r3]
 243:.\herkulex2.c ****     dataEx[1] = HEADER;
 864              		.loc 1 243 0
 865 0046 5A70     		strb	r2, [r3, #1]
 244:.\herkulex2.c ****     dataEx[2] = pSize;
 866              		.loc 1 244 0
 867 0048 4246     		mov	r2, r8
 868 004a 1178     		ldrb	r1, [r2]
 869 004c 9970     		strb	r1, [r3, #2]
 245:.\herkulex2.c ****     dataEx[3] = pID;
 870              		.loc 1 245 0
 871 004e 3A78     		ldrb	r2, [r7]
 872 0050 DA70     		strb	r2, [r3, #3]
 246:.\herkulex2.c ****     dataEx[4] = cmd;
 873              		.loc 1 246 0
 874 0052 3278     		ldrb	r2, [r6]
 875 0054 1A71     		strb	r2, [r3, #4]
 247:.\herkulex2.c ****     dataEx[5] = ck1;
 876              		.loc 1 247 0
 877 0056 5D71     		strb	r5, [r3, #5]
 248:.\herkulex2.c ****     dataEx[6] = ck2;
 878              		.loc 1 248 0
 879 0058 9871     		strb	r0, [r3, #6]
 249:.\herkulex2.c ****     dataEx[7] = data[0];
 880              		.loc 1 249 0
 881 005a 2278     		ldrb	r2, [r4]
 882 005c DA71     		strb	r2, [r3, #7]
ARM GAS  C:\Users\EDTRIC~1\AppData\Local\Temp\ccbcYoXT.s 			page 21


 250:.\herkulex2.c ****     dataEx[8] = data[1];
 883              		.loc 1 250 0
 884 005e 6278     		ldrb	r2, [r4, #1]
 885 0060 1A72     		strb	r2, [r3, #8]
 251:.\herkulex2.c ****     dataEx[9] = data[2];
 886              		.loc 1 251 0
 887 0062 A278     		ldrb	r2, [r4, #2]
 888 0064 5A72     		strb	r2, [r3, #9]
 252:.\herkulex2.c ****     
 253:.\herkulex2.c ****     sendData( dataEx , pSize );    
 889              		.loc 1 253 0
 890 0066 181C     		mov	r0, r3
 891 0068 FFF7FEFF 		bl	sendData
 892              	.LVL67:
 254:.\herkulex2.c **** }
 893              		.loc 1 254 0
 894              		@ sp needed
 895 006c 04BC     		pop	{r2}
 896 006e 9046     		mov	r8, r2
 897 0070 F0BD     		pop	{r4, r5, r6, r7, pc}
 898              	.L40:
 899 0072 C046     		.align	2
 900              	.L39:
 901 0074 00000000 		.word	pSize
 902 0078 00000000 		.word	pID
 903 007c 00000000 		.word	cmd
 904 0080 00000000 		.word	data
 905 0084 00000000 		.word	lengthString
 906 0088 00000000 		.word	ck1
 907 008c 00000000 		.word	ck2
 908 0090 00000000 		.word	dataEx
 909              		.cfi_endproc
 910              	.LFE44:
 911              		.size	Servo_ACK, .-Servo_ACK
 912              		.section	.text.Servo_model,"ax",%progbits
 913              		.align	2
 914              		.global	Servo_model
 915              		.code	16
 916              		.thumb_func
 917              		.type	Servo_model, %function
 918              	Servo_model:
 919              	.LFB45:
 255:.\herkulex2.c **** 
 256:.\herkulex2.c **** uint8 Servo_model( void )
 257:.\herkulex2.c **** {
 920              		.loc 1 257 0
 921              		.cfi_startproc
 922 0000 F8B5     		push	{r3, r4, r5, r6, r7, lr}
 923              		.cfi_def_cfa_offset 24
 924              		.cfi_offset 3, -24
 925              		.cfi_offset 4, -20
 926              		.cfi_offset 5, -16
 927              		.cfi_offset 6, -12
 928              		.cfi_offset 7, -8
 929              		.cfi_offset 14, -4
 930 0002 5F46     		mov	r7, fp
 931 0004 5646     		mov	r6, r10
ARM GAS  C:\Users\EDTRIC~1\AppData\Local\Temp\ccbcYoXT.s 			page 22


 932 0006 4D46     		mov	r5, r9
 933 0008 4446     		mov	r4, r8
 934 000a F0B4     		push	{r4, r5, r6, r7}
 935              		.cfi_def_cfa_offset 40
 936              		.cfi_offset 8, -40
 937              		.cfi_offset 9, -36
 938              		.cfi_offset 10, -32
 939              		.cfi_offset 11, -28
 258:.\herkulex2.c ****     pSize = 0x09;
 940              		.loc 1 258 0
 941 000c 314A     		ldr	r2, .L45
 942 000e 9046     		mov	r8, r2
 943 0010 0923     		mov	r3, #9
 944 0012 1370     		strb	r3, [r2]
 259:.\herkulex2.c ****     pID = PIDALL;
 945              		.loc 1 259 0
 946 0014 304F     		ldr	r7, .L45+4
 947 0016 FE23     		mov	r3, #254
 948 0018 3B70     		strb	r3, [r7]
 260:.\herkulex2.c ****     cmd = EEP_READ;
 949              		.loc 1 260 0
 950 001a 304E     		ldr	r6, .L45+8
 951 001c 0223     		mov	r3, #2
 952 001e 3370     		strb	r3, [r6]
 261:.\herkulex2.c ****     data[0] = 0x00;
 953              		.loc 1 261 0
 954 0020 2F4D     		ldr	r5, .L45+12
 955 0022 0022     		mov	r2, #0
 956 0024 2A70     		strb	r2, [r5]
 262:.\herkulex2.c ****     data[1] = 0x01;
 957              		.loc 1 262 0
 958 0026 0122     		mov	r2, #1
 959 0028 9346     		mov	fp, r2
 960 002a 6A70     		strb	r2, [r5, #1]
 263:.\herkulex2.c ****     lengthString = 2;
 961              		.loc 1 263 0
 962 002c 2D4A     		ldr	r2, .L45+16
 963 002e 9246     		mov	r10, r2
 964 0030 1370     		strb	r3, [r2]
 264:.\herkulex2.c ****     
 265:.\herkulex2.c ****     ck1 = checksum1( data , lengthString );
 965              		.loc 1 265 0
 966 0032 281C     		mov	r0, r5
 967 0034 0221     		mov	r1, #2
 968 0036 FFF7FEFF 		bl	checksum1
 969              	.LVL68:
 970 003a 8146     		mov	r9, r0
 971 003c 2A4B     		ldr	r3, .L45+20
 972 003e 1870     		strb	r0, [r3]
 266:.\herkulex2.c ****     ck2 = checksum2( ck1 );
 973              		.loc 1 266 0
 974 0040 FFF7FEFF 		bl	checksum2
 975              	.LVL69:
 976 0044 294B     		ldr	r3, .L45+24
 977 0046 1870     		strb	r0, [r3]
 267:.\herkulex2.c ****     
 268:.\herkulex2.c ****     dataEx[0] = HEADER;
ARM GAS  C:\Users\EDTRIC~1\AppData\Local\Temp\ccbcYoXT.s 			page 23


 978              		.loc 1 268 0
 979 0048 294C     		ldr	r4, .L45+28
 980 004a FF23     		mov	r3, #255
 981 004c 2370     		strb	r3, [r4]
 269:.\herkulex2.c ****     dataEx[1] = HEADER;
 982              		.loc 1 269 0
 983 004e 6370     		strb	r3, [r4, #1]
 270:.\herkulex2.c ****     dataEx[2] = pSize;
 984              		.loc 1 270 0
 985 0050 4246     		mov	r2, r8
 986 0052 1178     		ldrb	r1, [r2]
 987 0054 A170     		strb	r1, [r4, #2]
 271:.\herkulex2.c ****     dataEx[3] = pID;
 988              		.loc 1 271 0
 989 0056 3B78     		ldrb	r3, [r7]
 990 0058 E370     		strb	r3, [r4, #3]
 272:.\herkulex2.c ****     dataEx[4] = cmd;
 991              		.loc 1 272 0
 992 005a 3378     		ldrb	r3, [r6]
 993 005c 2371     		strb	r3, [r4, #4]
 273:.\herkulex2.c ****     dataEx[5] = ck1;
 994              		.loc 1 273 0
 995 005e 4B46     		mov	r3, r9
 996 0060 6371     		strb	r3, [r4, #5]
 274:.\herkulex2.c ****     dataEx[6] = ck2;
 997              		.loc 1 274 0
 998 0062 A071     		strb	r0, [r4, #6]
 275:.\herkulex2.c ****     dataEx[7] = data[0];
 999              		.loc 1 275 0
 1000 0064 2B78     		ldrb	r3, [r5]
 1001 0066 E371     		strb	r3, [r4, #7]
 276:.\herkulex2.c ****     dataEx[8] = data[1];
 1002              		.loc 1 276 0
 1003 0068 6B78     		ldrb	r3, [r5, #1]
 1004 006a 2372     		strb	r3, [r4, #8]
 277:.\herkulex2.c ****     
 278:.\herkulex2.c ****     sendData( dataEx , pSize );
 1005              		.loc 1 278 0
 1006 006c 201C     		mov	r0, r4
 1007 006e FFF7FEFF 		bl	sendData
 1008              	.LVL70:
 279:.\herkulex2.c ****     CyDelay(5);
 1009              		.loc 1 279 0
 1010 0072 0520     		mov	r0, #5
 1011 0074 FFF7FEFF 		bl	CyDelay
 1012              	.LVL71:
 280:.\herkulex2.c ****     readData(9);
 1013              		.loc 1 280 0
 1014 0078 0920     		mov	r0, #9
 1015 007a FFF7FEFF 		bl	readData
 1016              	.LVL72:
 281:.\herkulex2.c ****     
 282:.\herkulex2.c ****     pSize = dataEx[2];
 1017              		.loc 1 282 0
 1018 007e A378     		ldrb	r3, [r4, #2]
 1019 0080 4246     		mov	r2, r8
 1020 0082 1370     		strb	r3, [r2]
ARM GAS  C:\Users\EDTRIC~1\AppData\Local\Temp\ccbcYoXT.s 			page 24


 283:.\herkulex2.c ****     pID = dataEx[3];
 1021              		.loc 1 283 0
 1022 0084 E378     		ldrb	r3, [r4, #3]
 1023 0086 3B70     		strb	r3, [r7]
 284:.\herkulex2.c ****     cmd = dataEx[4];
 1024              		.loc 1 284 0
 1025 0088 2379     		ldrb	r3, [r4, #4]
 1026 008a 3370     		strb	r3, [r6]
 285:.\herkulex2.c ****     data[0] = data[7];
 1027              		.loc 1 285 0
 1028 008c EB79     		ldrb	r3, [r5, #7]
 1029 008e 2B70     		strb	r3, [r5]
 286:.\herkulex2.c ****     lengthString = 1;
 1030              		.loc 1 286 0
 1031 0090 5A46     		mov	r2, fp
 1032 0092 5346     		mov	r3, r10
 1033 0094 1A70     		strb	r2, [r3]
 287:.\herkulex2.c ****     
 288:.\herkulex2.c ****     ck1 = checksum1( data , lengthString );
 1034              		.loc 1 288 0
 1035 0096 281C     		mov	r0, r5
 1036 0098 0121     		mov	r1, #1
 1037 009a FFF7FEFF 		bl	checksum1
 1038              	.LVL73:
 1039 009e 051C     		mov	r5, r0
 1040 00a0 114B     		ldr	r3, .L45+20
 1041 00a2 1870     		strb	r0, [r3]
 289:.\herkulex2.c ****     ck2 = checksum2( ck1 );
 1042              		.loc 1 289 0
 1043 00a4 FFF7FEFF 		bl	checksum2
 1044              	.LVL74:
 1045 00a8 104B     		ldr	r3, .L45+24
 1046 00aa 1870     		strb	r0, [r3]
 290:.\herkulex2.c ****     
 291:.\herkulex2.c ****     if( ck1 != dataEx[5] ) return -1;
 1047              		.loc 1 291 0
 1048 00ac 6379     		ldrb	r3, [r4, #5]
 1049 00ae 9D42     		cmp	r5, r3
 1050 00b0 06D1     		bne	.L43
 292:.\herkulex2.c ****     if( ck2 != dataEx[6] ) return -2;
 1051              		.loc 1 292 0
 1052 00b2 0F4B     		ldr	r3, .L45+28
 1053 00b4 9B79     		ldrb	r3, [r3, #6]
 1054 00b6 9842     		cmp	r0, r3
 1055 00b8 04D1     		bne	.L44
 293:.\herkulex2.c ****     
 294:.\herkulex2.c ****     return dataEx[7];
 1056              		.loc 1 294 0
 1057 00ba 0D4B     		ldr	r3, .L45+28
 1058 00bc D879     		ldrb	r0, [r3, #7]
 1059 00be 02E0     		b	.L42
 1060              	.L43:
 291:.\herkulex2.c ****     if( ck1 != dataEx[5] ) return -1;
 1061              		.loc 1 291 0
 1062 00c0 FF20     		mov	r0, #255
 1063 00c2 00E0     		b	.L42
 1064              	.L44:
ARM GAS  C:\Users\EDTRIC~1\AppData\Local\Temp\ccbcYoXT.s 			page 25


 292:.\herkulex2.c ****     if( ck2 != dataEx[6] ) return -2;
 1065              		.loc 1 292 0
 1066 00c4 FE20     		mov	r0, #254
 1067              	.L42:
 295:.\herkulex2.c **** }
 1068              		.loc 1 295 0
 1069              		@ sp needed
 1070 00c6 3CBC     		pop	{r2, r3, r4, r5}
 1071 00c8 9046     		mov	r8, r2
 1072 00ca 9946     		mov	r9, r3
 1073 00cc A246     		mov	r10, r4
 1074 00ce AB46     		mov	fp, r5
 1075 00d0 F8BD     		pop	{r3, r4, r5, r6, r7, pc}
 1076              	.L46:
 1077 00d2 C046     		.align	2
 1078              	.L45:
 1079 00d4 00000000 		.word	pSize
 1080 00d8 00000000 		.word	pID
 1081 00dc 00000000 		.word	cmd
 1082 00e0 00000000 		.word	data
 1083 00e4 00000000 		.word	lengthString
 1084 00e8 00000000 		.word	ck1
 1085 00ec 00000000 		.word	ck2
 1086 00f0 00000000 		.word	dataEx
 1087              		.cfi_endproc
 1088              	.LFE45:
 1089              		.size	Servo_model, .-Servo_model
 1090              		.section	.text.Servo_setID,"ax",%progbits
 1091              		.align	2
 1092              		.global	Servo_setID
 1093              		.code	16
 1094              		.thumb_func
 1095              		.type	Servo_setID, %function
 1096              	Servo_setID:
 1097              	.LFB46:
 296:.\herkulex2.c **** 
 297:.\herkulex2.c **** void Servo_setID( uint8 oldID , uint8 newID )
 298:.\herkulex2.c **** {
 1098              		.loc 1 298 0
 1099              		.cfi_startproc
 1100              	.LVL75:
 1101 0000 F0B5     		push	{r4, r5, r6, r7, lr}
 1102              		.cfi_def_cfa_offset 20
 1103              		.cfi_offset 4, -20
 1104              		.cfi_offset 5, -16
 1105              		.cfi_offset 6, -12
 1106              		.cfi_offset 7, -8
 1107              		.cfi_offset 14, -4
 1108 0002 4746     		mov	r7, r8
 1109 0004 80B4     		push	{r7}
 1110              		.cfi_def_cfa_offset 24
 1111              		.cfi_offset 8, -24
 299:.\herkulex2.c ****     pSize = 0x0A;
 1112              		.loc 1 299 0
 1113 0006 1A4A     		ldr	r2, .L48
 1114 0008 9046     		mov	r8, r2
 1115 000a 0A23     		mov	r3, #10
ARM GAS  C:\Users\EDTRIC~1\AppData\Local\Temp\ccbcYoXT.s 			page 26


 1116 000c 1370     		strb	r3, [r2]
 300:.\herkulex2.c ****     pID = oldID;
 1117              		.loc 1 300 0
 1118 000e 194F     		ldr	r7, .L48+4
 1119 0010 3870     		strb	r0, [r7]
 301:.\herkulex2.c ****     cmd = EEP_WRITE;
 1120              		.loc 1 301 0
 1121 0012 194E     		ldr	r6, .L48+8
 1122 0014 0123     		mov	r3, #1
 1123 0016 3370     		strb	r3, [r6]
 302:.\herkulex2.c ****     data[0] = 0x06;
 1124              		.loc 1 302 0
 1125 0018 184C     		ldr	r4, .L48+12
 1126 001a 0622     		mov	r2, #6
 1127 001c 2270     		strb	r2, [r4]
 303:.\herkulex2.c ****     data[1] = 0x01;
 1128              		.loc 1 303 0
 1129 001e 6370     		strb	r3, [r4, #1]
 304:.\herkulex2.c ****     data[2] = newID;
 1130              		.loc 1 304 0
 1131 0020 A170     		strb	r1, [r4, #2]
 305:.\herkulex2.c ****     lengthString = 3;
 1132              		.loc 1 305 0
 1133 0022 0322     		mov	r2, #3
 1134 0024 164B     		ldr	r3, .L48+16
 1135 0026 1A70     		strb	r2, [r3]
 306:.\herkulex2.c ****     
 307:.\herkulex2.c ****     ck1 = checksum1( data , lengthString );
 1136              		.loc 1 307 0
 1137 0028 201C     		mov	r0, r4
 1138              	.LVL76:
 1139 002a 0321     		mov	r1, #3
 1140              	.LVL77:
 1141 002c FFF7FEFF 		bl	checksum1
 1142              	.LVL78:
 1143 0030 051C     		mov	r5, r0
 1144 0032 144B     		ldr	r3, .L48+20
 1145 0034 1870     		strb	r0, [r3]
 308:.\herkulex2.c ****     ck2 = checksum2( ck1 );
 1146              		.loc 1 308 0
 1147 0036 FFF7FEFF 		bl	checksum2
 1148              	.LVL79:
 1149 003a 134B     		ldr	r3, .L48+24
 1150 003c 1870     		strb	r0, [r3]
 309:.\herkulex2.c ****     
 310:.\herkulex2.c ****     dataEx[0] = HEADER;
 1151              		.loc 1 310 0
 1152 003e 134B     		ldr	r3, .L48+28
 1153 0040 FF22     		mov	r2, #255
 1154 0042 1A70     		strb	r2, [r3]
 311:.\herkulex2.c ****     dataEx[1] = HEADER;
 1155              		.loc 1 311 0
 1156 0044 5A70     		strb	r2, [r3, #1]
 312:.\herkulex2.c ****     dataEx[2] = pSize;
 1157              		.loc 1 312 0
 1158 0046 4246     		mov	r2, r8
 1159 0048 1178     		ldrb	r1, [r2]
ARM GAS  C:\Users\EDTRIC~1\AppData\Local\Temp\ccbcYoXT.s 			page 27


 1160 004a 9970     		strb	r1, [r3, #2]
 313:.\herkulex2.c ****     dataEx[3] = pID;
 1161              		.loc 1 313 0
 1162 004c 3A78     		ldrb	r2, [r7]
 1163 004e DA70     		strb	r2, [r3, #3]
 314:.\herkulex2.c ****     dataEx[4] = cmd;
 1164              		.loc 1 314 0
 1165 0050 3278     		ldrb	r2, [r6]
 1166 0052 1A71     		strb	r2, [r3, #4]
 315:.\herkulex2.c ****     dataEx[5] = ck1;
 1167              		.loc 1 315 0
 1168 0054 5D71     		strb	r5, [r3, #5]
 316:.\herkulex2.c ****     dataEx[6] = ck2;
 1169              		.loc 1 316 0
 1170 0056 9871     		strb	r0, [r3, #6]
 317:.\herkulex2.c ****     dataEx[7] = data[0];
 1171              		.loc 1 317 0
 1172 0058 2278     		ldrb	r2, [r4]
 1173 005a DA71     		strb	r2, [r3, #7]
 318:.\herkulex2.c ****     dataEx[8] = data[1];
 1174              		.loc 1 318 0
 1175 005c 6278     		ldrb	r2, [r4, #1]
 1176 005e 1A72     		strb	r2, [r3, #8]
 319:.\herkulex2.c ****     dataEx[9] = data[2];
 1177              		.loc 1 319 0
 1178 0060 A278     		ldrb	r2, [r4, #2]
 1179 0062 5A72     		strb	r2, [r3, #9]
 320:.\herkulex2.c ****     
 321:.\herkulex2.c ****     sendData( dataEx , pSize );
 1180              		.loc 1 321 0
 1181 0064 181C     		mov	r0, r3
 1182 0066 FFF7FEFF 		bl	sendData
 1183              	.LVL80:
 322:.\herkulex2.c **** }
 1184              		.loc 1 322 0
 1185              		@ sp needed
 1186 006a 04BC     		pop	{r2}
 1187 006c 9046     		mov	r8, r2
 1188 006e F0BD     		pop	{r4, r5, r6, r7, pc}
 1189              	.L49:
 1190              		.align	2
 1191              	.L48:
 1192 0070 00000000 		.word	pSize
 1193 0074 00000000 		.word	pID
 1194 0078 00000000 		.word	cmd
 1195 007c 00000000 		.word	data
 1196 0080 00000000 		.word	lengthString
 1197 0084 00000000 		.word	ck1
 1198 0088 00000000 		.word	ck2
 1199 008c 00000000 		.word	dataEx
 1200              		.cfi_endproc
 1201              	.LFE46:
 1202              		.size	Servo_setID, .-Servo_setID
 1203              		.section	.text.Servo_resetID,"ax",%progbits
 1204              		.align	2
 1205              		.global	Servo_resetID
 1206              		.code	16
ARM GAS  C:\Users\EDTRIC~1\AppData\Local\Temp\ccbcYoXT.s 			page 28


 1207              		.thumb_func
 1208              		.type	Servo_resetID, %function
 1209              	Servo_resetID:
 1210              	.LFB47:
 323:.\herkulex2.c **** 
 324:.\herkulex2.c **** void Servo_resetID ( void )
 325:.\herkulex2.c **** {
 1211              		.loc 1 325 0
 1212              		.cfi_startproc
 1213 0000 F8B5     		push	{r3, r4, r5, r6, r7, lr}
 1214              		.cfi_def_cfa_offset 24
 1215              		.cfi_offset 3, -24
 1216              		.cfi_offset 4, -20
 1217              		.cfi_offset 5, -16
 1218              		.cfi_offset 6, -12
 1219              		.cfi_offset 7, -8
 1220              		.cfi_offset 14, -4
 1221 0002 4F46     		mov	r7, r9
 1222 0004 4646     		mov	r6, r8
 1223 0006 C0B4     		push	{r6, r7}
 1224              		.cfi_def_cfa_offset 32
 1225              		.cfi_offset 8, -32
 1226              		.cfi_offset 9, -28
 326:.\herkulex2.c ****     uint8 i;
 327:.\herkulex2.c ****     pSize = 0x09;
 1227              		.loc 1 327 0
 1228 0008 0922     		mov	r2, #9
 1229 000a 264B     		ldr	r3, .L53
 1230 000c 1A70     		strb	r2, [r3]
 328:.\herkulex2.c ****     cmd = EEP_READ;
 1231              		.loc 1 328 0
 1232 000e 0223     		mov	r3, #2
 1233 0010 254A     		ldr	r2, .L53+4
 1234 0012 1370     		strb	r3, [r2]
 329:.\herkulex2.c ****     data[0] = 0x06;
 1235              		.loc 1 329 0
 1236 0014 254A     		ldr	r2, .L53+8
 1237 0016 0621     		mov	r1, #6
 1238 0018 1170     		strb	r1, [r2]
 330:.\herkulex2.c ****     data[1] = 0x01;
 1239              		.loc 1 330 0
 1240 001a 0121     		mov	r1, #1
 1241 001c 5170     		strb	r1, [r2, #1]
 331:.\herkulex2.c ****     
 332:.\herkulex2.c ****     lengthString = 2u;
 1242              		.loc 1 332 0
 1243 001e 244A     		ldr	r2, .L53+12
 1244 0020 1370     		strb	r3, [r2]
 1245              	.LVL81:
 333:.\herkulex2.c ****     
 334:.\herkulex2.c ****     for ( i = 1 ; i <= 253 ; i++ )
 1246              		.loc 1 334 0
 1247 0022 0125     		mov	r5, #1
 335:.\herkulex2.c ****     {
 336:.\herkulex2.c ****         pID = i;
 1248              		.loc 1 336 0
 1249 0024 234A     		ldr	r2, .L53+16
ARM GAS  C:\Users\EDTRIC~1\AppData\Local\Temp\ccbcYoXT.s 			page 29


 1250 0026 9046     		mov	r8, r2
 337:.\herkulex2.c ****         ck1 = checksum1( data , lengthString );
 1251              		.loc 1 337 0
 1252 0028 204F     		ldr	r7, .L53+8
 1253 002a 214B     		ldr	r3, .L53+12
 1254 002c 9946     		mov	r9, r3
 334:.\herkulex2.c ****     for ( i = 1 ; i <= 253 ; i++ )
 1255              		.loc 1 334 0
 1256 002e 32E0     		b	.L51
 1257              	.LVL82:
 1258              	.L52:
 336:.\herkulex2.c ****         pID = i;
 1259              		.loc 1 336 0 discriminator 2
 1260 0030 4246     		mov	r2, r8
 1261 0032 1570     		strb	r5, [r2]
 1262              		.loc 1 337 0 discriminator 2
 1263 0034 4B46     		mov	r3, r9
 1264 0036 1978     		ldrb	r1, [r3]
 1265 0038 381C     		mov	r0, r7
 1266 003a FFF7FEFF 		bl	checksum1
 1267              	.LVL83:
 1268 003e 061C     		mov	r6, r0
 1269 0040 1D4B     		ldr	r3, .L53+20
 1270 0042 1870     		strb	r0, [r3]
 338:.\herkulex2.c ****         ck2 = checksum2( ck1 );
 1271              		.loc 1 338 0 discriminator 2
 1272 0044 FFF7FEFF 		bl	checksum2
 1273              	.LVL84:
 1274 0048 1C4B     		ldr	r3, .L53+24
 1275 004a 1870     		strb	r0, [r3]
 339:.\herkulex2.c ****         
 340:.\herkulex2.c ****         dataEx[0] = HEADER;
 1276              		.loc 1 340 0 discriminator 2
 1277 004c 1C4C     		ldr	r4, .L53+28
 1278 004e FF23     		mov	r3, #255
 1279 0050 2370     		strb	r3, [r4]
 341:.\herkulex2.c ****         dataEx[1] = HEADER;
 1280              		.loc 1 341 0 discriminator 2
 1281 0052 6370     		strb	r3, [r4, #1]
 342:.\herkulex2.c ****         dataEx[2] = pSize;
 1282              		.loc 1 342 0 discriminator 2
 1283 0054 134B     		ldr	r3, .L53
 1284 0056 1978     		ldrb	r1, [r3]
 1285 0058 A170     		strb	r1, [r4, #2]
 343:.\herkulex2.c ****         dataEx[3] = pID;
 1286              		.loc 1 343 0 discriminator 2
 1287 005a 4246     		mov	r2, r8
 1288 005c 1378     		ldrb	r3, [r2]
 1289 005e E370     		strb	r3, [r4, #3]
 344:.\herkulex2.c ****         dataEx[4] = cmd;
 1290              		.loc 1 344 0 discriminator 2
 1291 0060 114B     		ldr	r3, .L53+4
 1292 0062 1B78     		ldrb	r3, [r3]
 1293 0064 2371     		strb	r3, [r4, #4]
 345:.\herkulex2.c ****         dataEx[5] = ck1;
 1294              		.loc 1 345 0 discriminator 2
 1295 0066 6671     		strb	r6, [r4, #5]
ARM GAS  C:\Users\EDTRIC~1\AppData\Local\Temp\ccbcYoXT.s 			page 30


 346:.\herkulex2.c ****         dataEx[6] = ck2;
 1296              		.loc 1 346 0 discriminator 2
 1297 0068 A071     		strb	r0, [r4, #6]
 347:.\herkulex2.c ****         dataEx[7] = data[0];
 1298              		.loc 1 347 0 discriminator 2
 1299 006a 3B78     		ldrb	r3, [r7]
 1300 006c E371     		strb	r3, [r4, #7]
 348:.\herkulex2.c ****         dataEx[8] = data[1];
 1301              		.loc 1 348 0 discriminator 2
 1302 006e 7B78     		ldrb	r3, [r7, #1]
 1303 0070 2372     		strb	r3, [r4, #8]
 349:.\herkulex2.c ****         
 350:.\herkulex2.c ****         sendData( dataEx , pSize );
 1304              		.loc 1 350 0 discriminator 2
 1305 0072 201C     		mov	r0, r4
 1306 0074 FFF7FEFF 		bl	sendData
 1307              	.LVL85:
 351:.\herkulex2.c ****         CyDelay(5);
 1308              		.loc 1 351 0 discriminator 2
 1309 0078 0520     		mov	r0, #5
 1310 007a FFF7FEFF 		bl	CyDelay
 1311              	.LVL86:
 352:.\herkulex2.c ****         readData( 15 );
 1312              		.loc 1 352 0 discriminator 2
 1313 007e 0F20     		mov	r0, #15
 1314 0080 FFF7FEFF 		bl	readData
 1315              	.LVL87:
 353:.\herkulex2.c ****         CyDelay(10);
 1316              		.loc 1 353 0 discriminator 2
 1317 0084 0A20     		mov	r0, #10
 1318 0086 FFF7FEFF 		bl	CyDelay
 1319              	.LVL88:
 354:.\herkulex2.c ****         Servo_setID( dataEx[3] , 253 );        
 1320              		.loc 1 354 0 discriminator 2
 1321 008a E078     		ldrb	r0, [r4, #3]
 1322 008c FD21     		mov	r1, #253
 1323 008e FFF7FEFF 		bl	Servo_setID
 1324              	.LVL89:
 334:.\herkulex2.c ****     for ( i = 1 ; i <= 253 ; i++ )
 1325              		.loc 1 334 0 discriminator 2
 1326 0092 0135     		add	r5, r5, #1
 1327              	.LVL90:
 1328 0094 EDB2     		uxtb	r5, r5
 1329              	.LVL91:
 1330              	.L51:
 334:.\herkulex2.c ****     for ( i = 1 ; i <= 253 ; i++ )
 1331              		.loc 1 334 0 is_stmt 0 discriminator 1
 1332 0096 FD2D     		cmp	r5, #253
 1333 0098 CAD9     		bls	.L52
 355:.\herkulex2.c ****     }
 356:.\herkulex2.c **** }
 1334              		.loc 1 356 0 is_stmt 1
 1335              		@ sp needed
 1336              	.LVL92:
 1337 009a 0CBC     		pop	{r2, r3}
 1338 009c 9046     		mov	r8, r2
 1339 009e 9946     		mov	r9, r3
ARM GAS  C:\Users\EDTRIC~1\AppData\Local\Temp\ccbcYoXT.s 			page 31


 1340 00a0 F8BD     		pop	{r3, r4, r5, r6, r7, pc}
 1341              	.L54:
 1342 00a2 C046     		.align	2
 1343              	.L53:
 1344 00a4 00000000 		.word	pSize
 1345 00a8 00000000 		.word	cmd
 1346 00ac 00000000 		.word	data
 1347 00b0 00000000 		.word	lengthString
 1348 00b4 00000000 		.word	pID
 1349 00b8 00000000 		.word	ck1
 1350 00bc 00000000 		.word	ck2
 1351 00c0 00000000 		.word	dataEx
 1352              		.cfi_endproc
 1353              	.LFE47:
 1354              		.size	Servo_resetID, .-Servo_resetID
 1355              		.section	.text.Servo_clearError,"ax",%progbits
 1356              		.align	2
 1357              		.global	Servo_clearError
 1358              		.code	16
 1359              		.thumb_func
 1360              		.type	Servo_clearError, %function
 1361              	Servo_clearError:
 1362              	.LFB48:
 357:.\herkulex2.c **** 
 358:.\herkulex2.c **** void Servo_clearError( uint8 servoID )
 359:.\herkulex2.c **** {
 1363              		.loc 1 359 0
 1364              		.cfi_startproc
 1365              	.LVL93:
 1366 0000 F0B5     		push	{r4, r5, r6, r7, lr}
 1367              		.cfi_def_cfa_offset 20
 1368              		.cfi_offset 4, -20
 1369              		.cfi_offset 5, -16
 1370              		.cfi_offset 6, -12
 1371              		.cfi_offset 7, -8
 1372              		.cfi_offset 14, -4
 1373 0002 4746     		mov	r7, r8
 1374 0004 80B4     		push	{r7}
 1375              		.cfi_def_cfa_offset 24
 1376              		.cfi_offset 8, -24
 360:.\herkulex2.c ****     pSize = 0x0B;
 1377              		.loc 1 360 0
 1378 0006 1D4A     		ldr	r2, .L56
 1379 0008 9046     		mov	r8, r2
 1380 000a 0B23     		mov	r3, #11
 1381 000c 1370     		strb	r3, [r2]
 361:.\herkulex2.c ****     pID = servoID;
 1382              		.loc 1 361 0
 1383 000e 1C4F     		ldr	r7, .L56+4
 1384 0010 3870     		strb	r0, [r7]
 362:.\herkulex2.c ****     cmd = RAM_WRITE;
 1385              		.loc 1 362 0
 1386 0012 1C4E     		ldr	r6, .L56+8
 1387 0014 0323     		mov	r3, #3
 1388 0016 3370     		strb	r3, [r6]
 363:.\herkulex2.c ****     data[0] = 0x30;
 1389              		.loc 1 363 0
ARM GAS  C:\Users\EDTRIC~1\AppData\Local\Temp\ccbcYoXT.s 			page 32


 1390 0018 1B4C     		ldr	r4, .L56+12
 1391 001a 3023     		mov	r3, #48
 1392 001c 2370     		strb	r3, [r4]
 364:.\herkulex2.c ****     data[1] = 0x02;
 1393              		.loc 1 364 0
 1394 001e 0223     		mov	r3, #2
 1395 0020 6370     		strb	r3, [r4, #1]
 365:.\herkulex2.c ****     data[2] = 0x00;
 1396              		.loc 1 365 0
 1397 0022 0023     		mov	r3, #0
 1398 0024 A370     		strb	r3, [r4, #2]
 366:.\herkulex2.c ****     data[3] = 0x00;
 1399              		.loc 1 366 0
 1400 0026 E370     		strb	r3, [r4, #3]
 367:.\herkulex2.c ****     lengthString = 4;
 1401              		.loc 1 367 0
 1402 0028 0422     		mov	r2, #4
 1403 002a 184B     		ldr	r3, .L56+16
 1404 002c 1A70     		strb	r2, [r3]
 368:.\herkulex2.c ****     
 369:.\herkulex2.c ****     ck1 = checksum1( data , lengthString );
 1405              		.loc 1 369 0
 1406 002e 201C     		mov	r0, r4
 1407              	.LVL94:
 1408 0030 0421     		mov	r1, #4
 1409 0032 FFF7FEFF 		bl	checksum1
 1410              	.LVL95:
 1411 0036 051C     		mov	r5, r0
 1412 0038 154B     		ldr	r3, .L56+20
 1413 003a 1870     		strb	r0, [r3]
 370:.\herkulex2.c ****     ck2 = checksum2( ck1 );
 1414              		.loc 1 370 0
 1415 003c FFF7FEFF 		bl	checksum2
 1416              	.LVL96:
 1417 0040 144B     		ldr	r3, .L56+24
 1418 0042 1870     		strb	r0, [r3]
 371:.\herkulex2.c ****     
 372:.\herkulex2.c ****     dataEx[0] = HEADER;
 1419              		.loc 1 372 0
 1420 0044 144B     		ldr	r3, .L56+28
 1421 0046 FF22     		mov	r2, #255
 1422 0048 1A70     		strb	r2, [r3]
 373:.\herkulex2.c ****     dataEx[1] = HEADER;
 1423              		.loc 1 373 0
 1424 004a 5A70     		strb	r2, [r3, #1]
 374:.\herkulex2.c ****     dataEx[2] = pSize;
 1425              		.loc 1 374 0
 1426 004c 4246     		mov	r2, r8
 1427 004e 1178     		ldrb	r1, [r2]
 1428 0050 9970     		strb	r1, [r3, #2]
 375:.\herkulex2.c ****     dataEx[3] = pID;
 1429              		.loc 1 375 0
 1430 0052 3A78     		ldrb	r2, [r7]
 1431 0054 DA70     		strb	r2, [r3, #3]
 376:.\herkulex2.c ****     dataEx[4] = cmd;
 1432              		.loc 1 376 0
 1433 0056 3278     		ldrb	r2, [r6]
ARM GAS  C:\Users\EDTRIC~1\AppData\Local\Temp\ccbcYoXT.s 			page 33


 1434 0058 1A71     		strb	r2, [r3, #4]
 377:.\herkulex2.c ****     dataEx[5] = ck1;
 1435              		.loc 1 377 0
 1436 005a 5D71     		strb	r5, [r3, #5]
 378:.\herkulex2.c ****     dataEx[6] = ck2;
 1437              		.loc 1 378 0
 1438 005c 9871     		strb	r0, [r3, #6]
 379:.\herkulex2.c ****     dataEx[7] = data[0];
 1439              		.loc 1 379 0
 1440 005e 2278     		ldrb	r2, [r4]
 1441 0060 DA71     		strb	r2, [r3, #7]
 380:.\herkulex2.c ****     dataEx[8] = data[1];
 1442              		.loc 1 380 0
 1443 0062 6278     		ldrb	r2, [r4, #1]
 1444 0064 1A72     		strb	r2, [r3, #8]
 381:.\herkulex2.c ****     dataEx[9] = data[2];
 1445              		.loc 1 381 0
 1446 0066 A278     		ldrb	r2, [r4, #2]
 1447 0068 5A72     		strb	r2, [r3, #9]
 382:.\herkulex2.c ****     dataEx[10] = data[3];
 1448              		.loc 1 382 0
 1449 006a E278     		ldrb	r2, [r4, #3]
 1450 006c 9A72     		strb	r2, [r3, #10]
 383:.\herkulex2.c ****     
 384:.\herkulex2.c ****     sendData( dataEx , pSize );
 1451              		.loc 1 384 0
 1452 006e 181C     		mov	r0, r3
 1453 0070 FFF7FEFF 		bl	sendData
 1454              	.LVL97:
 385:.\herkulex2.c **** }
 1455              		.loc 1 385 0
 1456              		@ sp needed
 1457 0074 04BC     		pop	{r2}
 1458 0076 9046     		mov	r8, r2
 1459 0078 F0BD     		pop	{r4, r5, r6, r7, pc}
 1460              	.L57:
 1461 007a C046     		.align	2
 1462              	.L56:
 1463 007c 00000000 		.word	pSize
 1464 0080 00000000 		.word	pID
 1465 0084 00000000 		.word	cmd
 1466 0088 00000000 		.word	data
 1467 008c 00000000 		.word	lengthString
 1468 0090 00000000 		.word	ck1
 1469 0094 00000000 		.word	ck2
 1470 0098 00000000 		.word	dataEx
 1471              		.cfi_endproc
 1472              	.LFE48:
 1473              		.size	Servo_clearError, .-Servo_clearError
 1474              		.section	.text.Servo_moveAll,"ax",%progbits
 1475              		.align	2
 1476              		.global	Servo_moveAll
 1477              		.code	16
 1478              		.thumb_func
 1479              		.type	Servo_moveAll, %function
 1480              	Servo_moveAll:
 1481              	.LFB49:
ARM GAS  C:\Users\EDTRIC~1\AppData\Local\Temp\ccbcYoXT.s 			page 34


 386:.\herkulex2.c **** 
 387:.\herkulex2.c **** void Servo_moveAll (uint8 servoID , int goal , uint8 LED )
 388:.\herkulex2.c **** {
 1482              		.loc 1 388 0
 1483              		.cfi_startproc
 1484              	.LVL98:
 1485 0000 38B5     		push	{r3, r4, r5, lr}
 1486              		.cfi_def_cfa_offset 16
 1487              		.cfi_offset 3, -16
 1488              		.cfi_offset 4, -12
 1489              		.cfi_offset 5, -8
 1490              		.cfi_offset 14, -4
 1491 0002 031C     		mov	r3, r0
 389:.\herkulex2.c ****     if( goal > 1023 || goal < 0 ) return;
 1492              		.loc 1 389 0
 1493 0004 114C     		ldr	r4, .L65
 1494 0006 A142     		cmp	r1, r4
 1495 0008 1FD8     		bhi	.L58
 1496              	.LVL99:
 390:.\herkulex2.c ****     
 391:.\herkulex2.c ****     uint8 mode = 0;
 392:.\herkulex2.c ****     uint8 stop = 0;
 393:.\herkulex2.c ****     
 394:.\herkulex2.c ****     int posLSB = goal & 0x00FF;
 1497              		.loc 1 394 0
 1498 000a FF20     		mov	r0, #255
 1499              	.LVL100:
 1500 000c 0840     		and	r0, r1
 1501              	.LVL101:
 395:.\herkulex2.c ****     int posMSB = ( goal & 0xFF00 ) >> 8;
 1502              		.loc 1 395 0
 1503 000e 0904     		lsl	r1, r1, #16
 1504              	.LVL102:
 1505 0010 090E     		lsr	r1, r1, #24
 1506              	.LVL103:
 396:.\herkulex2.c ****     
 397:.\herkulex2.c ****     uint8 blue = 0;
 398:.\herkulex2.c ****     uint8 green = 0;
 399:.\herkulex2.c ****     uint8 red = 0;
 400:.\herkulex2.c ****     
 401:.\herkulex2.c ****     switch( LED )
 1507              		.loc 1 401 0
 1508 0012 022A     		cmp	r2, #2
 1509 0014 07D0     		beq	.L61
 1510 0016 042A     		cmp	r2, #4
 1511 0018 09D0     		beq	.L62
 1512 001a 012A     		cmp	r2, #1
 1513 001c 0BD0     		beq	.L64
 399:.\herkulex2.c ****     uint8 red = 0;
 1514              		.loc 1 399 0
 1515 001e 0022     		mov	r2, #0
 1516              	.LVL104:
 398:.\herkulex2.c ****     uint8 green = 0;
 1517              		.loc 1 398 0
 1518 0020 0025     		mov	r5, #0
 397:.\herkulex2.c ****     uint8 blue = 0;
 1519              		.loc 1 397 0
ARM GAS  C:\Users\EDTRIC~1\AppData\Local\Temp\ccbcYoXT.s 			page 35


 1520 0022 0024     		mov	r4, #0
 1521 0024 0AE0     		b	.L63
 1522              	.LVL105:
 1523              	.L61:
 399:.\herkulex2.c ****     uint8 red = 0;
 1524              		.loc 1 399 0
 1525 0026 0022     		mov	r2, #0
 1526              	.LVL106:
 398:.\herkulex2.c ****     uint8 green = 0;
 1527              		.loc 1 398 0
 1528 0028 0025     		mov	r5, #0
 402:.\herkulex2.c ****     {
 403:.\herkulex2.c ****         case 1:
 404:.\herkulex2.c ****             green = 1;
 405:.\herkulex2.c ****             break;
 406:.\herkulex2.c ****         case 2:
 407:.\herkulex2.c ****             blue = 1;
 1529              		.loc 1 407 0
 1530 002a 0124     		mov	r4, #1
 408:.\herkulex2.c ****             break;
 1531              		.loc 1 408 0
 1532 002c 06E0     		b	.L63
 1533              	.LVL107:
 1534              	.L62:
 409:.\herkulex2.c ****         case 4:
 410:.\herkulex2.c ****             red = 1;
 1535              		.loc 1 410 0
 1536 002e 0122     		mov	r2, #1
 1537              	.LVL108:
 398:.\herkulex2.c ****     uint8 green = 0;
 1538              		.loc 1 398 0
 1539 0030 0025     		mov	r5, #0
 397:.\herkulex2.c ****     uint8 blue = 0;
 1540              		.loc 1 397 0
 1541 0032 0024     		mov	r4, #0
 411:.\herkulex2.c ****             break;
 1542              		.loc 1 411 0
 1543 0034 02E0     		b	.L63
 1544              	.LVL109:
 1545              	.L64:
 399:.\herkulex2.c ****     uint8 red = 0;
 1546              		.loc 1 399 0
 1547 0036 0022     		mov	r2, #0
 1548              	.LVL110:
 404:.\herkulex2.c ****             green = 1;
 1549              		.loc 1 404 0
 1550 0038 0125     		mov	r5, #1
 397:.\herkulex2.c ****     uint8 blue = 0;
 1551              		.loc 1 397 0
 1552 003a 0024     		mov	r4, #0
 1553              	.LVL111:
 1554              	.L63:
 412:.\herkulex2.c ****     }
 413:.\herkulex2.c ****     
 414:.\herkulex2.c ****     int setValue = stop + mode * 2 + green * 4 + blue * 8 + red * 16;
 1555              		.loc 1 414 0
 1556 003c AD00     		lsl	r5, r5, #2
ARM GAS  C:\Users\EDTRIC~1\AppData\Local\Temp\ccbcYoXT.s 			page 36


 1557              	.LVL112:
 1558 003e E400     		lsl	r4, r4, #3
 1559              	.LVL113:
 1560 0040 1201     		lsl	r2, r2, #4
 1561              	.LVL114:
 1562 0042 2C19     		add	r4, r5, r4
 1563              	.LVL115:
 415:.\herkulex2.c ****     
 416:.\herkulex2.c ****     addData( posLSB , posMSB , setValue , servoID );
 1564              		.loc 1 416 0
 1565 0044 A218     		add	r2, r4, r2
 1566 0046 FFF7FEFF 		bl	addData
 1567              	.LVL116:
 1568              	.L58:
 417:.\herkulex2.c **** }
 1569              		.loc 1 417 0
 1570              		@ sp needed
 1571 004a 38BD     		pop	{r3, r4, r5, pc}
 1572              	.L66:
 1573              		.align	2
 1574              	.L65:
 1575 004c FF030000 		.word	1023
 1576              		.cfi_endproc
 1577              	.LFE49:
 1578              		.size	Servo_moveAll, .-Servo_moveAll
 1579              		.global	__aeabi_fcmpgt
 1580              		.global	__aeabi_fcmplt
 1581              		.global	__aeabi_f2d
 1582              		.global	__aeabi_ddiv
 1583              		.global	__aeabi_d2iz
 1584              		.section	.text.Servo_moveAllAngle,"ax",%progbits
 1585              		.align	2
 1586              		.global	Servo_moveAllAngle
 1587              		.code	16
 1588              		.thumb_func
 1589              		.type	Servo_moveAllAngle, %function
 1590              	Servo_moveAllAngle:
 1591              	.LFB50:
 418:.\herkulex2.c **** 
 419:.\herkulex2.c **** void Servo_moveAllAngle (uint8 servoID , float angle , uint8 LED )
 420:.\herkulex2.c **** {
 1592              		.loc 1 420 0
 1593              		.cfi_startproc
 1594              	.LVL117:
 1595 0000 D0B5     		push	{r4, r6, r7, lr}
 1596              		.cfi_def_cfa_offset 16
 1597              		.cfi_offset 4, -16
 1598              		.cfi_offset 6, -12
 1599              		.cfi_offset 7, -8
 1600              		.cfi_offset 14, -4
 1601 0002 071C     		mov	r7, r0
 1602 0004 0C1C     		add	r4, r1, #0
 1603 0006 161C     		mov	r6, r2
 421:.\herkulex2.c ****     if( angle > 160.0 || angle < -160.0 ) return;
 1604              		.loc 1 421 0
 1605 0008 081C     		add	r0, r1, #0
 1606              	.LVL118:
ARM GAS  C:\Users\EDTRIC~1\AppData\Local\Temp\ccbcYoXT.s 			page 37


 1607 000a 1149     		ldr	r1, .L69+8
 1608              	.LVL119:
 1609 000c FFF7FEFF 		bl	__aeabi_fcmpgt
 1610              	.LVL120:
 1611 0010 0028     		cmp	r0, #0
 1612 0012 15D1     		bne	.L67
 1613              		.loc 1 421 0 is_stmt 0 discriminator 2
 1614 0014 201C     		add	r0, r4, #0
 1615 0016 0F49     		ldr	r1, .L69+12
 1616 0018 FFF7FEFF 		bl	__aeabi_fcmplt
 1617              	.LVL121:
 1618 001c 0028     		cmp	r0, #0
 1619 001e 0FD1     		bne	.L67
 422:.\herkulex2.c ****     int position = (int)(angle/0.325) + 512;
 1620              		.loc 1 422 0 is_stmt 1
 1621 0020 201C     		add	r0, r4, #0
 1622 0022 FFF7FEFF 		bl	__aeabi_f2d
 1623              	.LVL122:
 1624 0026 094B     		ldr	r3, .L69+4
 1625 0028 074A     		ldr	r2, .L69
 1626 002a FFF7FEFF 		bl	__aeabi_ddiv
 1627              	.LVL123:
 1628 002e FFF7FEFF 		bl	__aeabi_d2iz
 1629              	.LVL124:
 1630 0032 8023     		mov	r3, #128
 1631 0034 9B00     		lsl	r3, r3, #2
 1632 0036 C118     		add	r1, r0, r3
 1633              	.LVL125:
 423:.\herkulex2.c ****     Servo_moveAll( servoID , position , LED );
 1634              		.loc 1 423 0
 1635 0038 381C     		mov	r0, r7
 1636 003a 321C     		mov	r2, r6
 1637 003c FFF7FEFF 		bl	Servo_moveAll
 1638              	.LVL126:
 1639              	.L67:
 424:.\herkulex2.c **** }
 1640              		.loc 1 424 0
 1641              		@ sp needed
 1642              	.LVL127:
 1643 0040 D0BD     		pop	{r4, r6, r7, pc}
 1644              	.L70:
 1645 0042 C046C046 		.align	3
 1645      C046
 1646              	.L69:
 1647 0048 CDCCCCCC 		.word	-858993459
 1648 004c CCCCD43F 		.word	1070910668
 1649 0050 00002043 		.word	1126170624
 1650 0054 000020C3 		.word	-1021313024
 1651              		.cfi_endproc
 1652              	.LFE50:
 1653              		.size	Servo_moveAllAngle, .-Servo_moveAllAngle
 1654              		.section	.text.Servo_moveSpeedAll,"ax",%progbits
 1655              		.align	2
 1656              		.global	Servo_moveSpeedAll
 1657              		.code	16
 1658              		.thumb_func
 1659              		.type	Servo_moveSpeedAll, %function
ARM GAS  C:\Users\EDTRIC~1\AppData\Local\Temp\ccbcYoXT.s 			page 38


 1660              	Servo_moveSpeedAll:
 1661              	.LFB51:
 425:.\herkulex2.c **** 
 426:.\herkulex2.c **** void Servo_moveSpeedAll (uint8 servoID , int goal , uint8 LED )
 427:.\herkulex2.c **** {
 1662              		.loc 1 427 0
 1663              		.cfi_startproc
 1664              	.LVL128:
 1665 0000 38B5     		push	{r3, r4, r5, lr}
 1666              		.cfi_def_cfa_offset 16
 1667              		.cfi_offset 3, -16
 1668              		.cfi_offset 4, -12
 1669              		.cfi_offset 5, -8
 1670              		.cfi_offset 14, -4
 1671 0002 031C     		mov	r3, r0
 428:.\herkulex2.c ****     if( goal > 1023 || goal < -1023 ) return;
 1672              		.loc 1 428 0
 1673 0004 1648     		ldr	r0, .L79
 1674              	.LVL129:
 1675 0006 0D18     		add	r5, r1, r0
 1676 0008 164C     		ldr	r4, .L79+4
 1677 000a A542     		cmp	r5, r4
 1678 000c 27D8     		bhi	.L71
 1679              	.LVL130:
 429:.\herkulex2.c ****     
 430:.\herkulex2.c ****     uint8 mode = 1;
 431:.\herkulex2.c ****     uint8 stop = 0;
 432:.\herkulex2.c ****     
 433:.\herkulex2.c ****     int goalSpeedSign;
 434:.\herkulex2.c ****     if ( goal < 0 ) 
 1680              		.loc 1 434 0
 1681 000e 0029     		cmp	r1, #0
 1682 0010 03DA     		bge	.L73
 435:.\herkulex2.c ****     {
 436:.\herkulex2.c ****         goalSpeedSign = (-1) * goal;
 1683              		.loc 1 436 0
 1684 0012 4942     		neg	r1, r1
 1685              	.LVL131:
 437:.\herkulex2.c ****         goalSpeedSign |= 0x4000;
 1686              		.loc 1 437 0
 1687 0014 8020     		mov	r0, #128
 1688 0016 C001     		lsl	r0, r0, #7
 1689 0018 0143     		orr	r1, r0
 1690              	.LVL132:
 1691              	.L73:
 438:.\herkulex2.c ****     }
 439:.\herkulex2.c ****     else 
 440:.\herkulex2.c ****     {
 441:.\herkulex2.c ****         goalSpeedSign = goal;
 442:.\herkulex2.c ****     }
 443:.\herkulex2.c ****     
 444:.\herkulex2.c ****     int speedGoalLSB = goalSpeedSign & 0X00FF;
 1692              		.loc 1 444 0
 1693 001a FF20     		mov	r0, #255
 1694 001c 0840     		and	r0, r1
 1695              	.LVL133:
 445:.\herkulex2.c ****     int speedGoalMSB = ( goalSpeedSign & 0xFF00 ) >> 8;
ARM GAS  C:\Users\EDTRIC~1\AppData\Local\Temp\ccbcYoXT.s 			page 39


 1696              		.loc 1 445 0
 1697 001e 0904     		lsl	r1, r1, #16
 1698              	.LVL134:
 1699 0020 090E     		lsr	r1, r1, #24
 1700              	.LVL135:
 446:.\herkulex2.c **** 
 447:.\herkulex2.c ****     int blue = 0;
 448:.\herkulex2.c ****     int green = 0;
 449:.\herkulex2.c ****     int red = 0;
 450:.\herkulex2.c ****     switch (LED) 
 1701              		.loc 1 450 0
 1702 0022 022A     		cmp	r2, #2
 1703 0024 07D0     		beq	.L75
 1704 0026 042A     		cmp	r2, #4
 1705 0028 09D0     		beq	.L76
 1706 002a 012A     		cmp	r2, #1
 1707 002c 0BD0     		beq	.L78
 449:.\herkulex2.c ****     int red = 0;
 1708              		.loc 1 449 0
 1709 002e 0024     		mov	r4, #0
 448:.\herkulex2.c ****     int green = 0;
 1710              		.loc 1 448 0
 1711 0030 0025     		mov	r5, #0
 1712              	.LVL136:
 447:.\herkulex2.c ****     int blue = 0;
 1713              		.loc 1 447 0
 1714 0032 0022     		mov	r2, #0
 1715              	.LVL137:
 1716 0034 0AE0     		b	.L77
 1717              	.LVL138:
 1718              	.L75:
 449:.\herkulex2.c ****     int red = 0;
 1719              		.loc 1 449 0
 1720 0036 0024     		mov	r4, #0
 448:.\herkulex2.c ****     int green = 0;
 1721              		.loc 1 448 0
 1722 0038 0025     		mov	r5, #0
 451:.\herkulex2.c ****     {
 452:.\herkulex2.c ****         case 1:
 453:.\herkulex2.c ****             green = 1;
 454:.\herkulex2.c ****             break;
 455:.\herkulex2.c ****         case 2:
 456:.\herkulex2.c ****             blue = 1;
 1723              		.loc 1 456 0
 1724 003a 0122     		mov	r2, #1
 1725              	.LVL139:
 457:.\herkulex2.c ****             break;
 1726              		.loc 1 457 0
 1727 003c 06E0     		b	.L77
 1728              	.LVL140:
 1729              	.L76:
 458:.\herkulex2.c ****         case 4:
 459:.\herkulex2.c ****             red = 1;
 1730              		.loc 1 459 0
 1731 003e 0124     		mov	r4, #1
 448:.\herkulex2.c ****     int green = 0;
 1732              		.loc 1 448 0
ARM GAS  C:\Users\EDTRIC~1\AppData\Local\Temp\ccbcYoXT.s 			page 40


 1733 0040 0025     		mov	r5, #0
 447:.\herkulex2.c ****     int blue = 0;
 1734              		.loc 1 447 0
 1735 0042 0022     		mov	r2, #0
 1736              	.LVL141:
 460:.\herkulex2.c ****             break;
 1737              		.loc 1 460 0
 1738 0044 02E0     		b	.L77
 1739              	.LVL142:
 1740              	.L78:
 449:.\herkulex2.c ****     int red = 0;
 1741              		.loc 1 449 0
 1742 0046 0024     		mov	r4, #0
 453:.\herkulex2.c ****             green = 1;
 1743              		.loc 1 453 0
 1744 0048 0125     		mov	r5, #1
 447:.\herkulex2.c ****     int blue = 0;
 1745              		.loc 1 447 0
 1746 004a 0022     		mov	r2, #0
 1747              	.LVL143:
 1748              	.L77:
 461:.\herkulex2.c ****     }
 462:.\herkulex2.c ****     
 463:.\herkulex2.c ****     int setValue = stop + mode * 2 + green * 4 + blue * 8 + red * 16;
 1749              		.loc 1 463 0
 1750 004c AD00     		lsl	r5, r5, #2
 1751              	.LVL144:
 1752 004e 0235     		add	r5, r5, #2
 1753 0050 D200     		lsl	r2, r2, #3
 1754              	.LVL145:
 1755 0052 AA18     		add	r2, r5, r2
 1756 0054 2401     		lsl	r4, r4, #4
 1757              	.LVL146:
 1758 0056 1219     		add	r2, r2, r4
 1759              	.LVL147:
 464:.\herkulex2.c ****     
 465:.\herkulex2.c ****     addData( speedGoalLSB , speedGoalMSB , setValue , servoID );
 1760              		.loc 1 465 0
 1761 0058 D2B2     		uxtb	r2, r2
 1762              	.LVL148:
 1763 005a FFF7FEFF 		bl	addData
 1764              	.LVL149:
 1765              	.L71:
 466:.\herkulex2.c **** }
 1766              		.loc 1 466 0
 1767              		@ sp needed
 1768 005e 38BD     		pop	{r3, r4, r5, pc}
 1769              	.L80:
 1770              		.align	2
 1771              	.L79:
 1772 0060 FF030000 		.word	1023
 1773 0064 FE070000 		.word	2046
 1774              		.cfi_endproc
 1775              	.LFE51:
 1776              		.size	Servo_moveSpeedAll, .-Servo_moveSpeedAll
 1777              		.global	__aeabi_i2f
 1778              		.section	.text.Servo_actionAll,"ax",%progbits
ARM GAS  C:\Users\EDTRIC~1\AppData\Local\Temp\ccbcYoXT.s 			page 41


 1779              		.align	2
 1780              		.global	Servo_actionAll
 1781              		.code	16
 1782              		.thumb_func
 1783              		.type	Servo_actionAll, %function
 1784              	Servo_actionAll:
 1785              	.LFB52:
 467:.\herkulex2.c **** 
 468:.\herkulex2.c **** void Servo_actionAll ( int time )
 469:.\herkulex2.c **** {
 1786              		.loc 1 469 0
 1787              		.cfi_startproc
 1788              	.LVL150:
 1789 0000 F8B5     		push	{r3, r4, r5, r6, r7, lr}
 1790              		.cfi_def_cfa_offset 24
 1791              		.cfi_offset 3, -24
 1792              		.cfi_offset 4, -20
 1793              		.cfi_offset 5, -16
 1794              		.cfi_offset 6, -12
 1795              		.cfi_offset 7, -8
 1796              		.cfi_offset 14, -4
 1797 0002 4F46     		mov	r7, r9
 1798 0004 4646     		mov	r6, r8
 1799 0006 C0B4     		push	{r6, r7}
 1800              		.cfi_def_cfa_offset 32
 1801              		.cfi_offset 8, -32
 1802              		.cfi_offset 9, -28
 470:.\herkulex2.c ****     uint8 i;
 471:.\herkulex2.c ****     
 472:.\herkulex2.c ****     if( time < 0 || time > 2856 ) return;
 1803              		.loc 1 472 0
 1804 0008 2B4B     		ldr	r3, .L85+8
 1805 000a 9842     		cmp	r0, r3
 1806 000c 4BD8     		bhi	.L81
 473:.\herkulex2.c ****     
 474:.\herkulex2.c ****     pSize = 0x08 + conta;
 1807              		.loc 1 474 0
 1808 000e 2B4B     		ldr	r3, .L85+12
 1809 0010 1E78     		ldrb	r6, [r3]
 1810 0012 2B4D     		ldr	r5, .L85+16
 1811 0014 331C     		mov	r3, r6
 1812 0016 0833     		add	r3, r3, #8
 1813 0018 2B70     		strb	r3, [r5]
 475:.\herkulex2.c ****     cmd = S_JOG;
 1814              		.loc 1 475 0
 1815 001a 2A4C     		ldr	r4, .L85+20
 1816 001c 0623     		mov	r3, #6
 1817 001e 2370     		strb	r3, [r4]
 476:.\herkulex2.c ****     playTime = (int)((float)time/11.2);
 1818              		.loc 1 476 0
 1819 0020 FFF7FEFF 		bl	__aeabi_i2f
 1820              	.LVL151:
 1821 0024 FFF7FEFF 		bl	__aeabi_f2d
 1822              	.LVL152:
 1823 0028 224B     		ldr	r3, .L85+4
 1824 002a 214A     		ldr	r2, .L85
 1825 002c FFF7FEFF 		bl	__aeabi_ddiv
ARM GAS  C:\Users\EDTRIC~1\AppData\Local\Temp\ccbcYoXT.s 			page 42


 1826              	.LVL153:
 1827 0030 FFF7FEFF 		bl	__aeabi_d2iz
 1828              	.LVL154:
 1829 0034 244F     		ldr	r7, .L85+24
 1830 0036 3860     		str	r0, [r7]
 477:.\herkulex2.c ****     
 478:.\herkulex2.c ****     pID = PIDALL ^ playTime;
 1831              		.loc 1 478 0
 1832 0038 244A     		ldr	r2, .L85+28
 1833 003a 9046     		mov	r8, r2
 1834 003c 0223     		mov	r3, #2
 1835 003e 5B42     		neg	r3, r3
 1836 0040 9946     		mov	r9, r3
 1837 0042 5840     		eor	r0, r3
 1838 0044 1070     		strb	r0, [r2]
 479:.\herkulex2.c ****     
 480:.\herkulex2.c ****     ck1 = checksum1 ( moveData , conta );
 1839              		.loc 1 480 0
 1840 0046 2248     		ldr	r0, .L85+32
 1841 0048 311C     		mov	r1, r6
 1842 004a FFF7FEFF 		bl	checksum1
 1843              	.LVL155:
 1844 004e 061C     		mov	r6, r0
 1845 0050 204B     		ldr	r3, .L85+36
 1846 0052 1870     		strb	r0, [r3]
 481:.\herkulex2.c ****     ck2 = checksum2 ( ck1 );
 1847              		.loc 1 481 0
 1848 0054 FFF7FEFF 		bl	checksum2
 1849              	.LVL156:
 1850 0058 1F4B     		ldr	r3, .L85+40
 1851 005a 1870     		strb	r0, [r3]
 482:.\herkulex2.c ****     
 483:.\herkulex2.c ****     pID = PIDALL;
 1852              		.loc 1 483 0
 1853 005c 4B46     		mov	r3, r9
 1854 005e 4246     		mov	r2, r8
 1855 0060 1370     		strb	r3, [r2]
 484:.\herkulex2.c ****     
 485:.\herkulex2.c ****     dataEx[0] = HEADER;
 1856              		.loc 1 485 0
 1857 0062 1E4B     		ldr	r3, .L85+44
 1858 0064 FF22     		mov	r2, #255
 1859 0066 1A70     		strb	r2, [r3]
 486:.\herkulex2.c ****     dataEx[1] = HEADER;
 1860              		.loc 1 486 0
 1861 0068 5A70     		strb	r2, [r3, #1]
 487:.\herkulex2.c ****     dataEx[2] = pSize;
 1862              		.loc 1 487 0
 1863 006a 2978     		ldrb	r1, [r5]
 1864 006c 9970     		strb	r1, [r3, #2]
 488:.\herkulex2.c ****     dataEx[3] = pID;
 1865              		.loc 1 488 0
 1866 006e FE22     		mov	r2, #254
 1867 0070 DA70     		strb	r2, [r3, #3]
 489:.\herkulex2.c ****     dataEx[4] = cmd;
 1868              		.loc 1 489 0
 1869 0072 2278     		ldrb	r2, [r4]
ARM GAS  C:\Users\EDTRIC~1\AppData\Local\Temp\ccbcYoXT.s 			page 43


 1870 0074 1A71     		strb	r2, [r3, #4]
 490:.\herkulex2.c ****     dataEx[5] = ck1;
 1871              		.loc 1 490 0
 1872 0076 5E71     		strb	r6, [r3, #5]
 491:.\herkulex2.c ****     dataEx[6] = ck2;
 1873              		.loc 1 491 0
 1874 0078 9871     		strb	r0, [r3, #6]
 492:.\herkulex2.c ****     dataEx[7] = playTime;
 1875              		.loc 1 492 0
 1876 007a 3A68     		ldr	r2, [r7]
 1877 007c DA71     		strb	r2, [r3, #7]
 1878              	.LVL157:
 493:.\herkulex2.c ****     
 494:.\herkulex2.c ****     for ( i = 0; i < conta; i++ )
 1879              		.loc 1 494 0
 1880 007e 0023     		mov	r3, #0
 1881 0080 0E4C     		ldr	r4, .L85+12
 495:.\herkulex2.c ****     {
 496:.\herkulex2.c ****         dataEx[i+8] = moveData[i];
 1882              		.loc 1 496 0
 1883 0082 134E     		ldr	r6, .L85+32
 1884 0084 154D     		ldr	r5, .L85+44
 494:.\herkulex2.c ****     for ( i = 0; i < conta; i++ )
 1885              		.loc 1 494 0
 1886 0086 05E0     		b	.L83
 1887              	.LVL158:
 1888              	.L84:
 1889              		.loc 1 496 0 discriminator 2
 1890 0088 1A1C     		mov	r2, r3
 1891 008a 0832     		add	r2, r2, #8
 1892 008c F05C     		ldrb	r0, [r6, r3]
 1893 008e A854     		strb	r0, [r5, r2]
 494:.\herkulex2.c ****     for ( i = 0; i < conta; i++ )
 1894              		.loc 1 494 0 discriminator 2
 1895 0090 0133     		add	r3, r3, #1
 1896              	.LVL159:
 1897 0092 DBB2     		uxtb	r3, r3
 1898              	.LVL160:
 1899              	.L83:
 494:.\herkulex2.c ****     for ( i = 0; i < conta; i++ )
 1900              		.loc 1 494 0 is_stmt 0 discriminator 1
 1901 0094 2278     		ldrb	r2, [r4]
 1902 0096 9342     		cmp	r3, r2
 1903 0098 F6D3     		bcc	.L84
 497:.\herkulex2.c ****     }
 498:.\herkulex2.c ****     
 499:.\herkulex2.c ****     sendData( dataEx , pSize );
 1904              		.loc 1 499 0 is_stmt 1
 1905 009a 1048     		ldr	r0, .L85+44
 1906 009c FFF7FEFF 		bl	sendData
 1907              	.LVL161:
 500:.\herkulex2.c ****     
 501:.\herkulex2.c ****     conta = 0;
 1908              		.loc 1 501 0
 1909 00a0 0022     		mov	r2, #0
 1910 00a2 064B     		ldr	r3, .L85+12
 1911 00a4 1A70     		strb	r2, [r3]
ARM GAS  C:\Users\EDTRIC~1\AppData\Local\Temp\ccbcYoXT.s 			page 44


 1912              	.L81:
 502:.\herkulex2.c **** }
 1913              		.loc 1 502 0
 1914              		@ sp needed
 1915 00a6 0CBC     		pop	{r2, r3}
 1916 00a8 9046     		mov	r8, r2
 1917 00aa 9946     		mov	r9, r3
 1918 00ac F8BD     		pop	{r3, r4, r5, r6, r7, pc}
 1919              	.L86:
 1920 00ae C046     		.align	3
 1921              	.L85:
 1922 00b0 66666666 		.word	1717986918
 1923 00b4 66662640 		.word	1076258406
 1924 00b8 280B0000 		.word	2856
 1925 00bc 00000000 		.word	conta
 1926 00c0 00000000 		.word	pSize
 1927 00c4 00000000 		.word	cmd
 1928 00c8 00000000 		.word	playTime
 1929 00cc 00000000 		.word	pID
 1930 00d0 00000000 		.word	moveData
 1931 00d4 00000000 		.word	ck1
 1932 00d8 00000000 		.word	ck2
 1933 00dc 00000000 		.word	dataEx
 1934              		.cfi_endproc
 1935              	.LFE52:
 1936              		.size	Servo_actionAll, .-Servo_actionAll
 1937              		.section	.text.Servo_getPosition,"ax",%progbits
 1938              		.align	2
 1939              		.global	Servo_getPosition
 1940              		.code	16
 1941              		.thumb_func
 1942              		.type	Servo_getPosition, %function
 1943              	Servo_getPosition:
 1944              	.LFB53:
 503:.\herkulex2.c **** 
 504:.\herkulex2.c **** int Servo_getPosition ( uint8 servoID )
 505:.\herkulex2.c **** {
 1945              		.loc 1 505 0
 1946              		.cfi_startproc
 1947              	.LVL162:
 1948 0000 F8B5     		push	{r3, r4, r5, r6, r7, lr}
 1949              		.cfi_def_cfa_offset 24
 1950              		.cfi_offset 3, -24
 1951              		.cfi_offset 4, -20
 1952              		.cfi_offset 5, -16
 1953              		.cfi_offset 6, -12
 1954              		.cfi_offset 7, -8
 1955              		.cfi_offset 14, -4
 1956 0002 5F46     		mov	r7, fp
 1957 0004 5646     		mov	r6, r10
 1958 0006 4D46     		mov	r5, r9
 1959 0008 4446     		mov	r4, r8
 1960 000a F0B4     		push	{r4, r5, r6, r7}
 1961              		.cfi_def_cfa_offset 40
 1962              		.cfi_offset 8, -40
 1963              		.cfi_offset 9, -36
 1964              		.cfi_offset 10, -32
ARM GAS  C:\Users\EDTRIC~1\AppData\Local\Temp\ccbcYoXT.s 			page 45


 1965              		.cfi_offset 11, -28
 1966              	.LVL163:
 506:.\herkulex2.c ****     int position = 0;
 507:.\herkulex2.c ****     
 508:.\herkulex2.c ****     pSize = 0x09;
 1967              		.loc 1 508 0
 1968 000c 394A     		ldr	r2, .L91
 1969 000e 9046     		mov	r8, r2
 1970 0010 0923     		mov	r3, #9
 1971 0012 1370     		strb	r3, [r2]
 509:.\herkulex2.c ****     pID = servoID;
 1972              		.loc 1 509 0
 1973 0014 384F     		ldr	r7, .L91+4
 1974 0016 3870     		strb	r0, [r7]
 510:.\herkulex2.c ****     cmd = RAM_READ;
 1975              		.loc 1 510 0
 1976 0018 384E     		ldr	r6, .L91+8
 1977 001a 0423     		mov	r3, #4
 1978 001c 3370     		strb	r3, [r6]
 511:.\herkulex2.c ****     data[0] = 0x3A;
 1979              		.loc 1 511 0
 1980 001e 384C     		ldr	r4, .L91+12
 1981 0020 3A23     		mov	r3, #58
 1982 0022 2370     		strb	r3, [r4]
 512:.\herkulex2.c ****     data[1] = 0x02;
 1983              		.loc 1 512 0
 1984 0024 0223     		mov	r3, #2
 1985 0026 6370     		strb	r3, [r4, #1]
 513:.\herkulex2.c ****     lengthString = 2;
 1986              		.loc 1 513 0
 1987 0028 364A     		ldr	r2, .L91+16
 1988 002a 9346     		mov	fp, r2
 1989 002c 1370     		strb	r3, [r2]
 514:.\herkulex2.c ****     
 515:.\herkulex2.c ****     ck1 = checksum1( data , lengthString );
 1990              		.loc 1 515 0
 1991 002e 201C     		mov	r0, r4
 1992              	.LVL164:
 1993 0030 0221     		mov	r1, #2
 1994 0032 FFF7FEFF 		bl	checksum1
 1995              	.LVL165:
 1996 0036 8146     		mov	r9, r0
 1997 0038 334B     		ldr	r3, .L91+20
 1998 003a 9A46     		mov	r10, r3
 1999 003c 5246     		mov	r2, r10
 2000 003e 1070     		strb	r0, [r2]
 516:.\herkulex2.c ****     ck2 = checksum2( ck1 );
 2001              		.loc 1 516 0
 2002 0040 FFF7FEFF 		bl	checksum2
 2003              	.LVL166:
 2004 0044 314A     		ldr	r2, .L91+24
 2005 0046 1070     		strb	r0, [r2]
 517:.\herkulex2.c ****     
 518:.\herkulex2.c ****     dataEx[0] = HEADER;
 2006              		.loc 1 518 0
 2007 0048 314D     		ldr	r5, .L91+28
 2008 004a FF23     		mov	r3, #255
ARM GAS  C:\Users\EDTRIC~1\AppData\Local\Temp\ccbcYoXT.s 			page 46


 2009 004c 2B70     		strb	r3, [r5]
 519:.\herkulex2.c ****     dataEx[1] = HEADER;
 2010              		.loc 1 519 0
 2011 004e 6B70     		strb	r3, [r5, #1]
 520:.\herkulex2.c ****     dataEx[2] = pSize;
 2012              		.loc 1 520 0
 2013 0050 4346     		mov	r3, r8
 2014 0052 1978     		ldrb	r1, [r3]
 2015 0054 A970     		strb	r1, [r5, #2]
 521:.\herkulex2.c ****     dataEx[3] = pID;
 2016              		.loc 1 521 0
 2017 0056 3B78     		ldrb	r3, [r7]
 2018 0058 EB70     		strb	r3, [r5, #3]
 522:.\herkulex2.c ****     dataEx[4] = cmd;
 2019              		.loc 1 522 0
 2020 005a 3378     		ldrb	r3, [r6]
 2021 005c 2B71     		strb	r3, [r5, #4]
 523:.\herkulex2.c ****     dataEx[5] = ck1;
 2022              		.loc 1 523 0
 2023 005e 4A46     		mov	r2, r9
 2024 0060 6A71     		strb	r2, [r5, #5]
 524:.\herkulex2.c ****     dataEx[6] = ck2;
 2025              		.loc 1 524 0
 2026 0062 A871     		strb	r0, [r5, #6]
 525:.\herkulex2.c ****     dataEx[7] = data[0];
 2027              		.loc 1 525 0
 2028 0064 2378     		ldrb	r3, [r4]
 2029 0066 EB71     		strb	r3, [r5, #7]
 526:.\herkulex2.c ****     dataEx[8] = data[1];
 2030              		.loc 1 526 0
 2031 0068 6378     		ldrb	r3, [r4, #1]
 2032 006a 2B72     		strb	r3, [r5, #8]
 527:.\herkulex2.c ****     
 528:.\herkulex2.c ****     sendData( dataEx , pSize );
 2033              		.loc 1 528 0
 2034 006c 281C     		mov	r0, r5
 2035 006e FFF7FEFF 		bl	sendData
 2036              	.LVL167:
 529:.\herkulex2.c ****     CyDelay(5);
 2037              		.loc 1 529 0
 2038 0072 0520     		mov	r0, #5
 2039 0074 FFF7FEFF 		bl	CyDelay
 2040              	.LVL168:
 530:.\herkulex2.c ****     readData(13);
 2041              		.loc 1 530 0
 2042 0078 0D20     		mov	r0, #13
 2043 007a FFF7FEFF 		bl	readData
 2044              	.LVL169:
 531:.\herkulex2.c ****     
 532:.\herkulex2.c ****     pSize = dataEx[2];
 2045              		.loc 1 532 0
 2046 007e AB78     		ldrb	r3, [r5, #2]
 2047 0080 4246     		mov	r2, r8
 2048 0082 1370     		strb	r3, [r2]
 533:.\herkulex2.c ****     pID = dataEx[3];
 2049              		.loc 1 533 0
 2050 0084 EB78     		ldrb	r3, [r5, #3]
ARM GAS  C:\Users\EDTRIC~1\AppData\Local\Temp\ccbcYoXT.s 			page 47


 2051 0086 3B70     		strb	r3, [r7]
 534:.\herkulex2.c ****     cmd = dataEx[4];
 2052              		.loc 1 534 0
 2053 0088 2B79     		ldrb	r3, [r5, #4]
 2054 008a 3370     		strb	r3, [r6]
 535:.\herkulex2.c ****     data[0] = data[7];
 2055              		.loc 1 535 0
 2056 008c E379     		ldrb	r3, [r4, #7]
 2057 008e 2370     		strb	r3, [r4]
 536:.\herkulex2.c ****     data[1] = data[8];
 2058              		.loc 1 536 0
 2059 0090 237A     		ldrb	r3, [r4, #8]
 2060 0092 6370     		strb	r3, [r4, #1]
 537:.\herkulex2.c ****     data[2] = data[9];
 2061              		.loc 1 537 0
 2062 0094 637A     		ldrb	r3, [r4, #9]
 2063 0096 A370     		strb	r3, [r4, #2]
 538:.\herkulex2.c ****     data[3] = data[10];
 2064              		.loc 1 538 0
 2065 0098 A37A     		ldrb	r3, [r4, #10]
 2066 009a E370     		strb	r3, [r4, #3]
 539:.\herkulex2.c ****     data[4] = data[11];
 2067              		.loc 1 539 0
 2068 009c E37A     		ldrb	r3, [r4, #11]
 2069 009e 2371     		strb	r3, [r4, #4]
 540:.\herkulex2.c ****     data[5] = data[12];
 2070              		.loc 1 540 0
 2071 00a0 237B     		ldrb	r3, [r4, #12]
 2072 00a2 6371     		strb	r3, [r4, #5]
 541:.\herkulex2.c ****     lengthString = 6;
 2073              		.loc 1 541 0
 2074 00a4 0623     		mov	r3, #6
 2075 00a6 5A46     		mov	r2, fp
 2076 00a8 1370     		strb	r3, [r2]
 542:.\herkulex2.c ****     
 543:.\herkulex2.c ****     ck1 = checksum1( data , lengthString );
 2077              		.loc 1 543 0
 2078 00aa 201C     		mov	r0, r4
 2079 00ac 0621     		mov	r1, #6
 2080 00ae FFF7FEFF 		bl	checksum1
 2081              	.LVL170:
 2082 00b2 041C     		mov	r4, r0
 2083 00b4 5346     		mov	r3, r10
 2084 00b6 1870     		strb	r0, [r3]
 544:.\herkulex2.c ****     ck2 = checksum2( ck1 );
 2085              		.loc 1 544 0
 2086 00b8 FFF7FEFF 		bl	checksum2
 2087              	.LVL171:
 2088 00bc 134B     		ldr	r3, .L91+24
 2089 00be 1870     		strb	r0, [r3]
 545:.\herkulex2.c ****     
 546:.\herkulex2.c ****     if( ck1 != dataEx[5] ) return -1;
 2090              		.loc 1 546 0
 2091 00c0 6B79     		ldrb	r3, [r5, #5]
 2092 00c2 9C42     		cmp	r4, r3
 2093 00c4 0BD1     		bne	.L89
 547:.\herkulex2.c ****     if( ck2 != dataEx[6] ) return -1;
ARM GAS  C:\Users\EDTRIC~1\AppData\Local\Temp\ccbcYoXT.s 			page 48


 2094              		.loc 1 547 0
 2095 00c6 124B     		ldr	r3, .L91+28
 2096 00c8 9B79     		ldrb	r3, [r3, #6]
 2097 00ca 9842     		cmp	r0, r3
 2098 00cc 0AD1     		bne	.L90
 548:.\herkulex2.c ****     
 549:.\herkulex2.c ****     position = ( (dataEx[10] & 0x03) << 8 ) | dataEx[9];
 2099              		.loc 1 549 0
 2100 00ce 104B     		ldr	r3, .L91+28
 2101 00d0 9A7A     		ldrb	r2, [r3, #10]
 2102 00d2 0320     		mov	r0, #3
 2103 00d4 1040     		and	r0, r2
 2104 00d6 0002     		lsl	r0, r0, #8
 2105 00d8 5B7A     		ldrb	r3, [r3, #9]
 2106 00da 1843     		orr	r0, r3
 2107              	.LVL172:
 550:.\herkulex2.c ****     return position;
 2108              		.loc 1 550 0
 2109 00dc 04E0     		b	.L88
 2110              	.LVL173:
 2111              	.L89:
 546:.\herkulex2.c ****     if( ck1 != dataEx[5] ) return -1;
 2112              		.loc 1 546 0
 2113 00de 0120     		mov	r0, #1
 2114 00e0 4042     		neg	r0, r0
 2115 00e2 01E0     		b	.L88
 2116              	.L90:
 547:.\herkulex2.c ****     if( ck2 != dataEx[6] ) return -1;
 2117              		.loc 1 547 0
 2118 00e4 0120     		mov	r0, #1
 2119 00e6 4042     		neg	r0, r0
 2120              	.LVL174:
 2121              	.L88:
 551:.\herkulex2.c **** }
 2122              		.loc 1 551 0
 2123              		@ sp needed
 2124 00e8 3CBC     		pop	{r2, r3, r4, r5}
 2125 00ea 9046     		mov	r8, r2
 2126 00ec 9946     		mov	r9, r3
 2127 00ee A246     		mov	r10, r4
 2128 00f0 AB46     		mov	fp, r5
 2129 00f2 F8BD     		pop	{r3, r4, r5, r6, r7, pc}
 2130              	.L92:
 2131              		.align	2
 2132              	.L91:
 2133 00f4 00000000 		.word	pSize
 2134 00f8 00000000 		.word	pID
 2135 00fc 00000000 		.word	cmd
 2136 0100 00000000 		.word	data
 2137 0104 00000000 		.word	lengthString
 2138 0108 00000000 		.word	ck1
 2139 010c 00000000 		.word	ck2
 2140 0110 00000000 		.word	dataEx
 2141              		.cfi_endproc
 2142              	.LFE53:
 2143              		.size	Servo_getPosition, .-Servo_getPosition
 2144              		.global	__aeabi_i2d
ARM GAS  C:\Users\EDTRIC~1\AppData\Local\Temp\ccbcYoXT.s 			page 49


 2145              		.global	__aeabi_dmul
 2146              		.global	__aeabi_d2f
 2147              		.section	.text.Servo_getAngle,"ax",%progbits
 2148              		.align	2
 2149              		.global	Servo_getAngle
 2150              		.code	16
 2151              		.thumb_func
 2152              		.type	Servo_getAngle, %function
 2153              	Servo_getAngle:
 2154              	.LFB54:
 552:.\herkulex2.c **** 
 553:.\herkulex2.c **** float Servo_getAngle ( uint8 servoID )
 554:.\herkulex2.c **** {
 2155              		.loc 1 554 0
 2156              		.cfi_startproc
 2157              	.LVL175:
 2158 0000 08B5     		push	{r3, lr}
 2159              		.cfi_def_cfa_offset 8
 2160              		.cfi_offset 3, -8
 2161              		.cfi_offset 14, -4
 555:.\herkulex2.c ****     int pos = (int)Servo_getPosition(servoID);
 2162              		.loc 1 555 0
 2163 0002 FFF7FEFF 		bl	Servo_getPosition
 2164              	.LVL176:
 556:.\herkulex2.c ****     return ( pos - 512 ) * 0.325;
 2165              		.loc 1 556 0
 2166 0006 084B     		ldr	r3, .L94+8
 2167 0008 C018     		add	r0, r0, r3
 2168              	.LVL177:
 2169 000a FFF7FEFF 		bl	__aeabi_i2d
 2170              	.LVL178:
 2171 000e 054B     		ldr	r3, .L94+4
 2172 0010 034A     		ldr	r2, .L94
 2173 0012 FFF7FEFF 		bl	__aeabi_dmul
 2174              	.LVL179:
 2175 0016 FFF7FEFF 		bl	__aeabi_d2f
 2176              	.LVL180:
 557:.\herkulex2.c **** }
 2177              		.loc 1 557 0
 2178              		@ sp needed
 2179 001a 08BD     		pop	{r3, pc}
 2180              	.L95:
 2181 001c C046C046 		.align	3
 2182              	.L94:
 2183 0020 CDCCCCCC 		.word	-858993459
 2184 0024 CCCCD43F 		.word	1070910668
 2185 0028 00FEFFFF 		.word	-512
 2186              		.cfi_endproc
 2187              	.LFE54:
 2188              		.size	Servo_getAngle, .-Servo_getAngle
 2189 002c C046C046 		.section	.text.Servo_getSpeed,"ax",%progbits
 2190              		.align	2
 2191              		.global	Servo_getSpeed
 2192              		.code	16
 2193              		.thumb_func
 2194              		.type	Servo_getSpeed, %function
 2195              	Servo_getSpeed:
ARM GAS  C:\Users\EDTRIC~1\AppData\Local\Temp\ccbcYoXT.s 			page 50


 2196              	.LFB55:
 558:.\herkulex2.c **** 
 559:.\herkulex2.c **** int Servo_getSpeed ( uint8 servoID )
 560:.\herkulex2.c **** {
 2197              		.loc 1 560 0
 2198              		.cfi_startproc
 2199              	.LVL181:
 2200 0000 F8B5     		push	{r3, r4, r5, r6, r7, lr}
 2201              		.cfi_def_cfa_offset 24
 2202              		.cfi_offset 3, -24
 2203              		.cfi_offset 4, -20
 2204              		.cfi_offset 5, -16
 2205              		.cfi_offset 6, -12
 2206              		.cfi_offset 7, -8
 2207              		.cfi_offset 14, -4
 2208 0002 5F46     		mov	r7, fp
 2209 0004 5646     		mov	r6, r10
 2210 0006 4D46     		mov	r5, r9
 2211 0008 4446     		mov	r4, r8
 2212 000a F0B4     		push	{r4, r5, r6, r7}
 2213              		.cfi_def_cfa_offset 40
 2214              		.cfi_offset 8, -40
 2215              		.cfi_offset 9, -36
 2216              		.cfi_offset 10, -32
 2217              		.cfi_offset 11, -28
 2218              	.LVL182:
 561:.\herkulex2.c ****     int speed = 0;
 562:.\herkulex2.c ****     
 563:.\herkulex2.c ****     pSize = 0x09;
 2219              		.loc 1 563 0
 2220 000c 384A     		ldr	r2, .L100
 2221 000e 9046     		mov	r8, r2
 2222 0010 0923     		mov	r3, #9
 2223 0012 1370     		strb	r3, [r2]
 564:.\herkulex2.c ****     pID = servoID;
 2224              		.loc 1 564 0
 2225 0014 374F     		ldr	r7, .L100+4
 2226 0016 3870     		strb	r0, [r7]
 565:.\herkulex2.c ****     cmd = RAM_READ;
 2227              		.loc 1 565 0
 2228 0018 374E     		ldr	r6, .L100+8
 2229 001a 0423     		mov	r3, #4
 2230 001c 3370     		strb	r3, [r6]
 566:.\herkulex2.c ****     data[0] = 0x40;
 2231              		.loc 1 566 0
 2232 001e 374C     		ldr	r4, .L100+12
 2233 0020 4023     		mov	r3, #64
 2234 0022 2370     		strb	r3, [r4]
 567:.\herkulex2.c ****     data[1] = 0x02;
 2235              		.loc 1 567 0
 2236 0024 0223     		mov	r3, #2
 2237 0026 6370     		strb	r3, [r4, #1]
 568:.\herkulex2.c ****     lengthString = 2;
 2238              		.loc 1 568 0
 2239 0028 354A     		ldr	r2, .L100+16
 2240 002a 9346     		mov	fp, r2
 2241 002c 1370     		strb	r3, [r2]
ARM GAS  C:\Users\EDTRIC~1\AppData\Local\Temp\ccbcYoXT.s 			page 51


 569:.\herkulex2.c ****     
 570:.\herkulex2.c ****     ck1 = checksum1( data , lengthString );
 2242              		.loc 1 570 0
 2243 002e 201C     		mov	r0, r4
 2244              	.LVL183:
 2245 0030 0221     		mov	r1, #2
 2246 0032 FFF7FEFF 		bl	checksum1
 2247              	.LVL184:
 2248 0036 8146     		mov	r9, r0
 2249 0038 324B     		ldr	r3, .L100+20
 2250 003a 9A46     		mov	r10, r3
 2251 003c 5246     		mov	r2, r10
 2252 003e 1070     		strb	r0, [r2]
 571:.\herkulex2.c ****     ck2 = checksum2( ck1 );
 2253              		.loc 1 571 0
 2254 0040 FFF7FEFF 		bl	checksum2
 2255              	.LVL185:
 2256 0044 304A     		ldr	r2, .L100+24
 2257 0046 1070     		strb	r0, [r2]
 572:.\herkulex2.c ****     
 573:.\herkulex2.c ****     dataEx[0] = HEADER;
 2258              		.loc 1 573 0
 2259 0048 304D     		ldr	r5, .L100+28
 2260 004a FF23     		mov	r3, #255
 2261 004c 2B70     		strb	r3, [r5]
 574:.\herkulex2.c ****     dataEx[1] = HEADER;
 2262              		.loc 1 574 0
 2263 004e 6B70     		strb	r3, [r5, #1]
 575:.\herkulex2.c ****     dataEx[2] = pSize;
 2264              		.loc 1 575 0
 2265 0050 4346     		mov	r3, r8
 2266 0052 1978     		ldrb	r1, [r3]
 2267 0054 A970     		strb	r1, [r5, #2]
 576:.\herkulex2.c ****     dataEx[3] = pID;
 2268              		.loc 1 576 0
 2269 0056 3B78     		ldrb	r3, [r7]
 2270 0058 EB70     		strb	r3, [r5, #3]
 577:.\herkulex2.c ****     dataEx[4] = cmd;
 2271              		.loc 1 577 0
 2272 005a 3378     		ldrb	r3, [r6]
 2273 005c 2B71     		strb	r3, [r5, #4]
 578:.\herkulex2.c ****     dataEx[5] = ck1;
 2274              		.loc 1 578 0
 2275 005e 4A46     		mov	r2, r9
 2276 0060 6A71     		strb	r2, [r5, #5]
 579:.\herkulex2.c ****     dataEx[6] = ck2;
 2277              		.loc 1 579 0
 2278 0062 A871     		strb	r0, [r5, #6]
 580:.\herkulex2.c ****     dataEx[7] = data[0];
 2279              		.loc 1 580 0
 2280 0064 2378     		ldrb	r3, [r4]
 2281 0066 EB71     		strb	r3, [r5, #7]
 581:.\herkulex2.c ****     dataEx[8] = data[1];
 2282              		.loc 1 581 0
 2283 0068 6378     		ldrb	r3, [r4, #1]
 2284 006a 2B72     		strb	r3, [r5, #8]
 582:.\herkulex2.c ****     
ARM GAS  C:\Users\EDTRIC~1\AppData\Local\Temp\ccbcYoXT.s 			page 52


 583:.\herkulex2.c ****     sendData( dataEx , pSize );
 2285              		.loc 1 583 0
 2286 006c 281C     		mov	r0, r5
 2287 006e FFF7FEFF 		bl	sendData
 2288              	.LVL186:
 584:.\herkulex2.c ****     CyDelay(5);
 2289              		.loc 1 584 0
 2290 0072 0520     		mov	r0, #5
 2291 0074 FFF7FEFF 		bl	CyDelay
 2292              	.LVL187:
 585:.\herkulex2.c ****     readData(13);
 2293              		.loc 1 585 0
 2294 0078 0D20     		mov	r0, #13
 2295 007a FFF7FEFF 		bl	readData
 2296              	.LVL188:
 586:.\herkulex2.c ****     
 587:.\herkulex2.c ****     pSize = dataEx[2];
 2297              		.loc 1 587 0
 2298 007e AB78     		ldrb	r3, [r5, #2]
 2299 0080 4246     		mov	r2, r8
 2300 0082 1370     		strb	r3, [r2]
 588:.\herkulex2.c ****     pID = dataEx[3];
 2301              		.loc 1 588 0
 2302 0084 EB78     		ldrb	r3, [r5, #3]
 2303 0086 3B70     		strb	r3, [r7]
 589:.\herkulex2.c ****     cmd = dataEx[4];
 2304              		.loc 1 589 0
 2305 0088 2B79     		ldrb	r3, [r5, #4]
 2306 008a 3370     		strb	r3, [r6]
 590:.\herkulex2.c ****     data[0] = data[7];
 2307              		.loc 1 590 0
 2308 008c E379     		ldrb	r3, [r4, #7]
 2309 008e 2370     		strb	r3, [r4]
 591:.\herkulex2.c ****     data[1] = data[8];
 2310              		.loc 1 591 0
 2311 0090 237A     		ldrb	r3, [r4, #8]
 2312 0092 6370     		strb	r3, [r4, #1]
 592:.\herkulex2.c ****     data[2] = data[9];
 2313              		.loc 1 592 0
 2314 0094 637A     		ldrb	r3, [r4, #9]
 2315 0096 A370     		strb	r3, [r4, #2]
 593:.\herkulex2.c ****     data[3] = data[10];
 2316              		.loc 1 593 0
 2317 0098 A37A     		ldrb	r3, [r4, #10]
 2318 009a E370     		strb	r3, [r4, #3]
 594:.\herkulex2.c ****     data[4] = data[11];
 2319              		.loc 1 594 0
 2320 009c E37A     		ldrb	r3, [r4, #11]
 2321 009e 2371     		strb	r3, [r4, #4]
 595:.\herkulex2.c ****     data[5] = data[12];
 2322              		.loc 1 595 0
 2323 00a0 237B     		ldrb	r3, [r4, #12]
 2324 00a2 6371     		strb	r3, [r4, #5]
 596:.\herkulex2.c ****     lengthString = 6;
 2325              		.loc 1 596 0
 2326 00a4 0623     		mov	r3, #6
 2327 00a6 5A46     		mov	r2, fp
ARM GAS  C:\Users\EDTRIC~1\AppData\Local\Temp\ccbcYoXT.s 			page 53


 2328 00a8 1370     		strb	r3, [r2]
 597:.\herkulex2.c ****     
 598:.\herkulex2.c ****     ck1 = checksum1( data , lengthString );
 2329              		.loc 1 598 0
 2330 00aa 201C     		mov	r0, r4
 2331 00ac 0621     		mov	r1, #6
 2332 00ae FFF7FEFF 		bl	checksum1
 2333              	.LVL189:
 2334 00b2 041C     		mov	r4, r0
 2335 00b4 5346     		mov	r3, r10
 2336 00b6 1870     		strb	r0, [r3]
 599:.\herkulex2.c ****     ck2 = checksum2( ck1 );
 2337              		.loc 1 599 0
 2338 00b8 FFF7FEFF 		bl	checksum2
 2339              	.LVL190:
 2340 00bc 124B     		ldr	r3, .L100+24
 2341 00be 1870     		strb	r0, [r3]
 600:.\herkulex2.c ****     
 601:.\herkulex2.c ****     if( ck1 != dataEx[5] ) return -1;
 2342              		.loc 1 601 0
 2343 00c0 6B79     		ldrb	r3, [r5, #5]
 2344 00c2 9C42     		cmp	r4, r3
 2345 00c4 09D1     		bne	.L98
 602:.\herkulex2.c ****     if( ck2 != dataEx[6] ) return -1;
 2346              		.loc 1 602 0
 2347 00c6 114B     		ldr	r3, .L100+28
 2348 00c8 9B79     		ldrb	r3, [r3, #6]
 2349 00ca 9842     		cmp	r0, r3
 2350 00cc 08D1     		bne	.L99
 603:.\herkulex2.c ****     
 604:.\herkulex2.c ****     speed = ( (dataEx[10] & 0xFF) << 8 ) | dataEx[9];
 2351              		.loc 1 604 0
 2352 00ce 0F4B     		ldr	r3, .L100+28
 2353 00d0 987A     		ldrb	r0, [r3, #10]
 2354 00d2 0002     		lsl	r0, r0, #8
 2355 00d4 5B7A     		ldrb	r3, [r3, #9]
 2356 00d6 1843     		orr	r0, r3
 2357              	.LVL191:
 605:.\herkulex2.c ****     return speed;
 2358              		.loc 1 605 0
 2359 00d8 04E0     		b	.L97
 2360              	.LVL192:
 2361              	.L98:
 601:.\herkulex2.c ****     if( ck1 != dataEx[5] ) return -1;
 2362              		.loc 1 601 0
 2363 00da 0120     		mov	r0, #1
 2364 00dc 4042     		neg	r0, r0
 2365 00de 01E0     		b	.L97
 2366              	.L99:
 602:.\herkulex2.c ****     if( ck2 != dataEx[6] ) return -1;
 2367              		.loc 1 602 0
 2368 00e0 0120     		mov	r0, #1
 2369 00e2 4042     		neg	r0, r0
 2370              	.LVL193:
 2371              	.L97:
 606:.\herkulex2.c **** }
 2372              		.loc 1 606 0
ARM GAS  C:\Users\EDTRIC~1\AppData\Local\Temp\ccbcYoXT.s 			page 54


 2373              		@ sp needed
 2374 00e4 3CBC     		pop	{r2, r3, r4, r5}
 2375 00e6 9046     		mov	r8, r2
 2376 00e8 9946     		mov	r9, r3
 2377 00ea A246     		mov	r10, r4
 2378 00ec AB46     		mov	fp, r5
 2379 00ee F8BD     		pop	{r3, r4, r5, r6, r7, pc}
 2380              	.L101:
 2381              		.align	2
 2382              	.L100:
 2383 00f0 00000000 		.word	pSize
 2384 00f4 00000000 		.word	pID
 2385 00f8 00000000 		.word	cmd
 2386 00fc 00000000 		.word	data
 2387 0100 00000000 		.word	lengthString
 2388 0104 00000000 		.word	ck1
 2389 0108 00000000 		.word	ck2
 2390 010c 00000000 		.word	dataEx
 2391              		.cfi_endproc
 2392              	.LFE55:
 2393              		.size	Servo_getSpeed, .-Servo_getSpeed
 2394              		.section	.text.Servo_reboot,"ax",%progbits
 2395              		.align	2
 2396              		.global	Servo_reboot
 2397              		.code	16
 2398              		.thumb_func
 2399              		.type	Servo_reboot, %function
 2400              	Servo_reboot:
 2401              	.LFB56:
 607:.\herkulex2.c **** 
 608:.\herkulex2.c **** void Servo_reboot( uint8 servoID )
 609:.\herkulex2.c **** {
 2402              		.loc 1 609 0
 2403              		.cfi_startproc
 2404              	.LVL194:
 2405 0000 70B5     		push	{r4, r5, r6, lr}
 2406              		.cfi_def_cfa_offset 16
 2407              		.cfi_offset 4, -16
 2408              		.cfi_offset 5, -12
 2409              		.cfi_offset 6, -8
 2410              		.cfi_offset 14, -4
 610:.\herkulex2.c ****     pSize = 0x07;
 2411              		.loc 1 610 0
 2412 0002 0725     		mov	r5, #7
 2413 0004 114B     		ldr	r3, .L103
 2414 0006 1D70     		strb	r5, [r3]
 611:.\herkulex2.c ****     pID = servoID;
 2415              		.loc 1 611 0
 2416 0008 114B     		ldr	r3, .L103+4
 2417 000a 1870     		strb	r0, [r3]
 612:.\herkulex2.c ****     cmd = REBOOT;
 2418              		.loc 1 612 0
 2419 000c 0924     		mov	r4, #9
 2420 000e 114B     		ldr	r3, .L103+8
 2421 0010 1C70     		strb	r4, [r3]
 613:.\herkulex2.c ****     
 614:.\herkulex2.c ****     ck1 = ( pSize ^ pID ^ cmd) & 0xFE;
ARM GAS  C:\Users\EDTRIC~1\AppData\Local\Temp\ccbcYoXT.s 			page 55


 2422              		.loc 1 614 0
 2423 0012 0722     		mov	r2, #7
 2424 0014 4240     		eor	r2, r0
 2425 0016 0923     		mov	r3, #9
 2426 0018 5A40     		eor	r2, r3
 2427 001a D2B2     		uxtb	r2, r2
 2428 001c 0123     		mov	r3, #1
 2429 001e 111C     		mov	r1, r2
 2430 0020 9943     		bic	r1, r3
 2431 0022 0D4E     		ldr	r6, .L103+12
 2432 0024 3170     		strb	r1, [r6]
 615:.\herkulex2.c ****     ck2 = ( ~( pSize ^ pID ^ cmd ) ) & 0xFE;
 2433              		.loc 1 615 0
 2434 0026 D243     		mvn	r2, r2
 2435 0028 9A43     		bic	r2, r3
 2436 002a D2B2     		uxtb	r2, r2
 2437 002c 0B4B     		ldr	r3, .L103+16
 2438 002e 1A70     		strb	r2, [r3]
 616:.\herkulex2.c ****     
 617:.\herkulex2.c ****     dataEx[0] = HEADER;
 2439              		.loc 1 617 0
 2440 0030 0B4B     		ldr	r3, .L103+20
 2441 0032 FF26     		mov	r6, #255
 2442 0034 1E70     		strb	r6, [r3]
 618:.\herkulex2.c ****     dataEx[1] = HEADER;
 2443              		.loc 1 618 0
 2444 0036 5E70     		strb	r6, [r3, #1]
 619:.\herkulex2.c ****     dataEx[2] = pSize;
 2445              		.loc 1 619 0
 2446 0038 9D70     		strb	r5, [r3, #2]
 620:.\herkulex2.c ****     dataEx[3] = pID;
 2447              		.loc 1 620 0
 2448 003a D870     		strb	r0, [r3, #3]
 621:.\herkulex2.c ****     dataEx[4] = cmd;
 2449              		.loc 1 621 0
 2450 003c 1C71     		strb	r4, [r3, #4]
 622:.\herkulex2.c ****     dataEx[5] = ck1;
 2451              		.loc 1 622 0
 2452 003e 5971     		strb	r1, [r3, #5]
 623:.\herkulex2.c ****     dataEx[6] = ck2;
 2453              		.loc 1 623 0
 2454 0040 9A71     		strb	r2, [r3, #6]
 624:.\herkulex2.c ****     
 625:.\herkulex2.c ****     sendData( dataEx , pSize );
 2455              		.loc 1 625 0
 2456 0042 181C     		mov	r0, r3
 2457              	.LVL195:
 2458 0044 0721     		mov	r1, #7
 2459 0046 FFF7FEFF 		bl	sendData
 2460              	.LVL196:
 626:.\herkulex2.c **** }
 2461              		.loc 1 626 0
 2462              		@ sp needed
 2463 004a 70BD     		pop	{r4, r5, r6, pc}
 2464              	.L104:
 2465              		.align	2
 2466              	.L103:
ARM GAS  C:\Users\EDTRIC~1\AppData\Local\Temp\ccbcYoXT.s 			page 56


 2467 004c 00000000 		.word	pSize
 2468 0050 00000000 		.word	pID
 2469 0054 00000000 		.word	cmd
 2470 0058 00000000 		.word	ck1
 2471 005c 00000000 		.word	ck2
 2472 0060 00000000 		.word	dataEx
 2473              		.cfi_endproc
 2474              	.LFE56:
 2475              		.size	Servo_reboot, .-Servo_reboot
 2476              		.section	.text.Servo_setLED,"ax",%progbits
 2477              		.align	2
 2478              		.global	Servo_setLED
 2479              		.code	16
 2480              		.thumb_func
 2481              		.type	Servo_setLED, %function
 2482              	Servo_setLED:
 2483              	.LFB57:
 627:.\herkulex2.c **** 
 628:.\herkulex2.c **** void Servo_setLED( uint8 servoID , uint8 LED_Value )
 629:.\herkulex2.c **** {
 2484              		.loc 1 629 0
 2485              		.cfi_startproc
 2486              	.LVL197:
 2487 0000 F0B5     		push	{r4, r5, r6, r7, lr}
 2488              		.cfi_def_cfa_offset 20
 2489              		.cfi_offset 4, -20
 2490              		.cfi_offset 5, -16
 2491              		.cfi_offset 6, -12
 2492              		.cfi_offset 7, -8
 2493              		.cfi_offset 14, -4
 2494 0002 4746     		mov	r7, r8
 2495 0004 80B4     		push	{r7}
 2496              		.cfi_def_cfa_offset 24
 2497              		.cfi_offset 8, -24
 630:.\herkulex2.c ****     pSize = 0x0A;
 2498              		.loc 1 630 0
 2499 0006 1A4A     		ldr	r2, .L106
 2500 0008 9046     		mov	r8, r2
 2501 000a 0A23     		mov	r3, #10
 2502 000c 1370     		strb	r3, [r2]
 631:.\herkulex2.c ****     pID = servoID;
 2503              		.loc 1 631 0
 2504 000e 194F     		ldr	r7, .L106+4
 2505 0010 3870     		strb	r0, [r7]
 632:.\herkulex2.c ****     cmd = RAM_WRITE;
 2506              		.loc 1 632 0
 2507 0012 194E     		ldr	r6, .L106+8
 2508 0014 0323     		mov	r3, #3
 2509 0016 3370     		strb	r3, [r6]
 633:.\herkulex2.c ****     data[0] = 0x35;
 2510              		.loc 1 633 0
 2511 0018 184C     		ldr	r4, .L106+12
 2512 001a 3522     		mov	r2, #53
 2513 001c 2270     		strb	r2, [r4]
 634:.\herkulex2.c ****     data[1] = 0x01;
 2514              		.loc 1 634 0
 2515 001e 0122     		mov	r2, #1
ARM GAS  C:\Users\EDTRIC~1\AppData\Local\Temp\ccbcYoXT.s 			page 57


 2516 0020 6270     		strb	r2, [r4, #1]
 635:.\herkulex2.c ****     data[2] = LED_Value;
 2517              		.loc 1 635 0
 2518 0022 A170     		strb	r1, [r4, #2]
 636:.\herkulex2.c ****     lengthString = 3;
 2519              		.loc 1 636 0
 2520 0024 164A     		ldr	r2, .L106+16
 2521 0026 1370     		strb	r3, [r2]
 637:.\herkulex2.c ****     
 638:.\herkulex2.c ****     ck1 = checksum1( data , lengthString );
 2522              		.loc 1 638 0
 2523 0028 201C     		mov	r0, r4
 2524              	.LVL198:
 2525 002a 0321     		mov	r1, #3
 2526              	.LVL199:
 2527 002c FFF7FEFF 		bl	checksum1
 2528              	.LVL200:
 2529 0030 051C     		mov	r5, r0
 2530 0032 144B     		ldr	r3, .L106+20
 2531 0034 1870     		strb	r0, [r3]
 639:.\herkulex2.c ****     ck2 = checksum2( ck1 );
 2532              		.loc 1 639 0
 2533 0036 FFF7FEFF 		bl	checksum2
 2534              	.LVL201:
 2535 003a 134B     		ldr	r3, .L106+24
 2536 003c 1870     		strb	r0, [r3]
 640:.\herkulex2.c ****     
 641:.\herkulex2.c ****     dataEx[0] = HEADER;
 2537              		.loc 1 641 0
 2538 003e 134B     		ldr	r3, .L106+28
 2539 0040 FF22     		mov	r2, #255
 2540 0042 1A70     		strb	r2, [r3]
 642:.\herkulex2.c ****     dataEx[1] = HEADER;
 2541              		.loc 1 642 0
 2542 0044 5A70     		strb	r2, [r3, #1]
 643:.\herkulex2.c ****     dataEx[2] = pSize;
 2543              		.loc 1 643 0
 2544 0046 4246     		mov	r2, r8
 2545 0048 1178     		ldrb	r1, [r2]
 2546 004a 9970     		strb	r1, [r3, #2]
 644:.\herkulex2.c ****     dataEx[3] = pID;
 2547              		.loc 1 644 0
 2548 004c 3A78     		ldrb	r2, [r7]
 2549 004e DA70     		strb	r2, [r3, #3]
 645:.\herkulex2.c ****     dataEx[4] = cmd;
 2550              		.loc 1 645 0
 2551 0050 3278     		ldrb	r2, [r6]
 2552 0052 1A71     		strb	r2, [r3, #4]
 646:.\herkulex2.c ****     dataEx[5] = ck1;
 2553              		.loc 1 646 0
 2554 0054 5D71     		strb	r5, [r3, #5]
 647:.\herkulex2.c ****     dataEx[6] = ck2;
 2555              		.loc 1 647 0
 2556 0056 9871     		strb	r0, [r3, #6]
 648:.\herkulex2.c ****     dataEx[7] = data[0];
 2557              		.loc 1 648 0
 2558 0058 2278     		ldrb	r2, [r4]
ARM GAS  C:\Users\EDTRIC~1\AppData\Local\Temp\ccbcYoXT.s 			page 58


 2559 005a DA71     		strb	r2, [r3, #7]
 649:.\herkulex2.c ****     dataEx[8] = data[1];
 2560              		.loc 1 649 0
 2561 005c 6278     		ldrb	r2, [r4, #1]
 2562 005e 1A72     		strb	r2, [r3, #8]
 650:.\herkulex2.c ****     dataEx[9] = data[2];
 2563              		.loc 1 650 0
 2564 0060 A278     		ldrb	r2, [r4, #2]
 2565 0062 5A72     		strb	r2, [r3, #9]
 651:.\herkulex2.c ****     
 652:.\herkulex2.c ****     sendData( dataEx , pSize );
 2566              		.loc 1 652 0
 2567 0064 181C     		mov	r0, r3
 2568 0066 FFF7FEFF 		bl	sendData
 2569              	.LVL202:
 653:.\herkulex2.c **** }
 2570              		.loc 1 653 0
 2571              		@ sp needed
 2572 006a 04BC     		pop	{r2}
 2573 006c 9046     		mov	r8, r2
 2574 006e F0BD     		pop	{r4, r5, r6, r7, pc}
 2575              	.L107:
 2576              		.align	2
 2577              	.L106:
 2578 0070 00000000 		.word	pSize
 2579 0074 00000000 		.word	pID
 2580 0078 00000000 		.word	cmd
 2581 007c 00000000 		.word	data
 2582 0080 00000000 		.word	lengthString
 2583 0084 00000000 		.word	ck1
 2584 0088 00000000 		.word	ck2
 2585 008c 00000000 		.word	dataEx
 2586              		.cfi_endproc
 2587              	.LFE57:
 2588              		.size	Servo_setLED, .-Servo_setLED
 2589              		.section	.text.Servo_moveOne,"ax",%progbits
 2590              		.align	2
 2591              		.global	Servo_moveOne
 2592              		.code	16
 2593              		.thumb_func
 2594              		.type	Servo_moveOne, %function
 2595              	Servo_moveOne:
 2596              	.LFB58:
 654:.\herkulex2.c **** 
 655:.\herkulex2.c **** void Servo_moveOne (uint8 servoID , int goal , int time , uint8 LED )
 656:.\herkulex2.c **** {
 2597              		.loc 1 656 0
 2598              		.cfi_startproc
 2599              	.LVL203:
 2600 0000 F8B5     		push	{r3, r4, r5, r6, r7, lr}
 2601              		.cfi_def_cfa_offset 24
 2602              		.cfi_offset 3, -24
 2603              		.cfi_offset 4, -20
 2604              		.cfi_offset 5, -16
 2605              		.cfi_offset 6, -12
 2606              		.cfi_offset 7, -8
 2607              		.cfi_offset 14, -4
ARM GAS  C:\Users\EDTRIC~1\AppData\Local\Temp\ccbcYoXT.s 			page 59


 2608 0002 5F46     		mov	r7, fp
 2609 0004 5646     		mov	r6, r10
 2610 0006 4D46     		mov	r5, r9
 2611 0008 4446     		mov	r4, r8
 2612 000a F0B4     		push	{r4, r5, r6, r7}
 2613              		.cfi_def_cfa_offset 40
 2614              		.cfi_offset 8, -40
 2615              		.cfi_offset 9, -36
 2616              		.cfi_offset 10, -32
 2617              		.cfi_offset 11, -28
 2618 000c 041C     		mov	r4, r0
 657:.\herkulex2.c ****     if( goal > 1023 || goal < 0 ) return;
 2619              		.loc 1 657 0
 2620 000e 3C4D     		ldr	r5, .L115+8
 2621 0010 A942     		cmp	r1, r5
 2622 0012 6BD8     		bhi	.L108
 658:.\herkulex2.c ****     if( time < 0 || time > 2856 ) return;
 2623              		.loc 1 658 0
 2624 0014 3B48     		ldr	r0, .L115+12
 2625              	.LVL204:
 2626 0016 8242     		cmp	r2, r0
 2627 0018 68D8     		bhi	.L108
 659:.\herkulex2.c ****     
 660:.\herkulex2.c ****     int posLSB = goal & 0X00FF;
 2628              		.loc 1 660 0
 2629 001a FF27     		mov	r7, #255
 2630 001c 0F40     		and	r7, r1
 2631 001e B846     		mov	r8, r7
 2632              	.LVL205:
 661:.\herkulex2.c ****     int posMSB = ( goal & 0xFF00 ) >> 8;
 2633              		.loc 1 661 0
 2634 0020 0E04     		lsl	r6, r1, #16
 2635 0022 360E     		lsr	r6, r6, #24
 2636              	.LVL206:
 662:.\herkulex2.c **** 
 663:.\herkulex2.c ****     int blue = 0;
 664:.\herkulex2.c ****     int green = 0;
 665:.\herkulex2.c ****     int red = 0;
 666:.\herkulex2.c ****     switch (LED) 
 2637              		.loc 1 666 0
 2638 0024 022B     		cmp	r3, #2
 2639 0026 07D0     		beq	.L111
 2640 0028 042B     		cmp	r3, #4
 2641 002a 09D0     		beq	.L112
 2642 002c 012B     		cmp	r3, #1
 2643 002e 0BD0     		beq	.L114
 665:.\herkulex2.c ****     int red = 0;
 2644              		.loc 1 665 0
 2645 0030 0023     		mov	r3, #0
 2646              	.LVL207:
 664:.\herkulex2.c ****     int green = 0;
 2647              		.loc 1 664 0
 2648 0032 0021     		mov	r1, #0
 2649              	.LVL208:
 663:.\herkulex2.c ****     int blue = 0;
 2650              		.loc 1 663 0
 2651 0034 0025     		mov	r5, #0
ARM GAS  C:\Users\EDTRIC~1\AppData\Local\Temp\ccbcYoXT.s 			page 60


 2652 0036 0AE0     		b	.L113
 2653              	.LVL209:
 2654              	.L111:
 665:.\herkulex2.c ****     int red = 0;
 2655              		.loc 1 665 0
 2656 0038 0023     		mov	r3, #0
 2657              	.LVL210:
 664:.\herkulex2.c ****     int green = 0;
 2658              		.loc 1 664 0
 2659 003a 0021     		mov	r1, #0
 2660              	.LVL211:
 667:.\herkulex2.c ****     {
 668:.\herkulex2.c ****         case 1:
 669:.\herkulex2.c ****             green = 1;
 670:.\herkulex2.c ****             break;
 671:.\herkulex2.c ****         case 2:
 672:.\herkulex2.c ****             blue = 1;
 2661              		.loc 1 672 0
 2662 003c 0125     		mov	r5, #1
 673:.\herkulex2.c ****             break;
 2663              		.loc 1 673 0
 2664 003e 06E0     		b	.L113
 2665              	.LVL212:
 2666              	.L112:
 674:.\herkulex2.c ****         case 4:
 675:.\herkulex2.c ****             red = 1;
 2667              		.loc 1 675 0
 2668 0040 0123     		mov	r3, #1
 2669              	.LVL213:
 664:.\herkulex2.c ****     int green = 0;
 2670              		.loc 1 664 0
 2671 0042 0021     		mov	r1, #0
 2672              	.LVL214:
 663:.\herkulex2.c ****     int blue = 0;
 2673              		.loc 1 663 0
 2674 0044 0025     		mov	r5, #0
 676:.\herkulex2.c ****             break;
 2675              		.loc 1 676 0
 2676 0046 02E0     		b	.L113
 2677              	.LVL215:
 2678              	.L114:
 665:.\herkulex2.c ****     int red = 0;
 2679              		.loc 1 665 0
 2680 0048 0023     		mov	r3, #0
 2681              	.LVL216:
 669:.\herkulex2.c ****             green = 1;
 2682              		.loc 1 669 0
 2683 004a 0121     		mov	r1, #1
 2684              	.LVL217:
 663:.\herkulex2.c ****     int blue = 0;
 2685              		.loc 1 663 0
 2686 004c 0025     		mov	r5, #0
 2687              	.LVL218:
 2688              	.L113:
 677:.\herkulex2.c ****     }
 678:.\herkulex2.c ****     
 679:.\herkulex2.c ****     int setValue = green * 4 + blue * 8 + red * 16;
ARM GAS  C:\Users\EDTRIC~1\AppData\Local\Temp\ccbcYoXT.s 			page 61


 2689              		.loc 1 679 0
 2690 004e 6D00     		lsl	r5, r5, #1
 2691              	.LVL219:
 2692 0050 6D18     		add	r5, r5, r1
 2693 0052 9B00     		lsl	r3, r3, #2
 2694              	.LVL220:
 2695 0054 ED18     		add	r5, r5, r3
 2696 0056 AD00     		lsl	r5, r5, #2
 2697              	.LVL221:
 680:.\herkulex2.c ****     
 681:.\herkulex2.c ****     playTime = (int)((float)time/11.2);
 2698              		.loc 1 681 0
 2699 0058 101C     		mov	r0, r2
 2700 005a FFF7FEFF 		bl	__aeabi_i2f
 2701              	.LVL222:
 2702 005e FFF7FEFF 		bl	__aeabi_f2d
 2703              	.LVL223:
 2704 0062 264B     		ldr	r3, .L115+4
 2705 0064 244A     		ldr	r2, .L115
 2706 0066 FFF7FEFF 		bl	__aeabi_ddiv
 2707              	.LVL224:
 2708 006a FFF7FEFF 		bl	__aeabi_d2iz
 2709              	.LVL225:
 2710 006e 264A     		ldr	r2, .L115+16
 2711 0070 9146     		mov	r9, r2
 2712 0072 1060     		str	r0, [r2]
 682:.\herkulex2.c ****     
 683:.\herkulex2.c ****     pSize = 0x0C;
 2713              		.loc 1 683 0
 2714 0074 254A     		ldr	r2, .L115+20
 2715 0076 9346     		mov	fp, r2
 2716 0078 0C23     		mov	r3, #12
 2717 007a 1370     		strb	r3, [r2]
 684:.\herkulex2.c ****     cmd = S_JOG;
 2718              		.loc 1 684 0
 2719 007c 244B     		ldr	r3, .L115+24
 2720 007e 9A46     		mov	r10, r3
 2721 0080 0623     		mov	r3, #6
 2722 0082 5246     		mov	r2, r10
 2723 0084 1370     		strb	r3, [r2]
 685:.\herkulex2.c ****     
 686:.\herkulex2.c ****     data[0] = posLSB;
 2724              		.loc 1 686 0
 2725 0086 234F     		ldr	r7, .L115+28
 2726              	.LVL226:
 2727 0088 4346     		mov	r3, r8
 2728 008a 3B70     		strb	r3, [r7]
 687:.\herkulex2.c ****     data[1] = posMSB;
 2729              		.loc 1 687 0
 2730 008c 7E70     		strb	r6, [r7, #1]
 688:.\herkulex2.c ****     data[2] = setValue;
 2731              		.loc 1 688 0
 2732 008e BD70     		strb	r5, [r7, #2]
 689:.\herkulex2.c ****     data[3] = servoID;
 2733              		.loc 1 689 0
 2734 0090 FC70     		strb	r4, [r7, #3]
 690:.\herkulex2.c ****     
ARM GAS  C:\Users\EDTRIC~1\AppData\Local\Temp\ccbcYoXT.s 			page 62


 691:.\herkulex2.c ****     pID = servoID ^ playTime;
 2735              		.loc 1 691 0
 2736 0092 214E     		ldr	r6, .L115+32
 2737              	.LVL227:
 2738 0094 6040     		eor	r0, r4
 2739 0096 3070     		strb	r0, [r6]
 692:.\herkulex2.c ****     lengthString = 4;
 2740              		.loc 1 692 0
 2741 0098 0422     		mov	r2, #4
 2742 009a 204B     		ldr	r3, .L115+36
 2743 009c 1A70     		strb	r2, [r3]
 693:.\herkulex2.c ****     
 694:.\herkulex2.c ****     ck1 = checksum1( data , lengthString );
 2744              		.loc 1 694 0
 2745 009e 381C     		mov	r0, r7
 2746 00a0 0421     		mov	r1, #4
 2747 00a2 FFF7FEFF 		bl	checksum1
 2748              	.LVL228:
 2749 00a6 051C     		mov	r5, r0
 2750              	.LVL229:
 2751 00a8 1D4B     		ldr	r3, .L115+40
 2752 00aa 1870     		strb	r0, [r3]
 695:.\herkulex2.c ****     ck2 = checksum2( ck1 );
 2753              		.loc 1 695 0
 2754 00ac FFF7FEFF 		bl	checksum2
 2755              	.LVL230:
 2756 00b0 1C4B     		ldr	r3, .L115+44
 2757 00b2 1870     		strb	r0, [r3]
 696:.\herkulex2.c ****     
 697:.\herkulex2.c ****     pID = servoID;
 2758              		.loc 1 697 0
 2759 00b4 3470     		strb	r4, [r6]
 698:.\herkulex2.c ****     
 699:.\herkulex2.c ****     dataEx[0] = HEADER;
 2760              		.loc 1 699 0
 2761 00b6 1C4B     		ldr	r3, .L115+48
 2762 00b8 FF22     		mov	r2, #255
 2763 00ba 1A70     		strb	r2, [r3]
 700:.\herkulex2.c ****     dataEx[1] = HEADER;
 2764              		.loc 1 700 0
 2765 00bc 5A70     		strb	r2, [r3, #1]
 701:.\herkulex2.c ****     dataEx[2] = pSize;
 2766              		.loc 1 701 0
 2767 00be 5A46     		mov	r2, fp
 2768 00c0 1178     		ldrb	r1, [r2]
 2769 00c2 9970     		strb	r1, [r3, #2]
 702:.\herkulex2.c ****     dataEx[3] = pID;
 2770              		.loc 1 702 0
 2771 00c4 DC70     		strb	r4, [r3, #3]
 703:.\herkulex2.c ****     dataEx[4] = cmd;
 2772              		.loc 1 703 0
 2773 00c6 5446     		mov	r4, r10
 2774 00c8 2278     		ldrb	r2, [r4]
 2775 00ca 1A71     		strb	r2, [r3, #4]
 704:.\herkulex2.c ****     dataEx[5] = ck1;
 2776              		.loc 1 704 0
 2777 00cc 5D71     		strb	r5, [r3, #5]
ARM GAS  C:\Users\EDTRIC~1\AppData\Local\Temp\ccbcYoXT.s 			page 63


 705:.\herkulex2.c ****     dataEx[6] = ck2;
 2778              		.loc 1 705 0
 2779 00ce 9871     		strb	r0, [r3, #6]
 706:.\herkulex2.c ****     dataEx[7] = playTime;
 2780              		.loc 1 706 0
 2781 00d0 4846     		mov	r0, r9
 2782 00d2 0268     		ldr	r2, [r0]
 2783 00d4 DA71     		strb	r2, [r3, #7]
 707:.\herkulex2.c ****     dataEx[8] = data[0];
 2784              		.loc 1 707 0
 2785 00d6 3A78     		ldrb	r2, [r7]
 2786 00d8 1A72     		strb	r2, [r3, #8]
 708:.\herkulex2.c ****     dataEx[9] = data[1];
 2787              		.loc 1 708 0
 2788 00da 7A78     		ldrb	r2, [r7, #1]
 2789 00dc 5A72     		strb	r2, [r3, #9]
 709:.\herkulex2.c ****     dataEx[10] = data[2];
 2790              		.loc 1 709 0
 2791 00de BA78     		ldrb	r2, [r7, #2]
 2792 00e0 9A72     		strb	r2, [r3, #10]
 710:.\herkulex2.c ****     dataEx[11] = data[3];
 2793              		.loc 1 710 0
 2794 00e2 FA78     		ldrb	r2, [r7, #3]
 2795 00e4 DA72     		strb	r2, [r3, #11]
 711:.\herkulex2.c ****     
 712:.\herkulex2.c ****     sendData( dataEx , pSize );
 2796              		.loc 1 712 0
 2797 00e6 181C     		mov	r0, r3
 2798 00e8 FFF7FEFF 		bl	sendData
 2799              	.LVL231:
 2800              	.L108:
 713:.\herkulex2.c **** }
 2801              		.loc 1 713 0
 2802              		@ sp needed
 2803 00ec 3CBC     		pop	{r2, r3, r4, r5}
 2804 00ee 9046     		mov	r8, r2
 2805 00f0 9946     		mov	r9, r3
 2806 00f2 A246     		mov	r10, r4
 2807 00f4 AB46     		mov	fp, r5
 2808 00f6 F8BD     		pop	{r3, r4, r5, r6, r7, pc}
 2809              	.L116:
 2810              		.align	3
 2811              	.L115:
 2812 00f8 66666666 		.word	1717986918
 2813 00fc 66662640 		.word	1076258406
 2814 0100 FF030000 		.word	1023
 2815 0104 280B0000 		.word	2856
 2816 0108 00000000 		.word	playTime
 2817 010c 00000000 		.word	pSize
 2818 0110 00000000 		.word	cmd
 2819 0114 00000000 		.word	data
 2820 0118 00000000 		.word	pID
 2821 011c 00000000 		.word	lengthString
 2822 0120 00000000 		.word	ck1
 2823 0124 00000000 		.word	ck2
 2824 0128 00000000 		.word	dataEx
 2825              		.cfi_endproc
ARM GAS  C:\Users\EDTRIC~1\AppData\Local\Temp\ccbcYoXT.s 			page 64


 2826              	.LFE58:
 2827              		.size	Servo_moveOne, .-Servo_moveOne
 2828 012c C046C046 		.section	.text.Servo_moveOneAngle,"ax",%progbits
 2829              		.align	2
 2830              		.global	Servo_moveOneAngle
 2831              		.code	16
 2832              		.thumb_func
 2833              		.type	Servo_moveOneAngle, %function
 2834              	Servo_moveOneAngle:
 2835              	.LFB59:
 714:.\herkulex2.c **** 
 715:.\herkulex2.c **** void Servo_moveOneAngle (uint8 servoID , float angle , int time , uint8 LED )
 716:.\herkulex2.c **** {
 2836              		.loc 1 716 0
 2837              		.cfi_startproc
 2838              	.LVL232:
 2839 0000 D8B5     		push	{r3, r4, r6, r7, lr}
 2840              		.cfi_def_cfa_offset 20
 2841              		.cfi_offset 3, -20
 2842              		.cfi_offset 4, -16
 2843              		.cfi_offset 6, -12
 2844              		.cfi_offset 7, -8
 2845              		.cfi_offset 14, -4
 2846 0002 4746     		mov	r7, r8
 2847 0004 80B4     		push	{r7}
 2848              		.cfi_def_cfa_offset 24
 2849              		.cfi_offset 8, -24
 2850 0006 8046     		mov	r8, r0
 2851 0008 0C1C     		add	r4, r1, #0
 2852 000a 171C     		mov	r7, r2
 2853 000c 1E1C     		mov	r6, r3
 717:.\herkulex2.c ****     if( angle > 160.0 || angle < -160.0 ) return;
 2854              		.loc 1 717 0
 2855 000e 081C     		add	r0, r1, #0
 2856              	.LVL233:
 2857 0010 1149     		ldr	r1, .L119+8
 2858              	.LVL234:
 2859 0012 FFF7FEFF 		bl	__aeabi_fcmpgt
 2860              	.LVL235:
 2861 0016 0028     		cmp	r0, #0
 2862 0018 16D1     		bne	.L117
 2863              		.loc 1 717 0 is_stmt 0 discriminator 2
 2864 001a 201C     		add	r0, r4, #0
 2865 001c 0F49     		ldr	r1, .L119+12
 2866 001e FFF7FEFF 		bl	__aeabi_fcmplt
 2867              	.LVL236:
 2868 0022 0028     		cmp	r0, #0
 2869 0024 10D1     		bne	.L117
 718:.\herkulex2.c ****     int position = (int)(angle/0.325) + 512;
 2870              		.loc 1 718 0 is_stmt 1
 2871 0026 201C     		add	r0, r4, #0
 2872 0028 FFF7FEFF 		bl	__aeabi_f2d
 2873              	.LVL237:
 2874 002c 094B     		ldr	r3, .L119+4
 2875 002e 084A     		ldr	r2, .L119
 2876 0030 FFF7FEFF 		bl	__aeabi_ddiv
 2877              	.LVL238:
ARM GAS  C:\Users\EDTRIC~1\AppData\Local\Temp\ccbcYoXT.s 			page 65


 2878 0034 FFF7FEFF 		bl	__aeabi_d2iz
 2879              	.LVL239:
 2880 0038 8023     		mov	r3, #128
 2881 003a 9B00     		lsl	r3, r3, #2
 2882 003c C118     		add	r1, r0, r3
 2883              	.LVL240:
 719:.\herkulex2.c ****     Servo_moveOne( servoID , position , time , LED );
 2884              		.loc 1 719 0
 2885 003e 4046     		mov	r0, r8
 2886 0040 3A1C     		mov	r2, r7
 2887 0042 331C     		mov	r3, r6
 2888 0044 FFF7FEFF 		bl	Servo_moveOne
 2889              	.LVL241:
 2890              	.L117:
 720:.\herkulex2.c **** }
 2891              		.loc 1 720 0
 2892              		@ sp needed
 2893              	.LVL242:
 2894              	.LVL243:
 2895 0048 04BC     		pop	{r2}
 2896 004a 9046     		mov	r8, r2
 2897 004c D8BD     		pop	{r3, r4, r6, r7, pc}
 2898              	.L120:
 2899 004e C046     		.align	3
 2900              	.L119:
 2901 0050 CDCCCCCC 		.word	-858993459
 2902 0054 CCCCD43F 		.word	1070910668
 2903 0058 00002043 		.word	1126170624
 2904 005c 000020C3 		.word	-1021313024
 2905              		.cfi_endproc
 2906              	.LFE59:
 2907              		.size	Servo_moveOneAngle, .-Servo_moveOneAngle
 2908              		.section	.text.Servo_initialize,"ax",%progbits
 2909              		.align	2
 2910              		.global	Servo_initialize
 2911              		.code	16
 2912              		.thumb_func
 2913              		.type	Servo_initialize, %function
 2914              	Servo_initialize:
 2915              	.LFB40:
 118:.\herkulex2.c **** {
 2916              		.loc 1 118 0
 2917              		.cfi_startproc
 2918 0000 08B5     		push	{r3, lr}
 2919              		.cfi_def_cfa_offset 8
 2920              		.cfi_offset 3, -8
 2921              		.cfi_offset 14, -4
 119:.\herkulex2.c ****     UART_Start();
 2922              		.loc 1 119 0
 2923 0002 FFF7FEFF 		bl	UART_Start
 2924              	.LVL244:
 120:.\herkulex2.c ****     conta = 0;
 2925              		.loc 1 120 0
 2926 0006 0023     		mov	r3, #0
 2927 0008 194A     		ldr	r2, .L122
 2928 000a 1370     		strb	r3, [r2]
 121:.\herkulex2.c ****     lengthString = 0;
ARM GAS  C:\Users\EDTRIC~1\AppData\Local\Temp\ccbcYoXT.s 			page 66


 2929              		.loc 1 121 0
 2930 000c 194A     		ldr	r2, .L122+4
 2931 000e 1370     		strb	r3, [r2]
 122:.\herkulex2.c ****     CyDelay(100);
 2932              		.loc 1 122 0
 2933 0010 6420     		mov	r0, #100
 2934 0012 FFF7FEFF 		bl	CyDelay
 2935              	.LVL245:
 123:.\herkulex2.c ****     Servo_clearError(PIDALL);
 2936              		.loc 1 123 0
 2937 0016 FE20     		mov	r0, #254
 2938 0018 FFF7FEFF 		bl	Servo_clearError
 2939              	.LVL246:
 124:.\herkulex2.c ****     CyDelay(10);
 2940              		.loc 1 124 0
 2941 001c 0A20     		mov	r0, #10
 2942 001e FFF7FEFF 		bl	CyDelay
 2943              	.LVL247:
 125:.\herkulex2.c ****     Servo_ACK(1);
 2944              		.loc 1 125 0
 2945 0022 0120     		mov	r0, #1
 2946 0024 FFF7FEFF 		bl	Servo_ACK
 2947              	.LVL248:
 126:.\herkulex2.c ****     CyDelay(10);
 2948              		.loc 1 126 0
 2949 0028 0A20     		mov	r0, #10
 2950 002a FFF7FEFF 		bl	CyDelay
 2951              	.LVL249:
 127:.\herkulex2.c ****     Servo_torqueON(PIDALL);
 2952              		.loc 1 127 0
 2953 002e FE20     		mov	r0, #254
 2954 0030 FFF7FEFF 		bl	Servo_torqueON
 2955              	.LVL250:
 128:.\herkulex2.c ****     CyDelay(10);
 2956              		.loc 1 128 0
 2957 0034 0A20     		mov	r0, #10
 2958 0036 FFF7FEFF 		bl	CyDelay
 2959              	.LVL251:
 130:.\herkulex2.c ****     Servo_moveOneAngle( PIDALL , 0 , 1000 , LED_RED );
 2960              		.loc 1 130 0
 2961 003a FE20     		mov	r0, #254
 2962 003c 0021     		mov	r1, #0
 2963 003e FA22     		mov	r2, #250
 2964 0040 9200     		lsl	r2, r2, #2
 2965 0042 0423     		mov	r3, #4
 2966 0044 FFF7FEFF 		bl	Servo_moveOneAngle
 2967              	.LVL252:
 131:.\herkulex2.c ****     CyDelay(1200);
 2968              		.loc 1 131 0
 2969 0048 9620     		mov	r0, #150
 2970 004a C000     		lsl	r0, r0, #3
 2971 004c FFF7FEFF 		bl	CyDelay
 2972              	.LVL253:
 132:.\herkulex2.c ****     Servo_setLED( PIDALL , LED_GREEN );
 2973              		.loc 1 132 0
 2974 0050 FE20     		mov	r0, #254
 2975 0052 0121     		mov	r1, #1
ARM GAS  C:\Users\EDTRIC~1\AppData\Local\Temp\ccbcYoXT.s 			page 67


 2976 0054 FFF7FEFF 		bl	Servo_setLED
 2977              	.LVL254:
 133:.\herkulex2.c ****     CyDelay(100);
 2978              		.loc 1 133 0
 2979 0058 6420     		mov	r0, #100
 2980 005a FFF7FEFF 		bl	CyDelay
 2981              	.LVL255:
 134:.\herkulex2.c ****     Servo_setLED( PIDALL , 0 );
 2982              		.loc 1 134 0
 2983 005e FE20     		mov	r0, #254
 2984 0060 0021     		mov	r1, #0
 2985 0062 FFF7FEFF 		bl	Servo_setLED
 2986              	.LVL256:
 135:.\herkulex2.c ****     CyDelay(500);
 2987              		.loc 1 135 0
 2988 0066 FA20     		mov	r0, #250
 2989 0068 4000     		lsl	r0, r0, #1
 2990 006a FFF7FEFF 		bl	CyDelay
 2991              	.LVL257:
 136:.\herkulex2.c **** }
 2992              		.loc 1 136 0
 2993              		@ sp needed
 2994 006e 08BD     		pop	{r3, pc}
 2995              	.L123:
 2996              		.align	2
 2997              	.L122:
 2998 0070 00000000 		.word	conta
 2999 0074 00000000 		.word	lengthString
 3000              		.cfi_endproc
 3001              	.LFE40:
 3002              		.size	Servo_initialize, .-Servo_initialize
 3003              		.section	.text.Servo_moveSpeedOne,"ax",%progbits
 3004              		.align	2
 3005              		.global	Servo_moveSpeedOne
 3006              		.code	16
 3007              		.thumb_func
 3008              		.type	Servo_moveSpeedOne, %function
 3009              	Servo_moveSpeedOne:
 3010              	.LFB60:
 721:.\herkulex2.c **** 
 722:.\herkulex2.c **** void Servo_moveSpeedOne ( uint8 servoID , int goal , int time , uint8 LED )
 723:.\herkulex2.c **** {
 3011              		.loc 1 723 0
 3012              		.cfi_startproc
 3013              	.LVL258:
 3014 0000 F8B5     		push	{r3, r4, r5, r6, r7, lr}
 3015              		.cfi_def_cfa_offset 24
 3016              		.cfi_offset 3, -24
 3017              		.cfi_offset 4, -20
 3018              		.cfi_offset 5, -16
 3019              		.cfi_offset 6, -12
 3020              		.cfi_offset 7, -8
 3021              		.cfi_offset 14, -4
 3022 0002 5F46     		mov	r7, fp
 3023 0004 5646     		mov	r6, r10
 3024 0006 4D46     		mov	r5, r9
 3025 0008 4446     		mov	r4, r8
ARM GAS  C:\Users\EDTRIC~1\AppData\Local\Temp\ccbcYoXT.s 			page 68


 3026 000a F0B4     		push	{r4, r5, r6, r7}
 3027              		.cfi_def_cfa_offset 40
 3028              		.cfi_offset 8, -40
 3029              		.cfi_offset 9, -36
 3030              		.cfi_offset 10, -32
 3031              		.cfi_offset 11, -28
 3032 000c 041C     		mov	r4, r0
 724:.\herkulex2.c ****     /*if ( goal > 1023 || goal < -1023 ) return;
 725:.\herkulex2.c ****     if ( time < 0 || time > 2856 ) return;
 726:.\herkulex2.c ****     
 727:.\herkulex2.c ****     int goalSpeedSign;
 728:.\herkulex2.c ****     if ( goal < 0 ) {
 729:.\herkulex2.c ****         goalSpeedSign = (-1) * goal;
 730:.\herkulex2.c ****         goalSpeedSign |= 0x4000;
 731:.\herkulex2.c ****     }
 732:.\herkulex2.c ****     else {
 733:.\herkulex2.c ****         goalSpeedSign = goal;
 734:.\herkulex2.c ****     }
 735:.\herkulex2.c ****     
 736:.\herkulex2.c ****     int speedGoalLSB = goalSpeedSign & 0X00FF;
 737:.\herkulex2.c ****     int speedGoalMSB = ( goalSpeedSign & 0xFF00 ) >> 8;
 738:.\herkulex2.c **** 
 739:.\herkulex2.c ****     int blue = 0;
 740:.\herkulex2.c ****     int green = 0;
 741:.\herkulex2.c ****     int red = 0;
 742:.\herkulex2.c ****     switch (LED) {
 743:.\herkulex2.c ****         
 744:.\herkulex2.c ****         case 1:
 745:.\herkulex2.c ****             green = 1;
 746:.\herkulex2.c ****             break;
 747:.\herkulex2.c ****         case 2:
 748:.\herkulex2.c ****             blue = 1;
 749:.\herkulex2.c ****             break;
 750:.\herkulex2.c ****         case 4:
 751:.\herkulex2.c ****             red = 1;
 752:.\herkulex2.c ****             break;
 753:.\herkulex2.c ****     }
 754:.\herkulex2.c ****     
 755:.\herkulex2.c ****     int setValue = 2 + green * 4 + blue * 8 + red * 16;
 756:.\herkulex2.c **** 
 757:.\herkulex2.c ****     playTime = (int)((float)time/11.2);
 758:.\herkulex2.c **** 
 759:.\herkulex2.c ****     pSize = 0x0C;
 760:.\herkulex2.c ****     cmd = S_JOG;
 761:.\herkulex2.c **** 
 762:.\herkulex2.c ****     data[0] = speedGoalLSB;
 763:.\herkulex2.c ****     data[1] = speedGoalMSB;
 764:.\herkulex2.c ****     data[2] = setValue;
 765:.\herkulex2.c ****     data[3] = servoID;
 766:.\herkulex2.c **** 
 767:.\herkulex2.c ****     pID = servoID ^ playTime;
 768:.\herkulex2.c **** 
 769:.\herkulex2.c ****     lengthString = 4;
 770:.\herkulex2.c **** 
 771:.\herkulex2.c ****     ck1 = checksum1 ( data , lengthString );
 772:.\herkulex2.c ****     ck2 = checksum2 ( ck1 );
 773:.\herkulex2.c **** 
ARM GAS  C:\Users\EDTRIC~1\AppData\Local\Temp\ccbcYoXT.s 			page 69


 774:.\herkulex2.c ****     pID = servoID;
 775:.\herkulex2.c **** 
 776:.\herkulex2.c ****     dataEx[0] = HEADER;
 777:.\herkulex2.c ****     dataEx[1] = HEADER;
 778:.\herkulex2.c ****     dataEx[2] = pSize;
 779:.\herkulex2.c ****     dataEx[3] = pID;
 780:.\herkulex2.c ****     dataEx[4] = cmd;
 781:.\herkulex2.c ****     dataEx[5] = ck1;
 782:.\herkulex2.c ****     dataEx[6] = ck2;
 783:.\herkulex2.c ****     dataEx[7] = playTime;
 784:.\herkulex2.c ****     dataEx[8] = data[0];
 785:.\herkulex2.c ****     dataEx[9] = data[1];
 786:.\herkulex2.c ****     dataEx[10] = data[2];
 787:.\herkulex2.c ****     dataEx[11] = data[3];
 788:.\herkulex2.c **** 
 789:.\herkulex2.c ****     sendData ( dataEx , pSize );*/
 790:.\herkulex2.c ****     if( goal > 1023 || goal < -1023 ) return;
 3033              		.loc 1 790 0
 3034 000e 4248     		ldr	r0, .L132+8
 3035              	.LVL259:
 3036 0010 0E18     		add	r6, r1, r0
 3037 0012 424D     		ldr	r5, .L132+12
 3038 0014 AE42     		cmp	r6, r5
 3039 0016 72D8     		bhi	.L124
 791:.\herkulex2.c ****     if( time < 0 || time > 2856 ) return;
 3040              		.loc 1 791 0
 3041 0018 4148     		ldr	r0, .L132+16
 3042 001a 8242     		cmp	r2, r0
 3043 001c 6FD8     		bhi	.L124
 792:.\herkulex2.c ****     
 793:.\herkulex2.c ****     int goalSpeedSign;
 794:.\herkulex2.c ****     if ( goal < 0 ) 
 3044              		.loc 1 794 0
 3045 001e 0029     		cmp	r1, #0
 3046 0020 03DA     		bge	.L126
 795:.\herkulex2.c ****     {
 796:.\herkulex2.c ****         goalSpeedSign = (-1) * goal;
 3047              		.loc 1 796 0
 3048 0022 4942     		neg	r1, r1
 3049              	.LVL260:
 797:.\herkulex2.c ****         goalSpeedSign |= 0x4000;
 3050              		.loc 1 797 0
 3051 0024 8026     		mov	r6, #128
 3052 0026 F601     		lsl	r6, r6, #7
 3053 0028 3143     		orr	r1, r6
 3054              	.LVL261:
 3055              	.L126:
 798:.\herkulex2.c ****     }
 799:.\herkulex2.c ****     else 
 800:.\herkulex2.c ****     {
 801:.\herkulex2.c ****         goalSpeedSign = goal;
 802:.\herkulex2.c ****     }
 803:.\herkulex2.c ****     
 804:.\herkulex2.c ****     int speedGoalLSB = goalSpeedSign & 0x00FF;
 3056              		.loc 1 804 0
 3057 002a FF27     		mov	r7, #255
 3058 002c 0F40     		and	r7, r1
ARM GAS  C:\Users\EDTRIC~1\AppData\Local\Temp\ccbcYoXT.s 			page 70


 3059 002e B846     		mov	r8, r7
 3060              	.LVL262:
 805:.\herkulex2.c ****     int speedGoalMSB = ( goalSpeedSign & 0xFF00 ) >> 8;
 3061              		.loc 1 805 0
 3062 0030 0E04     		lsl	r6, r1, #16
 3063 0032 360E     		lsr	r6, r6, #24
 3064              	.LVL263:
 806:.\herkulex2.c **** 
 807:.\herkulex2.c ****     int blue = 0;
 808:.\herkulex2.c ****     int green = 0;
 809:.\herkulex2.c ****     int red = 0;
 810:.\herkulex2.c ****     switch (LED) 
 3065              		.loc 1 810 0
 3066 0034 022B     		cmp	r3, #2
 3067 0036 07D0     		beq	.L128
 3068 0038 042B     		cmp	r3, #4
 3069 003a 09D0     		beq	.L129
 3070 003c 012B     		cmp	r3, #1
 3071 003e 0BD0     		beq	.L131
 809:.\herkulex2.c ****     int red = 0;
 3072              		.loc 1 809 0
 3073 0040 0023     		mov	r3, #0
 3074              	.LVL264:
 808:.\herkulex2.c ****     int green = 0;
 3075              		.loc 1 808 0
 3076 0042 0025     		mov	r5, #0
 807:.\herkulex2.c ****     int blue = 0;
 3077              		.loc 1 807 0
 3078 0044 0021     		mov	r1, #0
 3079              	.LVL265:
 3080 0046 0AE0     		b	.L130
 3081              	.LVL266:
 3082              	.L128:
 809:.\herkulex2.c ****     int red = 0;
 3083              		.loc 1 809 0
 3084 0048 0023     		mov	r3, #0
 3085              	.LVL267:
 808:.\herkulex2.c ****     int green = 0;
 3086              		.loc 1 808 0
 3087 004a 0025     		mov	r5, #0
 811:.\herkulex2.c ****     {
 812:.\herkulex2.c ****         case 1:
 813:.\herkulex2.c ****             green = 1;
 814:.\herkulex2.c ****             break;
 815:.\herkulex2.c ****         case 2:
 816:.\herkulex2.c ****             blue = 1;
 3088              		.loc 1 816 0
 3089 004c 0121     		mov	r1, #1
 3090              	.LVL268:
 817:.\herkulex2.c ****             break;
 3091              		.loc 1 817 0
 3092 004e 06E0     		b	.L130
 3093              	.LVL269:
 3094              	.L129:
 818:.\herkulex2.c ****         case 4:
 819:.\herkulex2.c ****             red = 1;
 3095              		.loc 1 819 0
ARM GAS  C:\Users\EDTRIC~1\AppData\Local\Temp\ccbcYoXT.s 			page 71


 3096 0050 0123     		mov	r3, #1
 3097              	.LVL270:
 808:.\herkulex2.c ****     int green = 0;
 3098              		.loc 1 808 0
 3099 0052 0025     		mov	r5, #0
 807:.\herkulex2.c ****     int blue = 0;
 3100              		.loc 1 807 0
 3101 0054 0021     		mov	r1, #0
 3102              	.LVL271:
 820:.\herkulex2.c ****             break;
 3103              		.loc 1 820 0
 3104 0056 02E0     		b	.L130
 3105              	.LVL272:
 3106              	.L131:
 809:.\herkulex2.c ****     int red = 0;
 3107              		.loc 1 809 0
 3108 0058 0023     		mov	r3, #0
 3109              	.LVL273:
 813:.\herkulex2.c ****             green = 1;
 3110              		.loc 1 813 0
 3111 005a 0125     		mov	r5, #1
 807:.\herkulex2.c ****     int blue = 0;
 3112              		.loc 1 807 0
 3113 005c 0021     		mov	r1, #0
 3114              	.LVL274:
 3115              	.L130:
 821:.\herkulex2.c ****     }
 822:.\herkulex2.c ****     
 823:.\herkulex2.c ****     int setValue = 2 + green * 4 + blue * 8 + red * 16;
 3116              		.loc 1 823 0
 3117 005e AD00     		lsl	r5, r5, #2
 3118              	.LVL275:
 3119 0060 0235     		add	r5, r5, #2
 3120 0062 C900     		lsl	r1, r1, #3
 3121              	.LVL276:
 3122 0064 6D18     		add	r5, r5, r1
 3123 0066 1B01     		lsl	r3, r3, #4
 3124              	.LVL277:
 3125 0068 ED18     		add	r5, r5, r3
 3126              	.LVL278:
 824:.\herkulex2.c ****     
 825:.\herkulex2.c ****     playTime = (int)((float)time/11.2);
 3127              		.loc 1 825 0
 3128 006a 101C     		mov	r0, r2
 3129 006c FFF7FEFF 		bl	__aeabi_i2f
 3130              	.LVL279:
 3131 0070 FFF7FEFF 		bl	__aeabi_f2d
 3132              	.LVL280:
 3133 0074 274B     		ldr	r3, .L132+4
 3134 0076 264A     		ldr	r2, .L132
 3135 0078 FFF7FEFF 		bl	__aeabi_ddiv
 3136              	.LVL281:
 3137 007c FFF7FEFF 		bl	__aeabi_d2iz
 3138              	.LVL282:
 3139 0080 284A     		ldr	r2, .L132+20
 3140 0082 9146     		mov	r9, r2
 3141 0084 1060     		str	r0, [r2]
ARM GAS  C:\Users\EDTRIC~1\AppData\Local\Temp\ccbcYoXT.s 			page 72


 826:.\herkulex2.c ****     
 827:.\herkulex2.c ****     pSize = 0x0C;
 3142              		.loc 1 827 0
 3143 0086 284A     		ldr	r2, .L132+24
 3144 0088 9346     		mov	fp, r2
 3145 008a 0C23     		mov	r3, #12
 3146 008c 1370     		strb	r3, [r2]
 828:.\herkulex2.c ****     cmd = S_JOG;
 3147              		.loc 1 828 0
 3148 008e 274B     		ldr	r3, .L132+28
 3149 0090 9A46     		mov	r10, r3
 3150 0092 0623     		mov	r3, #6
 3151 0094 5246     		mov	r2, r10
 3152 0096 1370     		strb	r3, [r2]
 829:.\herkulex2.c ****     
 830:.\herkulex2.c ****     data[0] = speedGoalLSB;
 3153              		.loc 1 830 0
 3154 0098 254F     		ldr	r7, .L132+32
 3155              	.LVL283:
 3156 009a 4346     		mov	r3, r8
 3157 009c 3B70     		strb	r3, [r7]
 831:.\herkulex2.c ****     data[1] = speedGoalMSB;
 3158              		.loc 1 831 0
 3159 009e 7E70     		strb	r6, [r7, #1]
 832:.\herkulex2.c ****     data[2] = setValue;
 3160              		.loc 1 832 0
 3161 00a0 BD70     		strb	r5, [r7, #2]
 833:.\herkulex2.c ****     data[3] = servoID;
 3162              		.loc 1 833 0
 3163 00a2 FC70     		strb	r4, [r7, #3]
 834:.\herkulex2.c ****     
 835:.\herkulex2.c ****     pID = servoID ^ playTime;
 3164              		.loc 1 835 0
 3165 00a4 234E     		ldr	r6, .L132+36
 3166              	.LVL284:
 3167 00a6 6040     		eor	r0, r4
 3168 00a8 3070     		strb	r0, [r6]
 836:.\herkulex2.c ****     lengthString = 4;
 3169              		.loc 1 836 0
 3170 00aa 0422     		mov	r2, #4
 3171 00ac 224B     		ldr	r3, .L132+40
 3172 00ae 1A70     		strb	r2, [r3]
 837:.\herkulex2.c ****     
 838:.\herkulex2.c ****     ck1 = checksum1( data , lengthString );
 3173              		.loc 1 838 0
 3174 00b0 381C     		mov	r0, r7
 3175 00b2 0421     		mov	r1, #4
 3176 00b4 FFF7FEFF 		bl	checksum1
 3177              	.LVL285:
 3178 00b8 051C     		mov	r5, r0
 3179              	.LVL286:
 3180 00ba 204B     		ldr	r3, .L132+44
 3181 00bc 1870     		strb	r0, [r3]
 839:.\herkulex2.c ****     ck2 = checksum2( ck1 );
 3182              		.loc 1 839 0
 3183 00be FFF7FEFF 		bl	checksum2
 3184              	.LVL287:
ARM GAS  C:\Users\EDTRIC~1\AppData\Local\Temp\ccbcYoXT.s 			page 73


 3185 00c2 1F4B     		ldr	r3, .L132+48
 3186 00c4 1870     		strb	r0, [r3]
 840:.\herkulex2.c ****     
 841:.\herkulex2.c ****     pID = servoID;
 3187              		.loc 1 841 0
 3188 00c6 3470     		strb	r4, [r6]
 842:.\herkulex2.c ****     
 843:.\herkulex2.c ****     dataEx[0] = HEADER;
 3189              		.loc 1 843 0
 3190 00c8 1E4B     		ldr	r3, .L132+52
 3191 00ca FF22     		mov	r2, #255
 3192 00cc 1A70     		strb	r2, [r3]
 844:.\herkulex2.c ****     dataEx[1] = HEADER;
 3193              		.loc 1 844 0
 3194 00ce 5A70     		strb	r2, [r3, #1]
 845:.\herkulex2.c ****     dataEx[2] = pSize;
 3195              		.loc 1 845 0
 3196 00d0 5A46     		mov	r2, fp
 3197 00d2 1178     		ldrb	r1, [r2]
 3198 00d4 9970     		strb	r1, [r3, #2]
 846:.\herkulex2.c ****     dataEx[3] = pID;
 3199              		.loc 1 846 0
 3200 00d6 DC70     		strb	r4, [r3, #3]
 847:.\herkulex2.c ****     dataEx[4] = cmd;
 3201              		.loc 1 847 0
 3202 00d8 5446     		mov	r4, r10
 3203 00da 2278     		ldrb	r2, [r4]
 3204 00dc 1A71     		strb	r2, [r3, #4]
 848:.\herkulex2.c ****     dataEx[5] = ck1;
 3205              		.loc 1 848 0
 3206 00de 5D71     		strb	r5, [r3, #5]
 849:.\herkulex2.c ****     dataEx[6] = ck2;
 3207              		.loc 1 849 0
 3208 00e0 9871     		strb	r0, [r3, #6]
 850:.\herkulex2.c ****     dataEx[7] = playTime;
 3209              		.loc 1 850 0
 3210 00e2 4846     		mov	r0, r9
 3211 00e4 0268     		ldr	r2, [r0]
 3212 00e6 DA71     		strb	r2, [r3, #7]
 851:.\herkulex2.c ****     dataEx[8] = data[0];
 3213              		.loc 1 851 0
 3214 00e8 3A78     		ldrb	r2, [r7]
 3215 00ea 1A72     		strb	r2, [r3, #8]
 852:.\herkulex2.c ****     dataEx[9] = data[1];
 3216              		.loc 1 852 0
 3217 00ec 7A78     		ldrb	r2, [r7, #1]
 3218 00ee 5A72     		strb	r2, [r3, #9]
 853:.\herkulex2.c ****     dataEx[10] = data[2];
 3219              		.loc 1 853 0
 3220 00f0 BA78     		ldrb	r2, [r7, #2]
 3221 00f2 9A72     		strb	r2, [r3, #10]
 854:.\herkulex2.c ****     dataEx[11] = data[3];
 3222              		.loc 1 854 0
 3223 00f4 FA78     		ldrb	r2, [r7, #3]
 3224 00f6 DA72     		strb	r2, [r3, #11]
 855:.\herkulex2.c ****     
 856:.\herkulex2.c ****     sendData( dataEx , pSize );
ARM GAS  C:\Users\EDTRIC~1\AppData\Local\Temp\ccbcYoXT.s 			page 74


 3225              		.loc 1 856 0
 3226 00f8 181C     		mov	r0, r3
 3227 00fa FFF7FEFF 		bl	sendData
 3228              	.LVL288:
 3229              	.L124:
 857:.\herkulex2.c **** }
 3230              		.loc 1 857 0
 3231              		@ sp needed
 3232 00fe 3CBC     		pop	{r2, r3, r4, r5}
 3233 0100 9046     		mov	r8, r2
 3234 0102 9946     		mov	r9, r3
 3235 0104 A246     		mov	r10, r4
 3236 0106 AB46     		mov	fp, r5
 3237 0108 F8BD     		pop	{r3, r4, r5, r6, r7, pc}
 3238              	.L133:
 3239 010a C046C046 		.align	3
 3239      C046
 3240              	.L132:
 3241 0110 66666666 		.word	1717986918
 3242 0114 66662640 		.word	1076258406
 3243 0118 FF030000 		.word	1023
 3244 011c FE070000 		.word	2046
 3245 0120 280B0000 		.word	2856
 3246 0124 00000000 		.word	playTime
 3247 0128 00000000 		.word	pSize
 3248 012c 00000000 		.word	cmd
 3249 0130 00000000 		.word	data
 3250 0134 00000000 		.word	pID
 3251 0138 00000000 		.word	lengthString
 3252 013c 00000000 		.word	ck1
 3253 0140 00000000 		.word	ck2
 3254 0144 00000000 		.word	dataEx
 3255              		.cfi_endproc
 3256              	.LFE60:
 3257              		.size	Servo_moveSpeedOne, .-Servo_moveSpeedOne
 3258              		.section	.text.Servo_writeRegistryRAM,"ax",%progbits
 3259              		.align	2
 3260              		.global	Servo_writeRegistryRAM
 3261              		.code	16
 3262              		.thumb_func
 3263              		.type	Servo_writeRegistryRAM, %function
 3264              	Servo_writeRegistryRAM:
 3265              	.LFB61:
 858:.\herkulex2.c **** 
 859:.\herkulex2.c **** void Servo_writeRegistryRAM( uint8 servoID , uint8 address , uint8 writeByte )
 860:.\herkulex2.c **** {
 3266              		.loc 1 860 0
 3267              		.cfi_startproc
 3268              	.LVL289:
 3269 0000 F0B5     		push	{r4, r5, r6, r7, lr}
 3270              		.cfi_def_cfa_offset 20
 3271              		.cfi_offset 4, -20
 3272              		.cfi_offset 5, -16
 3273              		.cfi_offset 6, -12
 3274              		.cfi_offset 7, -8
 3275              		.cfi_offset 14, -4
 3276 0002 4746     		mov	r7, r8
ARM GAS  C:\Users\EDTRIC~1\AppData\Local\Temp\ccbcYoXT.s 			page 75


 3277 0004 80B4     		push	{r7}
 3278              		.cfi_def_cfa_offset 24
 3279              		.cfi_offset 8, -24
 861:.\herkulex2.c ****     pSize = 0x0A;
 3280              		.loc 1 861 0
 3281 0006 1B4B     		ldr	r3, .L135
 3282 0008 9846     		mov	r8, r3
 3283 000a 0A23     		mov	r3, #10
 3284 000c 4446     		mov	r4, r8
 3285 000e 2370     		strb	r3, [r4]
 862:.\herkulex2.c ****     pID = servoID;
 3286              		.loc 1 862 0
 3287 0010 194F     		ldr	r7, .L135+4
 3288 0012 3870     		strb	r0, [r7]
 863:.\herkulex2.c ****     cmd = RAM_WRITE;
 3289              		.loc 1 863 0
 3290 0014 194E     		ldr	r6, .L135+8
 3291 0016 0323     		mov	r3, #3
 3292 0018 3370     		strb	r3, [r6]
 864:.\herkulex2.c ****     data[0] = address;
 3293              		.loc 1 864 0
 3294 001a 194C     		ldr	r4, .L135+12
 3295 001c 2170     		strb	r1, [r4]
 865:.\herkulex2.c ****     data[1] = 0x01;
 3296              		.loc 1 865 0
 3297 001e 0121     		mov	r1, #1
 3298              	.LVL290:
 3299 0020 6170     		strb	r1, [r4, #1]
 866:.\herkulex2.c ****     data[2] = writeByte;
 3300              		.loc 1 866 0
 3301 0022 A270     		strb	r2, [r4, #2]
 867:.\herkulex2.c ****     lengthString = 3;
 3302              		.loc 1 867 0
 3303 0024 174A     		ldr	r2, .L135+16
 3304              	.LVL291:
 3305 0026 1370     		strb	r3, [r2]
 868:.\herkulex2.c ****     
 869:.\herkulex2.c ****     ck1 = checksum1( data , lengthString );
 3306              		.loc 1 869 0
 3307 0028 201C     		mov	r0, r4
 3308              	.LVL292:
 3309 002a 0321     		mov	r1, #3
 3310 002c FFF7FEFF 		bl	checksum1
 3311              	.LVL293:
 3312 0030 051C     		mov	r5, r0
 3313 0032 154B     		ldr	r3, .L135+20
 3314 0034 1870     		strb	r0, [r3]
 870:.\herkulex2.c ****     ck2 = checksum2( ck1 );
 3315              		.loc 1 870 0
 3316 0036 FFF7FEFF 		bl	checksum2
 3317              	.LVL294:
 3318 003a 144B     		ldr	r3, .L135+24
 3319 003c 1870     		strb	r0, [r3]
 871:.\herkulex2.c ****     
 872:.\herkulex2.c ****     dataEx[0] = HEADER;
 3320              		.loc 1 872 0
 3321 003e 144B     		ldr	r3, .L135+28
ARM GAS  C:\Users\EDTRIC~1\AppData\Local\Temp\ccbcYoXT.s 			page 76


 3322 0040 FF22     		mov	r2, #255
 3323 0042 1A70     		strb	r2, [r3]
 873:.\herkulex2.c ****     dataEx[1] = HEADER;
 3324              		.loc 1 873 0
 3325 0044 5A70     		strb	r2, [r3, #1]
 874:.\herkulex2.c ****     dataEx[2] = pSize;
 3326              		.loc 1 874 0
 3327 0046 4246     		mov	r2, r8
 3328 0048 1178     		ldrb	r1, [r2]
 3329 004a 9970     		strb	r1, [r3, #2]
 875:.\herkulex2.c ****     dataEx[3] = pID;
 3330              		.loc 1 875 0
 3331 004c 3A78     		ldrb	r2, [r7]
 3332 004e DA70     		strb	r2, [r3, #3]
 876:.\herkulex2.c ****     dataEx[4] = cmd;
 3333              		.loc 1 876 0
 3334 0050 3278     		ldrb	r2, [r6]
 3335 0052 1A71     		strb	r2, [r3, #4]
 877:.\herkulex2.c ****     dataEx[5] = ck1;
 3336              		.loc 1 877 0
 3337 0054 5D71     		strb	r5, [r3, #5]
 878:.\herkulex2.c ****     dataEx[6] = ck2;
 3338              		.loc 1 878 0
 3339 0056 9871     		strb	r0, [r3, #6]
 879:.\herkulex2.c ****     dataEx[7] = data[0];
 3340              		.loc 1 879 0
 3341 0058 2278     		ldrb	r2, [r4]
 3342 005a DA71     		strb	r2, [r3, #7]
 880:.\herkulex2.c ****     dataEx[8] = data[1];
 3343              		.loc 1 880 0
 3344 005c 6278     		ldrb	r2, [r4, #1]
 3345 005e 1A72     		strb	r2, [r3, #8]
 881:.\herkulex2.c ****     dataEx[9] = data[2];
 3346              		.loc 1 881 0
 3347 0060 A278     		ldrb	r2, [r4, #2]
 3348 0062 5A72     		strb	r2, [r3, #9]
 882:.\herkulex2.c ****     dataEx[10] = data[3];
 3349              		.loc 1 882 0
 3350 0064 E278     		ldrb	r2, [r4, #3]
 3351 0066 9A72     		strb	r2, [r3, #10]
 883:.\herkulex2.c ****     
 884:.\herkulex2.c ****     sendData( dataEx , pSize );
 3352              		.loc 1 884 0
 3353 0068 181C     		mov	r0, r3
 3354 006a FFF7FEFF 		bl	sendData
 3355              	.LVL295:
 885:.\herkulex2.c **** }
 3356              		.loc 1 885 0
 3357              		@ sp needed
 3358 006e 04BC     		pop	{r2}
 3359 0070 9046     		mov	r8, r2
 3360 0072 F0BD     		pop	{r4, r5, r6, r7, pc}
 3361              	.L136:
 3362              		.align	2
 3363              	.L135:
 3364 0074 00000000 		.word	pSize
 3365 0078 00000000 		.word	pID
ARM GAS  C:\Users\EDTRIC~1\AppData\Local\Temp\ccbcYoXT.s 			page 77


 3366 007c 00000000 		.word	cmd
 3367 0080 00000000 		.word	data
 3368 0084 00000000 		.word	lengthString
 3369 0088 00000000 		.word	ck1
 3370 008c 00000000 		.word	ck2
 3371 0090 00000000 		.word	dataEx
 3372              		.cfi_endproc
 3373              	.LFE61:
 3374              		.size	Servo_writeRegistryRAM, .-Servo_writeRegistryRAM
 3375              		.section	.text.Servo_writeRegistryEEP,"ax",%progbits
 3376              		.align	2
 3377              		.global	Servo_writeRegistryEEP
 3378              		.code	16
 3379              		.thumb_func
 3380              		.type	Servo_writeRegistryEEP, %function
 3381              	Servo_writeRegistryEEP:
 3382              	.LFB62:
 886:.\herkulex2.c **** 
 887:.\herkulex2.c **** void Servo_writeRegistryEEP( uint8 servoID , uint8 address , uint8 writeByte )
 888:.\herkulex2.c **** {
 3383              		.loc 1 888 0
 3384              		.cfi_startproc
 3385              	.LVL296:
 3386 0000 F0B5     		push	{r4, r5, r6, r7, lr}
 3387              		.cfi_def_cfa_offset 20
 3388              		.cfi_offset 4, -20
 3389              		.cfi_offset 5, -16
 3390              		.cfi_offset 6, -12
 3391              		.cfi_offset 7, -8
 3392              		.cfi_offset 14, -4
 3393 0002 4746     		mov	r7, r8
 3394 0004 80B4     		push	{r7}
 3395              		.cfi_def_cfa_offset 24
 3396              		.cfi_offset 8, -24
 889:.\herkulex2.c ****     pSize = 0x0A;
 3397              		.loc 1 889 0
 3398 0006 1B4B     		ldr	r3, .L138
 3399 0008 9846     		mov	r8, r3
 3400 000a 0A23     		mov	r3, #10
 3401 000c 4446     		mov	r4, r8
 3402 000e 2370     		strb	r3, [r4]
 890:.\herkulex2.c ****     pID = servoID;
 3403              		.loc 1 890 0
 3404 0010 194F     		ldr	r7, .L138+4
 3405 0012 3870     		strb	r0, [r7]
 891:.\herkulex2.c ****     cmd = EEP_WRITE;
 3406              		.loc 1 891 0
 3407 0014 194E     		ldr	r6, .L138+8
 3408 0016 0123     		mov	r3, #1
 3409 0018 3370     		strb	r3, [r6]
 892:.\herkulex2.c ****     data[0] = address;
 3410              		.loc 1 892 0
 3411 001a 194C     		ldr	r4, .L138+12
 3412 001c 2170     		strb	r1, [r4]
 893:.\herkulex2.c ****     data[1] = 0x01;
 3413              		.loc 1 893 0
 3414 001e 6370     		strb	r3, [r4, #1]
ARM GAS  C:\Users\EDTRIC~1\AppData\Local\Temp\ccbcYoXT.s 			page 78


 894:.\herkulex2.c ****     data[2] = writeByte;
 3415              		.loc 1 894 0
 3416 0020 A270     		strb	r2, [r4, #2]
 895:.\herkulex2.c ****     lengthString = 3;
 3417              		.loc 1 895 0
 3418 0022 0322     		mov	r2, #3
 3419              	.LVL297:
 3420 0024 174B     		ldr	r3, .L138+16
 3421 0026 1A70     		strb	r2, [r3]
 896:.\herkulex2.c ****     
 897:.\herkulex2.c ****     ck1 = checksum1( data , lengthString );
 3422              		.loc 1 897 0
 3423 0028 201C     		mov	r0, r4
 3424              	.LVL298:
 3425 002a 0321     		mov	r1, #3
 3426              	.LVL299:
 3427 002c FFF7FEFF 		bl	checksum1
 3428              	.LVL300:
 3429 0030 051C     		mov	r5, r0
 3430 0032 154B     		ldr	r3, .L138+20
 3431 0034 1870     		strb	r0, [r3]
 898:.\herkulex2.c ****     ck2 = checksum2( ck1 );
 3432              		.loc 1 898 0
 3433 0036 FFF7FEFF 		bl	checksum2
 3434              	.LVL301:
 3435 003a 144B     		ldr	r3, .L138+24
 3436 003c 1870     		strb	r0, [r3]
 899:.\herkulex2.c ****     
 900:.\herkulex2.c ****     dataEx[0] = HEADER;
 3437              		.loc 1 900 0
 3438 003e 144B     		ldr	r3, .L138+28
 3439 0040 FF22     		mov	r2, #255
 3440 0042 1A70     		strb	r2, [r3]
 901:.\herkulex2.c ****     dataEx[1] = HEADER;
 3441              		.loc 1 901 0
 3442 0044 5A70     		strb	r2, [r3, #1]
 902:.\herkulex2.c ****     dataEx[2] = pSize;
 3443              		.loc 1 902 0
 3444 0046 4246     		mov	r2, r8
 3445 0048 1178     		ldrb	r1, [r2]
 3446 004a 9970     		strb	r1, [r3, #2]
 903:.\herkulex2.c ****     dataEx[3] = pID;
 3447              		.loc 1 903 0
 3448 004c 3A78     		ldrb	r2, [r7]
 3449 004e DA70     		strb	r2, [r3, #3]
 904:.\herkulex2.c ****     dataEx[4] = cmd;
 3450              		.loc 1 904 0
 3451 0050 3278     		ldrb	r2, [r6]
 3452 0052 1A71     		strb	r2, [r3, #4]
 905:.\herkulex2.c ****     dataEx[5] = ck1;
 3453              		.loc 1 905 0
 3454 0054 5D71     		strb	r5, [r3, #5]
 906:.\herkulex2.c ****     dataEx[6] = ck2;
 3455              		.loc 1 906 0
 3456 0056 9871     		strb	r0, [r3, #6]
 907:.\herkulex2.c ****     dataEx[7] = data[0];
 3457              		.loc 1 907 0
ARM GAS  C:\Users\EDTRIC~1\AppData\Local\Temp\ccbcYoXT.s 			page 79


 3458 0058 2278     		ldrb	r2, [r4]
 3459 005a DA71     		strb	r2, [r3, #7]
 908:.\herkulex2.c ****     dataEx[8] = data[1];
 3460              		.loc 1 908 0
 3461 005c 6278     		ldrb	r2, [r4, #1]
 3462 005e 1A72     		strb	r2, [r3, #8]
 909:.\herkulex2.c ****     dataEx[9] = data[2];
 3463              		.loc 1 909 0
 3464 0060 A278     		ldrb	r2, [r4, #2]
 3465 0062 5A72     		strb	r2, [r3, #9]
 910:.\herkulex2.c ****     dataEx[10] = data[3];
 3466              		.loc 1 910 0
 3467 0064 E278     		ldrb	r2, [r4, #3]
 3468 0066 9A72     		strb	r2, [r3, #10]
 911:.\herkulex2.c ****     
 912:.\herkulex2.c ****     sendData( dataEx , pSize );
 3469              		.loc 1 912 0
 3470 0068 181C     		mov	r0, r3
 3471 006a FFF7FEFF 		bl	sendData
 3472              	.LVL302:
 913:.\herkulex2.c **** }
 3473              		.loc 1 913 0
 3474              		@ sp needed
 3475 006e 04BC     		pop	{r2}
 3476 0070 9046     		mov	r8, r2
 3477 0072 F0BD     		pop	{r4, r5, r6, r7, pc}
 3478              	.L139:
 3479              		.align	2
 3480              	.L138:
 3481 0074 00000000 		.word	pSize
 3482 0078 00000000 		.word	pID
 3483 007c 00000000 		.word	cmd
 3484 0080 00000000 		.word	data
 3485 0084 00000000 		.word	lengthString
 3486 0088 00000000 		.word	ck1
 3487 008c 00000000 		.word	ck2
 3488 0090 00000000 		.word	dataEx
 3489              		.cfi_endproc
 3490              	.LFE62:
 3491              		.size	Servo_writeRegistryEEP, .-Servo_writeRegistryEEP
 3492              		.comm	moveData,50,4
 3493              		.comm	dataEx,58,4
 3494              		.comm	data,30,4
 3495              		.comm	playTime,4,4
 3496              		.comm	XOR,1,1
 3497              		.comm	conta,1,1
 3498              		.comm	ck2,1,1
 3499              		.comm	ck1,1,1
 3500              		.comm	lengthString,1,1
 3501              		.comm	cmd,1,1
 3502              		.comm	pID,1,1
 3503              		.comm	pSize,1,1
 3504              		.section	.rodata.str1.4,"aMS",%progbits,1
 3505              		.align	2
 3506              	.LC4:
 3507 0000 257800   		.ascii	"%x\000"
 3508 0003 00       		.space	1
ARM GAS  C:\Users\EDTRIC~1\AppData\Local\Temp\ccbcYoXT.s 			page 80


 3509              	.LC6:
 3510 0004 307800   		.ascii	"0x\000"
 3511 0007 00       		.text
 3512              	.Letext0:
 3513              		.file 2 "Generated_Source\\PSoC4/cytypes.h"
 3514              		.file 3 ".\\herkulex2.h"
 3515              		.file 4 "Generated_Source\\PSoC4/UART_SPI_UART.h"
 3516              		.file 5 "Generated_Source\\PSoC4/CyLib.h"
 3517              		.file 6 "Generated_Source\\PSoC4/UART.h"
 3518              		.file 7 "c:\\program files (x86)\\cypress\\psoc creator\\3.2\\psoc creator\\import\\gnu\\arm\\4.8.
 3519              		.section	.debug_info,"",%progbits
 3520              	.Ldebug_info0:
 3521 0000 16130000 		.4byte	0x1316
 3522 0004 0400     		.2byte	0x4
 3523 0006 00000000 		.4byte	.Ldebug_abbrev0
 3524 000a 04       		.byte	0x4
 3525 000b 01       		.uleb128 0x1
 3526 000c 58000000 		.4byte	.LASF100
 3527 0010 01       		.byte	0x1
 3528 0011 4A000000 		.4byte	.LASF101
 3529 0015 DB020000 		.4byte	.LASF102
 3530 0019 00000000 		.4byte	.Ldebug_ranges0+0
 3531 001d 00000000 		.4byte	0
 3532 0021 00000000 		.4byte	.Ldebug_line0
 3533 0025 02       		.uleb128 0x2
 3534 0026 04       		.byte	0x4
 3535 0027 04       		.byte	0x4
 3536 0028 DB010000 		.4byte	.LASF0
 3537 002c 02       		.uleb128 0x2
 3538 002d 01       		.byte	0x1
 3539 002e 06       		.byte	0x6
 3540 002f 57030000 		.4byte	.LASF1
 3541 0033 02       		.uleb128 0x2
 3542 0034 01       		.byte	0x1
 3543 0035 08       		.byte	0x8
 3544 0036 39030000 		.4byte	.LASF2
 3545 003a 02       		.uleb128 0x2
 3546 003b 02       		.byte	0x2
 3547 003c 05       		.byte	0x5
 3548 003d 40000000 		.4byte	.LASF3
 3549 0041 02       		.uleb128 0x2
 3550 0042 02       		.byte	0x2
 3551 0043 07       		.byte	0x7
 3552 0044 06040000 		.4byte	.LASF4
 3553 0048 02       		.uleb128 0x2
 3554 0049 04       		.byte	0x4
 3555 004a 05       		.byte	0x5
 3556 004b D5030000 		.4byte	.LASF5
 3557 004f 02       		.uleb128 0x2
 3558 0050 04       		.byte	0x4
 3559 0051 07       		.byte	0x7
 3560 0052 51040000 		.4byte	.LASF6
 3561 0056 02       		.uleb128 0x2
 3562 0057 08       		.byte	0x8
 3563 0058 05       		.byte	0x5
 3564 0059 FD010000 		.4byte	.LASF7
 3565 005d 02       		.uleb128 0x2
ARM GAS  C:\Users\EDTRIC~1\AppData\Local\Temp\ccbcYoXT.s 			page 81


 3566 005e 08       		.byte	0x8
 3567 005f 07       		.byte	0x7
 3568 0060 63030000 		.4byte	.LASF8
 3569 0064 03       		.uleb128 0x3
 3570 0065 04       		.byte	0x4
 3571 0066 05       		.byte	0x5
 3572 0067 696E7400 		.ascii	"int\000"
 3573 006b 02       		.uleb128 0x2
 3574 006c 04       		.byte	0x4
 3575 006d 07       		.byte	0x7
 3576 006e 8D030000 		.4byte	.LASF9
 3577 0072 04       		.uleb128 0x4
 3578 0073 26040000 		.4byte	.LASF10
 3579 0077 02       		.byte	0x2
 3580 0078 B3       		.byte	0xb3
 3581 0079 33000000 		.4byte	0x33
 3582 007d 04       		.uleb128 0x4
 3583 007e 71040000 		.4byte	.LASF11
 3584 0082 02       		.byte	0x2
 3585 0083 B5       		.byte	0xb5
 3586 0084 4F000000 		.4byte	0x4f
 3587 0088 02       		.uleb128 0x2
 3588 0089 08       		.byte	0x8
 3589 008a 04       		.byte	0x4
 3590 008b 1E000000 		.4byte	.LASF12
 3591 008f 04       		.uleb128 0x4
 3592 0090 00040000 		.4byte	.LASF13
 3593 0094 02       		.byte	0x2
 3594 0095 C4       		.byte	0xc4
 3595 0096 9A000000 		.4byte	0x9a
 3596 009a 02       		.uleb128 0x2
 3597 009b 01       		.byte	0x1
 3598 009c 08       		.byte	0x8
 3599 009d C7030000 		.4byte	.LASF14
 3600 00a1 02       		.uleb128 0x2
 3601 00a2 04       		.byte	0x4
 3602 00a3 07       		.byte	0x7
 3603 00a4 E9040000 		.4byte	.LASF15
 3604 00a8 05       		.uleb128 0x5
 3605 00a9 04       		.byte	0x4
 3606 00aa 9A000000 		.4byte	0x9a
 3607 00ae 05       		.uleb128 0x5
 3608 00af 04       		.byte	0x4
 3609 00b0 B4000000 		.4byte	0xb4
 3610 00b4 06       		.uleb128 0x6
 3611 00b5 9A000000 		.4byte	0x9a
 3612 00b9 05       		.uleb128 0x5
 3613 00ba 04       		.byte	0x4
 3614 00bb 72000000 		.4byte	0x72
 3615 00bf 07       		.uleb128 0x7
 3616 00c0 0D050000 		.4byte	.LASF20
 3617 00c4 01       		.byte	0x1
 3618 00c5 1F       		.byte	0x1f
 3619 00c6 00000000 		.4byte	.LFB33
 3620 00ca 0C000000 		.4byte	.LFE33-.LFB33
 3621 00ce 01       		.uleb128 0x1
 3622 00cf 9C       		.byte	0x9c
ARM GAS  C:\Users\EDTRIC~1\AppData\Local\Temp\ccbcYoXT.s 			page 82


 3623 00d0 E7000000 		.4byte	0xe7
 3624 00d4 08       		.uleb128 0x8
 3625 00d5 06000000 		.4byte	.LVL0
 3626 00d9 72120000 		.4byte	0x1272
 3627 00dd 08       		.uleb128 0x8
 3628 00de 0A000000 		.4byte	.LVL1
 3629 00e2 7A120000 		.4byte	0x127a
 3630 00e6 00       		.byte	0
 3631 00e7 09       		.uleb128 0x9
 3632 00e8 E4000000 		.4byte	.LASF18
 3633 00ec 01       		.byte	0x1
 3634 00ed 25       		.byte	0x25
 3635 00ee 72000000 		.4byte	0x72
 3636 00f2 00000000 		.4byte	.LFB34
 3637 00f6 48000000 		.4byte	.LFE34-.LFB34
 3638 00fa 01       		.uleb128 0x1
 3639 00fb 9C       		.byte	0x9c
 3640 00fc 2A010000 		.4byte	0x12a
 3641 0100 0A       		.uleb128 0xa
 3642 0101 36040000 		.4byte	.LASF16
 3643 0105 01       		.byte	0x1
 3644 0106 25       		.byte	0x25
 3645 0107 B9000000 		.4byte	0xb9
 3646 010b 00000000 		.4byte	.LLST0
 3647 010f 0B       		.uleb128 0xb
 3648 0110 10010000 		.4byte	.LASF17
 3649 0114 01       		.byte	0x1
 3650 0115 25       		.byte	0x25
 3651 0116 72000000 		.4byte	0x72
 3652 011a 01       		.uleb128 0x1
 3653 011b 51       		.byte	0x51
 3654 011c 0C       		.uleb128 0xc
 3655 011d 6900     		.ascii	"i\000"
 3656 011f 01       		.byte	0x1
 3657 0120 27       		.byte	0x27
 3658 0121 72000000 		.4byte	0x72
 3659 0125 21000000 		.4byte	.LLST1
 3660 0129 00       		.byte	0
 3661 012a 09       		.uleb128 0x9
 3662 012b EE000000 		.4byte	.LASF19
 3663 012f 01       		.byte	0x1
 3664 0130 36       		.byte	0x36
 3665 0131 72000000 		.4byte	0x72
 3666 0135 00000000 		.4byte	.LFB35
 3667 0139 08000000 		.4byte	.LFE35-.LFB35
 3668 013d 01       		.uleb128 0x1
 3669 013e 9C       		.byte	0x9c
 3670 013f 53010000 		.4byte	0x153
 3671 0143 0D       		.uleb128 0xd
 3672 0144 584F5200 		.ascii	"XOR\000"
 3673 0148 01       		.byte	0x1
 3674 0149 36       		.byte	0x36
 3675 014a 72000000 		.4byte	0x72
 3676 014e 58000000 		.4byte	.LLST2
 3677 0152 00       		.byte	0
 3678 0153 07       		.uleb128 0x7
 3679 0154 11000000 		.4byte	.LASF21
ARM GAS  C:\Users\EDTRIC~1\AppData\Local\Temp\ccbcYoXT.s 			page 83


 3680 0158 01       		.byte	0x1
 3681 0159 3B       		.byte	0x3b
 3682 015a 00000000 		.4byte	.LFB36
 3683 015e 38000000 		.4byte	.LFE36-.LFB36
 3684 0162 01       		.uleb128 0x1
 3685 0163 9C       		.byte	0x9c
 3686 0164 F6010000 		.4byte	0x1f6
 3687 0168 0D       		.uleb128 0xd
 3688 0169 7800     		.ascii	"x\000"
 3689 016b 01       		.byte	0x1
 3690 016c 3B       		.byte	0x3b
 3691 016d 72000000 		.4byte	0x72
 3692 0171 79000000 		.4byte	.LLST3
 3693 0175 0E       		.uleb128 0xe
 3694 0176 8B020000 		.4byte	.LASF22
 3695 017a 01       		.byte	0x1
 3696 017b 3D       		.byte	0x3d
 3697 017c F6010000 		.4byte	0x1f6
 3698 0180 02       		.uleb128 0x2
 3699 0181 91       		.byte	0x91
 3700 0182 74       		.sleb128 -12
 3701 0183 0F       		.uleb128 0xf
 3702 0184 10000000 		.4byte	.LVL13
 3703 0188 82120000 		.4byte	0x1282
 3704 018c A6010000 		.4byte	0x1a6
 3705 0190 10       		.uleb128 0x10
 3706 0191 01       		.uleb128 0x1
 3707 0192 52       		.byte	0x52
 3708 0193 02       		.uleb128 0x2
 3709 0194 74       		.byte	0x74
 3710 0195 00       		.sleb128 0
 3711 0196 10       		.uleb128 0x10
 3712 0197 01       		.uleb128 0x1
 3713 0198 51       		.byte	0x51
 3714 0199 05       		.uleb128 0x5
 3715 019a 03       		.byte	0x3
 3716 019b 00000000 		.4byte	.LC4
 3717 019f 10       		.uleb128 0x10
 3718 01a0 01       		.uleb128 0x1
 3719 01a1 50       		.byte	0x50
 3720 01a2 02       		.uleb128 0x2
 3721 01a3 91       		.byte	0x91
 3722 01a4 74       		.sleb128 -12
 3723 01a5 00       		.byte	0
 3724 01a6 0F       		.uleb128 0xf
 3725 01a7 16000000 		.4byte	.LVL14
 3726 01ab 9D120000 		.4byte	0x129d
 3727 01af BD010000 		.4byte	0x1bd
 3728 01b3 10       		.uleb128 0x10
 3729 01b4 01       		.uleb128 0x1
 3730 01b5 50       		.byte	0x50
 3731 01b6 05       		.uleb128 0x5
 3732 01b7 03       		.byte	0x3
 3733 01b8 04000000 		.4byte	.LC6
 3734 01bc 00       		.byte	0
 3735 01bd 0F       		.uleb128 0xf
 3736 01be 20000000 		.4byte	.LVL15
ARM GAS  C:\Users\EDTRIC~1\AppData\Local\Temp\ccbcYoXT.s 			page 84


 3737 01c2 BA120000 		.4byte	0x12ba
 3738 01c6 D1010000 		.4byte	0x1d1
 3739 01ca 10       		.uleb128 0x10
 3740 01cb 01       		.uleb128 0x1
 3741 01cc 50       		.byte	0x50
 3742 01cd 02       		.uleb128 0x2
 3743 01ce 08       		.byte	0x8
 3744 01cf 30       		.byte	0x30
 3745 01d0 00       		.byte	0
 3746 01d1 0F       		.uleb128 0xf
 3747 01d2 26000000 		.4byte	.LVL16
 3748 01d6 9D120000 		.4byte	0x129d
 3749 01da E5010000 		.4byte	0x1e5
 3750 01de 10       		.uleb128 0x10
 3751 01df 01       		.uleb128 0x1
 3752 01e0 50       		.byte	0x50
 3753 01e1 02       		.uleb128 0x2
 3754 01e2 91       		.byte	0x91
 3755 01e3 74       		.sleb128 -12
 3756 01e4 00       		.byte	0
 3757 01e5 11       		.uleb128 0x11
 3758 01e6 2C000000 		.4byte	.LVL17
 3759 01ea BA120000 		.4byte	0x12ba
 3760 01ee 10       		.uleb128 0x10
 3761 01ef 01       		.uleb128 0x1
 3762 01f0 50       		.byte	0x50
 3763 01f1 02       		.uleb128 0x2
 3764 01f2 08       		.byte	0x8
 3765 01f3 20       		.byte	0x20
 3766 01f4 00       		.byte	0
 3767 01f5 00       		.byte	0
 3768 01f6 12       		.uleb128 0x12
 3769 01f7 9A000000 		.4byte	0x9a
 3770 01fb 06020000 		.4byte	0x206
 3771 01ff 13       		.uleb128 0x13
 3772 0200 A1000000 		.4byte	0xa1
 3773 0204 03       		.byte	0x3
 3774 0205 00       		.byte	0
 3775 0206 07       		.uleb128 0x7
 3776 0207 2F000000 		.4byte	.LASF23
 3777 020b 01       		.byte	0x1
 3778 020c 4A       		.byte	0x4a
 3779 020d 00000000 		.4byte	.LFB37
 3780 0211 1A000000 		.4byte	.LFE37-.LFB37
 3781 0215 01       		.uleb128 0x1
 3782 0216 9C       		.byte	0x9c
 3783 0217 6C020000 		.4byte	0x26c
 3784 021b 0A       		.uleb128 0xa
 3785 021c 44040000 		.4byte	.LASF24
 3786 0220 01       		.byte	0x1
 3787 0221 4A       		.byte	0x4a
 3788 0222 B9000000 		.4byte	0xb9
 3789 0226 9A000000 		.4byte	.LLST4
 3790 022a 0A       		.uleb128 0xa
 3791 022b D4010000 		.4byte	.LASF25
 3792 022f 01       		.byte	0x1
 3793 0230 4A       		.byte	0x4a
ARM GAS  C:\Users\EDTRIC~1\AppData\Local\Temp\ccbcYoXT.s 			page 85


 3794 0231 72000000 		.4byte	0x72
 3795 0235 C6000000 		.4byte	.LLST5
 3796 0239 08       		.uleb128 0x8
 3797 023a 0A000000 		.4byte	.LVL19
 3798 023e BF000000 		.4byte	0xbf
 3799 0242 0F       		.uleb128 0xf
 3800 0243 12000000 		.4byte	.LVL20
 3801 0247 CC120000 		.4byte	0x12cc
 3802 024b 5C020000 		.4byte	0x25c
 3803 024f 10       		.uleb128 0x10
 3804 0250 01       		.uleb128 0x1
 3805 0251 51       		.byte	0x51
 3806 0252 02       		.uleb128 0x2
 3807 0253 74       		.byte	0x74
 3808 0254 00       		.sleb128 0
 3809 0255 10       		.uleb128 0x10
 3810 0256 01       		.uleb128 0x1
 3811 0257 50       		.byte	0x50
 3812 0258 02       		.uleb128 0x2
 3813 0259 75       		.byte	0x75
 3814 025a 00       		.sleb128 0
 3815 025b 00       		.byte	0
 3816 025c 11       		.uleb128 0x11
 3817 025d 18000000 		.4byte	.LVL21
 3818 0261 E9120000 		.4byte	0x12e9
 3819 0265 10       		.uleb128 0x10
 3820 0266 01       		.uleb128 0x1
 3821 0267 50       		.byte	0x50
 3822 0268 01       		.uleb128 0x1
 3823 0269 31       		.byte	0x31
 3824 026a 00       		.byte	0
 3825 026b 00       		.byte	0
 3826 026c 07       		.uleb128 0x7
 3827 026d E1010000 		.4byte	.LASF26
 3828 0271 01       		.byte	0x1
 3829 0272 51       		.byte	0x51
 3830 0273 00000000 		.4byte	.LFB38
 3831 0277 70000000 		.4byte	.LFE38-.LFB38
 3832 027b 01       		.uleb128 0x1
 3833 027c 9C       		.byte	0x9c
 3834 027d 10030000 		.4byte	0x310
 3835 0281 0A       		.uleb128 0xa
 3836 0282 AC040000 		.4byte	.LASF27
 3837 0286 01       		.byte	0x1
 3838 0287 51       		.byte	0x51
 3839 0288 72000000 		.4byte	0x72
 3840 028c E7000000 		.4byte	.LLST6
 3841 0290 0C       		.uleb128 0xc
 3842 0291 6900     		.ascii	"i\000"
 3843 0293 01       		.byte	0x1
 3844 0294 53       		.byte	0x53
 3845 0295 72000000 		.4byte	0x72
 3846 0299 08010000 		.4byte	.LLST7
 3847 029d 14       		.uleb128 0x14
 3848 029e 25000000 		.4byte	.LASF28
 3849 02a2 01       		.byte	0x1
 3850 02a3 54       		.byte	0x54
ARM GAS  C:\Users\EDTRIC~1\AppData\Local\Temp\ccbcYoXT.s 			page 86


 3851 02a4 72000000 		.4byte	0x72
 3852 02a8 3F010000 		.4byte	.LLST8
 3853 02ac 14       		.uleb128 0x14
 3854 02ad 7F020000 		.4byte	.LASF29
 3855 02b1 01       		.byte	0x1
 3856 02b2 55       		.byte	0x55
 3857 02b3 72000000 		.4byte	0x72
 3858 02b7 69010000 		.4byte	.LLST9
 3859 02bb 15       		.uleb128 0x15
 3860 02bc 32000000 		.4byte	.LBB2
 3861 02c0 26000000 		.4byte	.LBE2-.LBB2
 3862 02c4 E1020000 		.4byte	0x2e1
 3863 02c8 14       		.uleb128 0x14
 3864 02c9 46020000 		.4byte	.LASF30
 3865 02cd 01       		.byte	0x1
 3866 02ce 5E       		.byte	0x5e
 3867 02cf 72000000 		.4byte	0x72
 3868 02d3 A0010000 		.4byte	.LLST10
 3869 02d7 08       		.uleb128 0x8
 3870 02d8 3E000000 		.4byte	.LVL32
 3871 02dc FA120000 		.4byte	0x12fa
 3872 02e0 00       		.byte	0
 3873 02e1 0F       		.uleb128 0xf
 3874 02e2 1A000000 		.4byte	.LVL28
 3875 02e6 E9120000 		.4byte	0x12e9
 3876 02ea F4020000 		.4byte	0x2f4
 3877 02ee 10       		.uleb128 0x10
 3878 02ef 01       		.uleb128 0x1
 3879 02f0 50       		.byte	0x50
 3880 02f1 01       		.uleb128 0x1
 3881 02f2 31       		.byte	0x31
 3882 02f3 00       		.byte	0
 3883 02f4 08       		.uleb128 0x8
 3884 02f5 1E000000 		.4byte	.LVL29
 3885 02f9 06130000 		.4byte	0x1306
 3886 02fd 08       		.uleb128 0x8
 3887 02fe 5C000000 		.4byte	.LVL38
 3888 0302 06130000 		.4byte	0x1306
 3889 0306 08       		.uleb128 0x8
 3890 0307 64000000 		.4byte	.LVL39
 3891 030b BF000000 		.4byte	0xbf
 3892 030f 00       		.byte	0
 3893 0310 07       		.uleb128 0x7
 3894 0311 CC010000 		.4byte	.LASF31
 3895 0315 01       		.byte	0x1
 3896 0316 6D       		.byte	0x6d
 3897 0317 00000000 		.4byte	.LFB39
 3898 031b 2C000000 		.4byte	.LFE39-.LFB39
 3899 031f 01       		.uleb128 0x1
 3900 0320 9C       		.byte	0x9c
 3901 0321 60030000 		.4byte	0x360
 3902 0325 0A       		.uleb128 0xa
 3903 0326 5C050000 		.4byte	.LASF32
 3904 032a 01       		.byte	0x1
 3905 032b 6D       		.byte	0x6d
 3906 032c 64000000 		.4byte	0x64
 3907 0330 B3010000 		.4byte	.LLST11
ARM GAS  C:\Users\EDTRIC~1\AppData\Local\Temp\ccbcYoXT.s 			page 87


 3908 0334 0A       		.uleb128 0xa
 3909 0335 05050000 		.4byte	.LASF33
 3910 0339 01       		.byte	0x1
 3911 033a 6D       		.byte	0x6d
 3912 033b 64000000 		.4byte	0x64
 3913 033f D4010000 		.4byte	.LLST12
 3914 0343 0D       		.uleb128 0xd
 3915 0344 73657400 		.ascii	"set\000"
 3916 0348 01       		.byte	0x1
 3917 0349 6D       		.byte	0x6d
 3918 034a 72000000 		.4byte	0x72
 3919 034e F5010000 		.4byte	.LLST13
 3920 0352 0B       		.uleb128 0xb
 3921 0353 48010000 		.4byte	.LASF34
 3922 0357 01       		.byte	0x1
 3923 0358 6D       		.byte	0x6d
 3924 0359 72000000 		.4byte	0x72
 3925 035d 01       		.uleb128 0x1
 3926 035e 53       		.byte	0x53
 3927 035f 00       		.byte	0
 3928 0360 09       		.uleb128 0x9
 3929 0361 55020000 		.4byte	.LASF35
 3930 0365 01       		.byte	0x1
 3931 0366 8A       		.byte	0x8a
 3932 0367 72000000 		.4byte	0x72
 3933 036b 00000000 		.4byte	.LFB41
 3934 036f EC000000 		.4byte	.LFE41-.LFB41
 3935 0373 01       		.uleb128 0x1
 3936 0374 9C       		.byte	0x9c
 3937 0375 D8030000 		.4byte	0x3d8
 3938 0379 0A       		.uleb128 0xa
 3939 037a 48010000 		.4byte	.LASF34
 3940 037e 01       		.byte	0x1
 3941 037f 8A       		.byte	0x8a
 3942 0380 72000000 		.4byte	0x72
 3943 0384 25020000 		.4byte	.LLST14
 3944 0388 0F       		.uleb128 0xf
 3945 0389 52000000 		.4byte	.LVL49
 3946 038d 06020000 		.4byte	0x206
 3947 0391 A1030000 		.4byte	0x3a1
 3948 0395 10       		.uleb128 0x10
 3949 0396 01       		.uleb128 0x1
 3950 0397 51       		.byte	0x51
 3951 0398 01       		.uleb128 0x1
 3952 0399 37       		.byte	0x37
 3953 039a 10       		.uleb128 0x10
 3954 039b 01       		.uleb128 0x1
 3955 039c 50       		.byte	0x50
 3956 039d 02       		.uleb128 0x2
 3957 039e 74       		.byte	0x74
 3958 039f 00       		.sleb128 0
 3959 03a0 00       		.byte	0
 3960 03a1 0F       		.uleb128 0xf
 3961 03a2 58000000 		.4byte	.LVL50
 3962 03a6 E9120000 		.4byte	0x12e9
 3963 03aa B4030000 		.4byte	0x3b4
 3964 03ae 10       		.uleb128 0x10
ARM GAS  C:\Users\EDTRIC~1\AppData\Local\Temp\ccbcYoXT.s 			page 88


 3965 03af 01       		.uleb128 0x1
 3966 03b0 50       		.byte	0x50
 3967 03b1 01       		.uleb128 0x1
 3968 03b2 35       		.byte	0x35
 3969 03b3 00       		.byte	0
 3970 03b4 0F       		.uleb128 0xf
 3971 03b5 5E000000 		.4byte	.LVL51
 3972 03b9 6C020000 		.4byte	0x26c
 3973 03bd C7030000 		.4byte	0x3c7
 3974 03c1 10       		.uleb128 0x10
 3975 03c2 01       		.uleb128 0x1
 3976 03c3 50       		.byte	0x50
 3977 03c4 01       		.uleb128 0x1
 3978 03c5 39       		.byte	0x39
 3979 03c6 00       		.byte	0
 3980 03c7 11       		.uleb128 0x11
 3981 03c8 A4000000 		.4byte	.LVL52
 3982 03cc 2A010000 		.4byte	0x12a
 3983 03d0 10       		.uleb128 0x10
 3984 03d1 01       		.uleb128 0x1
 3985 03d2 50       		.byte	0x50
 3986 03d3 02       		.uleb128 0x2
 3987 03d4 75       		.byte	0x75
 3988 03d5 00       		.sleb128 0
 3989 03d6 00       		.byte	0
 3990 03d7 00       		.byte	0
 3991 03d8 07       		.uleb128 0x7
 3992 03d9 6A020000 		.4byte	.LASF36
 3993 03dd 01       		.byte	0x1
 3994 03de AF       		.byte	0xaf
 3995 03df 00000000 		.4byte	.LFB42
 3996 03e3 94000000 		.4byte	.LFE42-.LFB42
 3997 03e7 01       		.uleb128 0x1
 3998 03e8 9C       		.byte	0x9c
 3999 03e9 3D040000 		.4byte	0x43d
 4000 03ed 0A       		.uleb128 0xa
 4001 03ee 48010000 		.4byte	.LASF34
 4002 03f2 01       		.byte	0x1
 4003 03f3 AF       		.byte	0xaf
 4004 03f4 72000000 		.4byte	0x72
 4005 03f8 55020000 		.4byte	.LLST15
 4006 03fc 0F       		.uleb128 0xf
 4007 03fd 32000000 		.4byte	.LVL55
 4008 0401 E7000000 		.4byte	0xe7
 4009 0405 15040000 		.4byte	0x415
 4010 0409 10       		.uleb128 0x10
 4011 040a 01       		.uleb128 0x1
 4012 040b 51       		.byte	0x51
 4013 040c 01       		.uleb128 0x1
 4014 040d 33       		.byte	0x33
 4015 040e 10       		.uleb128 0x10
 4016 040f 01       		.uleb128 0x1
 4017 0410 50       		.byte	0x50
 4018 0411 02       		.uleb128 0x2
 4019 0412 74       		.byte	0x74
 4020 0413 00       		.sleb128 0
 4021 0414 00       		.byte	0
ARM GAS  C:\Users\EDTRIC~1\AppData\Local\Temp\ccbcYoXT.s 			page 89


 4022 0415 0F       		.uleb128 0xf
 4023 0416 3C000000 		.4byte	.LVL56
 4024 041a 2A010000 		.4byte	0x12a
 4025 041e 29040000 		.4byte	0x429
 4026 0422 10       		.uleb128 0x10
 4027 0423 01       		.uleb128 0x1
 4028 0424 50       		.byte	0x50
 4029 0425 02       		.uleb128 0x2
 4030 0426 75       		.byte	0x75
 4031 0427 00       		.sleb128 0
 4032 0428 00       		.byte	0
 4033 0429 11       		.uleb128 0x11
 4034 042a 6C000000 		.4byte	.LVL57
 4035 042e 06020000 		.4byte	0x206
 4036 0432 10       		.uleb128 0x10
 4037 0433 01       		.uleb128 0x1
 4038 0434 50       		.byte	0x50
 4039 0435 05       		.uleb128 0x5
 4040 0436 03       		.byte	0x3
 4041 0437 00000000 		.4byte	dataEx
 4042 043b 00       		.byte	0
 4043 043c 00       		.byte	0
 4044 043d 07       		.uleb128 0x7
 4045 043e D4000000 		.4byte	.LASF37
 4046 0442 01       		.byte	0x1
 4047 0443 CA       		.byte	0xca
 4048 0444 00000000 		.4byte	.LFB43
 4049 0448 94000000 		.4byte	.LFE43-.LFB43
 4050 044c 01       		.uleb128 0x1
 4051 044d 9C       		.byte	0x9c
 4052 044e A2040000 		.4byte	0x4a2
 4053 0452 0A       		.uleb128 0xa
 4054 0453 48010000 		.4byte	.LASF34
 4055 0457 01       		.byte	0x1
 4056 0458 CA       		.byte	0xca
 4057 0459 72000000 		.4byte	0x72
 4058 045d 85020000 		.4byte	.LLST16
 4059 0461 0F       		.uleb128 0xf
 4060 0462 32000000 		.4byte	.LVL60
 4061 0466 E7000000 		.4byte	0xe7
 4062 046a 7A040000 		.4byte	0x47a
 4063 046e 10       		.uleb128 0x10
 4064 046f 01       		.uleb128 0x1
 4065 0470 51       		.byte	0x51
 4066 0471 01       		.uleb128 0x1
 4067 0472 33       		.byte	0x33
 4068 0473 10       		.uleb128 0x10
 4069 0474 01       		.uleb128 0x1
 4070 0475 50       		.byte	0x50
 4071 0476 02       		.uleb128 0x2
 4072 0477 74       		.byte	0x74
 4073 0478 00       		.sleb128 0
 4074 0479 00       		.byte	0
 4075 047a 0F       		.uleb128 0xf
 4076 047b 3C000000 		.4byte	.LVL61
 4077 047f 2A010000 		.4byte	0x12a
 4078 0483 8E040000 		.4byte	0x48e
ARM GAS  C:\Users\EDTRIC~1\AppData\Local\Temp\ccbcYoXT.s 			page 90


 4079 0487 10       		.uleb128 0x10
 4080 0488 01       		.uleb128 0x1
 4081 0489 50       		.byte	0x50
 4082 048a 02       		.uleb128 0x2
 4083 048b 75       		.byte	0x75
 4084 048c 00       		.sleb128 0
 4085 048d 00       		.byte	0
 4086 048e 11       		.uleb128 0x11
 4087 048f 6C000000 		.4byte	.LVL62
 4088 0493 06020000 		.4byte	0x206
 4089 0497 10       		.uleb128 0x10
 4090 0498 01       		.uleb128 0x1
 4091 0499 50       		.byte	0x50
 4092 049a 05       		.uleb128 0x5
 4093 049b 03       		.byte	0x3
 4094 049c 00000000 		.4byte	dataEx
 4095 04a0 00       		.byte	0
 4096 04a1 00       		.byte	0
 4097 04a2 07       		.uleb128 0x7
 4098 04a3 9A030000 		.4byte	.LASF38
 4099 04a7 01       		.byte	0x1
 4100 04a8 E5       		.byte	0xe5
 4101 04a9 00000000 		.4byte	.LFB44
 4102 04ad 94000000 		.4byte	.LFE44-.LFB44
 4103 04b1 01       		.uleb128 0x1
 4104 04b2 9C       		.byte	0x9c
 4105 04b3 07050000 		.4byte	0x507
 4106 04b7 0A       		.uleb128 0xa
 4107 04b8 64050000 		.4byte	.LASF39
 4108 04bc 01       		.byte	0x1
 4109 04bd E5       		.byte	0xe5
 4110 04be 72000000 		.4byte	0x72
 4111 04c2 B5020000 		.4byte	.LLST17
 4112 04c6 0F       		.uleb128 0xf
 4113 04c7 32000000 		.4byte	.LVL65
 4114 04cb E7000000 		.4byte	0xe7
 4115 04cf DF040000 		.4byte	0x4df
 4116 04d3 10       		.uleb128 0x10
 4117 04d4 01       		.uleb128 0x1
 4118 04d5 51       		.byte	0x51
 4119 04d6 01       		.uleb128 0x1
 4120 04d7 33       		.byte	0x33
 4121 04d8 10       		.uleb128 0x10
 4122 04d9 01       		.uleb128 0x1
 4123 04da 50       		.byte	0x50
 4124 04db 02       		.uleb128 0x2
 4125 04dc 74       		.byte	0x74
 4126 04dd 00       		.sleb128 0
 4127 04de 00       		.byte	0
 4128 04df 0F       		.uleb128 0xf
 4129 04e0 3C000000 		.4byte	.LVL66
 4130 04e4 2A010000 		.4byte	0x12a
 4131 04e8 F3040000 		.4byte	0x4f3
 4132 04ec 10       		.uleb128 0x10
 4133 04ed 01       		.uleb128 0x1
 4134 04ee 50       		.byte	0x50
 4135 04ef 02       		.uleb128 0x2
ARM GAS  C:\Users\EDTRIC~1\AppData\Local\Temp\ccbcYoXT.s 			page 91


 4136 04f0 75       		.byte	0x75
 4137 04f1 00       		.sleb128 0
 4138 04f2 00       		.byte	0
 4139 04f3 11       		.uleb128 0x11
 4140 04f4 6C000000 		.4byte	.LVL67
 4141 04f8 06020000 		.4byte	0x206
 4142 04fc 10       		.uleb128 0x10
 4143 04fd 01       		.uleb128 0x1
 4144 04fe 50       		.byte	0x50
 4145 04ff 05       		.uleb128 0x5
 4146 0500 03       		.byte	0x3
 4147 0501 00000000 		.4byte	dataEx
 4148 0505 00       		.byte	0
 4149 0506 00       		.byte	0
 4150 0507 16       		.uleb128 0x16
 4151 0508 68010000 		.4byte	.LASF40
 4152 050c 01       		.byte	0x1
 4153 050d 0001     		.2byte	0x100
 4154 050f 72000000 		.4byte	0x72
 4155 0513 00000000 		.4byte	.LFB45
 4156 0517 F4000000 		.4byte	.LFE45-.LFB45
 4157 051b 01       		.uleb128 0x1
 4158 051c 9C       		.byte	0x9c
 4159 051d B3050000 		.4byte	0x5b3
 4160 0521 0F       		.uleb128 0xf
 4161 0522 3A000000 		.4byte	.LVL68
 4162 0526 E7000000 		.4byte	0xe7
 4163 052a 3A050000 		.4byte	0x53a
 4164 052e 10       		.uleb128 0x10
 4165 052f 01       		.uleb128 0x1
 4166 0530 51       		.byte	0x51
 4167 0531 01       		.uleb128 0x1
 4168 0532 32       		.byte	0x32
 4169 0533 10       		.uleb128 0x10
 4170 0534 01       		.uleb128 0x1
 4171 0535 50       		.byte	0x50
 4172 0536 02       		.uleb128 0x2
 4173 0537 75       		.byte	0x75
 4174 0538 00       		.sleb128 0
 4175 0539 00       		.byte	0
 4176 053a 0F       		.uleb128 0xf
 4177 053b 44000000 		.4byte	.LVL69
 4178 053f 2A010000 		.4byte	0x12a
 4179 0543 4E050000 		.4byte	0x54e
 4180 0547 10       		.uleb128 0x10
 4181 0548 01       		.uleb128 0x1
 4182 0549 50       		.byte	0x50
 4183 054a 02       		.uleb128 0x2
 4184 054b 79       		.byte	0x79
 4185 054c 00       		.sleb128 0
 4186 054d 00       		.byte	0
 4187 054e 0F       		.uleb128 0xf
 4188 054f 72000000 		.4byte	.LVL70
 4189 0553 06020000 		.4byte	0x206
 4190 0557 62050000 		.4byte	0x562
 4191 055b 10       		.uleb128 0x10
 4192 055c 01       		.uleb128 0x1
ARM GAS  C:\Users\EDTRIC~1\AppData\Local\Temp\ccbcYoXT.s 			page 92


 4193 055d 50       		.byte	0x50
 4194 055e 02       		.uleb128 0x2
 4195 055f 74       		.byte	0x74
 4196 0560 00       		.sleb128 0
 4197 0561 00       		.byte	0
 4198 0562 0F       		.uleb128 0xf
 4199 0563 78000000 		.4byte	.LVL71
 4200 0567 E9120000 		.4byte	0x12e9
 4201 056b 75050000 		.4byte	0x575
 4202 056f 10       		.uleb128 0x10
 4203 0570 01       		.uleb128 0x1
 4204 0571 50       		.byte	0x50
 4205 0572 01       		.uleb128 0x1
 4206 0573 35       		.byte	0x35
 4207 0574 00       		.byte	0
 4208 0575 0F       		.uleb128 0xf
 4209 0576 7E000000 		.4byte	.LVL72
 4210 057a 6C020000 		.4byte	0x26c
 4211 057e 88050000 		.4byte	0x588
 4212 0582 10       		.uleb128 0x10
 4213 0583 01       		.uleb128 0x1
 4214 0584 50       		.byte	0x50
 4215 0585 01       		.uleb128 0x1
 4216 0586 39       		.byte	0x39
 4217 0587 00       		.byte	0
 4218 0588 0F       		.uleb128 0xf
 4219 0589 9E000000 		.4byte	.LVL73
 4220 058d E7000000 		.4byte	0xe7
 4221 0591 A2050000 		.4byte	0x5a2
 4222 0595 10       		.uleb128 0x10
 4223 0596 01       		.uleb128 0x1
 4224 0597 51       		.byte	0x51
 4225 0598 02       		.uleb128 0x2
 4226 0599 7B       		.byte	0x7b
 4227 059a 00       		.sleb128 0
 4228 059b 10       		.uleb128 0x10
 4229 059c 01       		.uleb128 0x1
 4230 059d 50       		.byte	0x50
 4231 059e 02       		.uleb128 0x2
 4232 059f 75       		.byte	0x75
 4233 05a0 00       		.sleb128 0
 4234 05a1 00       		.byte	0
 4235 05a2 11       		.uleb128 0x11
 4236 05a3 A8000000 		.4byte	.LVL74
 4237 05a7 2A010000 		.4byte	0x12a
 4238 05ab 10       		.uleb128 0x10
 4239 05ac 01       		.uleb128 0x1
 4240 05ad 50       		.byte	0x50
 4241 05ae 02       		.uleb128 0x2
 4242 05af 75       		.byte	0x75
 4243 05b0 00       		.sleb128 0
 4244 05b1 00       		.byte	0
 4245 05b2 00       		.byte	0
 4246 05b3 17       		.uleb128 0x17
 4247 05b4 2C020000 		.4byte	.LASF41
 4248 05b8 01       		.byte	0x1
 4249 05b9 2901     		.2byte	0x129
ARM GAS  C:\Users\EDTRIC~1\AppData\Local\Temp\ccbcYoXT.s 			page 93


 4250 05bb 00000000 		.4byte	.LFB46
 4251 05bf 90000000 		.4byte	.LFE46-.LFB46
 4252 05c3 01       		.uleb128 0x1
 4253 05c4 9C       		.byte	0x9c
 4254 05c5 2A060000 		.4byte	0x62a
 4255 05c9 18       		.uleb128 0x18
 4256 05ca 0A010000 		.4byte	.LASF42
 4257 05ce 01       		.byte	0x1
 4258 05cf 2901     		.2byte	0x129
 4259 05d1 72000000 		.4byte	0x72
 4260 05d5 E5020000 		.4byte	.LLST18
 4261 05d9 18       		.uleb128 0x18
 4262 05da C4020000 		.4byte	.LASF43
 4263 05de 01       		.byte	0x1
 4264 05df 2901     		.2byte	0x129
 4265 05e1 72000000 		.4byte	0x72
 4266 05e5 15030000 		.4byte	.LLST19
 4267 05e9 0F       		.uleb128 0xf
 4268 05ea 30000000 		.4byte	.LVL78
 4269 05ee E7000000 		.4byte	0xe7
 4270 05f2 02060000 		.4byte	0x602
 4271 05f6 10       		.uleb128 0x10
 4272 05f7 01       		.uleb128 0x1
 4273 05f8 51       		.byte	0x51
 4274 05f9 01       		.uleb128 0x1
 4275 05fa 33       		.byte	0x33
 4276 05fb 10       		.uleb128 0x10
 4277 05fc 01       		.uleb128 0x1
 4278 05fd 50       		.byte	0x50
 4279 05fe 02       		.uleb128 0x2
 4280 05ff 74       		.byte	0x74
 4281 0600 00       		.sleb128 0
 4282 0601 00       		.byte	0
 4283 0602 0F       		.uleb128 0xf
 4284 0603 3A000000 		.4byte	.LVL79
 4285 0607 2A010000 		.4byte	0x12a
 4286 060b 16060000 		.4byte	0x616
 4287 060f 10       		.uleb128 0x10
 4288 0610 01       		.uleb128 0x1
 4289 0611 50       		.byte	0x50
 4290 0612 02       		.uleb128 0x2
 4291 0613 75       		.byte	0x75
 4292 0614 00       		.sleb128 0
 4293 0615 00       		.byte	0
 4294 0616 11       		.uleb128 0x11
 4295 0617 6A000000 		.4byte	.LVL80
 4296 061b 06020000 		.4byte	0x206
 4297 061f 10       		.uleb128 0x10
 4298 0620 01       		.uleb128 0x1
 4299 0621 50       		.byte	0x50
 4300 0622 05       		.uleb128 0x5
 4301 0623 03       		.byte	0x3
 4302 0624 00000000 		.4byte	dataEx
 4303 0628 00       		.byte	0
 4304 0629 00       		.byte	0
 4305 062a 17       		.uleb128 0x17
 4306 062b 63040000 		.4byte	.LASF44
ARM GAS  C:\Users\EDTRIC~1\AppData\Local\Temp\ccbcYoXT.s 			page 94


 4307 062f 01       		.byte	0x1
 4308 0630 4401     		.2byte	0x144
 4309 0632 00000000 		.4byte	.LFB47
 4310 0636 C4000000 		.4byte	.LFE47-.LFB47
 4311 063a 01       		.uleb128 0x1
 4312 063b 9C       		.byte	0x9c
 4313 063c D4060000 		.4byte	0x6d4
 4314 0640 19       		.uleb128 0x19
 4315 0641 6900     		.ascii	"i\000"
 4316 0643 01       		.byte	0x1
 4317 0644 4601     		.2byte	0x146
 4318 0646 72000000 		.4byte	0x72
 4319 064a 45030000 		.4byte	.LLST20
 4320 064e 0F       		.uleb128 0xf
 4321 064f 3E000000 		.4byte	.LVL83
 4322 0653 E7000000 		.4byte	0xe7
 4323 0657 62060000 		.4byte	0x662
 4324 065b 10       		.uleb128 0x10
 4325 065c 01       		.uleb128 0x1
 4326 065d 50       		.byte	0x50
 4327 065e 02       		.uleb128 0x2
 4328 065f 77       		.byte	0x77
 4329 0660 00       		.sleb128 0
 4330 0661 00       		.byte	0
 4331 0662 0F       		.uleb128 0xf
 4332 0663 48000000 		.4byte	.LVL84
 4333 0667 2A010000 		.4byte	0x12a
 4334 066b 76060000 		.4byte	0x676
 4335 066f 10       		.uleb128 0x10
 4336 0670 01       		.uleb128 0x1
 4337 0671 50       		.byte	0x50
 4338 0672 02       		.uleb128 0x2
 4339 0673 76       		.byte	0x76
 4340 0674 00       		.sleb128 0
 4341 0675 00       		.byte	0
 4342 0676 0F       		.uleb128 0xf
 4343 0677 78000000 		.4byte	.LVL85
 4344 067b 06020000 		.4byte	0x206
 4345 067f 8A060000 		.4byte	0x68a
 4346 0683 10       		.uleb128 0x10
 4347 0684 01       		.uleb128 0x1
 4348 0685 50       		.byte	0x50
 4349 0686 02       		.uleb128 0x2
 4350 0687 74       		.byte	0x74
 4351 0688 00       		.sleb128 0
 4352 0689 00       		.byte	0
 4353 068a 0F       		.uleb128 0xf
 4354 068b 7E000000 		.4byte	.LVL86
 4355 068f E9120000 		.4byte	0x12e9
 4356 0693 9D060000 		.4byte	0x69d
 4357 0697 10       		.uleb128 0x10
 4358 0698 01       		.uleb128 0x1
 4359 0699 50       		.byte	0x50
 4360 069a 01       		.uleb128 0x1
 4361 069b 35       		.byte	0x35
 4362 069c 00       		.byte	0
 4363 069d 0F       		.uleb128 0xf
ARM GAS  C:\Users\EDTRIC~1\AppData\Local\Temp\ccbcYoXT.s 			page 95


 4364 069e 84000000 		.4byte	.LVL87
 4365 06a2 6C020000 		.4byte	0x26c
 4366 06a6 B0060000 		.4byte	0x6b0
 4367 06aa 10       		.uleb128 0x10
 4368 06ab 01       		.uleb128 0x1
 4369 06ac 50       		.byte	0x50
 4370 06ad 01       		.uleb128 0x1
 4371 06ae 3F       		.byte	0x3f
 4372 06af 00       		.byte	0
 4373 06b0 0F       		.uleb128 0xf
 4374 06b1 8A000000 		.4byte	.LVL88
 4375 06b5 E9120000 		.4byte	0x12e9
 4376 06b9 C3060000 		.4byte	0x6c3
 4377 06bd 10       		.uleb128 0x10
 4378 06be 01       		.uleb128 0x1
 4379 06bf 50       		.byte	0x50
 4380 06c0 01       		.uleb128 0x1
 4381 06c1 3A       		.byte	0x3a
 4382 06c2 00       		.byte	0
 4383 06c3 11       		.uleb128 0x11
 4384 06c4 92000000 		.4byte	.LVL89
 4385 06c8 B3050000 		.4byte	0x5b3
 4386 06cc 10       		.uleb128 0x10
 4387 06cd 01       		.uleb128 0x1
 4388 06ce 51       		.byte	0x51
 4389 06cf 02       		.uleb128 0x2
 4390 06d0 09       		.byte	0x9
 4391 06d1 FD       		.byte	0xfd
 4392 06d2 00       		.byte	0
 4393 06d3 00       		.byte	0
 4394 06d4 17       		.uleb128 0x17
 4395 06d5 32010000 		.4byte	.LASF45
 4396 06d9 01       		.byte	0x1
 4397 06da 6601     		.2byte	0x166
 4398 06dc 00000000 		.4byte	.LFB48
 4399 06e0 9C000000 		.4byte	.LFE48-.LFB48
 4400 06e4 01       		.uleb128 0x1
 4401 06e5 9C       		.byte	0x9c
 4402 06e6 3B070000 		.4byte	0x73b
 4403 06ea 18       		.uleb128 0x18
 4404 06eb 48010000 		.4byte	.LASF34
 4405 06ef 01       		.byte	0x1
 4406 06f0 6601     		.2byte	0x166
 4407 06f2 72000000 		.4byte	0x72
 4408 06f6 7C030000 		.4byte	.LLST21
 4409 06fa 0F       		.uleb128 0xf
 4410 06fb 36000000 		.4byte	.LVL95
 4411 06ff E7000000 		.4byte	0xe7
 4412 0703 13070000 		.4byte	0x713
 4413 0707 10       		.uleb128 0x10
 4414 0708 01       		.uleb128 0x1
 4415 0709 51       		.byte	0x51
 4416 070a 01       		.uleb128 0x1
 4417 070b 34       		.byte	0x34
 4418 070c 10       		.uleb128 0x10
 4419 070d 01       		.uleb128 0x1
 4420 070e 50       		.byte	0x50
ARM GAS  C:\Users\EDTRIC~1\AppData\Local\Temp\ccbcYoXT.s 			page 96


 4421 070f 02       		.uleb128 0x2
 4422 0710 74       		.byte	0x74
 4423 0711 00       		.sleb128 0
 4424 0712 00       		.byte	0
 4425 0713 0F       		.uleb128 0xf
 4426 0714 40000000 		.4byte	.LVL96
 4427 0718 2A010000 		.4byte	0x12a
 4428 071c 27070000 		.4byte	0x727
 4429 0720 10       		.uleb128 0x10
 4430 0721 01       		.uleb128 0x1
 4431 0722 50       		.byte	0x50
 4432 0723 02       		.uleb128 0x2
 4433 0724 75       		.byte	0x75
 4434 0725 00       		.sleb128 0
 4435 0726 00       		.byte	0
 4436 0727 11       		.uleb128 0x11
 4437 0728 74000000 		.4byte	.LVL97
 4438 072c 06020000 		.4byte	0x206
 4439 0730 10       		.uleb128 0x10
 4440 0731 01       		.uleb128 0x1
 4441 0732 50       		.byte	0x50
 4442 0733 05       		.uleb128 0x5
 4443 0734 03       		.byte	0x3
 4444 0735 00000000 		.4byte	dataEx
 4445 0739 00       		.byte	0
 4446 073a 00       		.byte	0
 4447 073b 17       		.uleb128 0x17
 4448 073c 2C050000 		.4byte	.LASF46
 4449 0740 01       		.byte	0x1
 4450 0741 8301     		.2byte	0x183
 4451 0743 00000000 		.4byte	.LFB49
 4452 0747 50000000 		.4byte	.LFE49-.LFB49
 4453 074b 01       		.uleb128 0x1
 4454 074c 9C       		.byte	0x9c
 4455 074d 07080000 		.4byte	0x807
 4456 0751 18       		.uleb128 0x18
 4457 0752 48010000 		.4byte	.LASF34
 4458 0756 01       		.byte	0x1
 4459 0757 8301     		.2byte	0x183
 4460 0759 72000000 		.4byte	0x72
 4461 075d AC030000 		.4byte	.LLST22
 4462 0761 18       		.uleb128 0x18
 4463 0762 E4040000 		.4byte	.LASF47
 4464 0766 01       		.byte	0x1
 4465 0767 8301     		.2byte	0x183
 4466 0769 64000000 		.4byte	0x64
 4467 076d CD030000 		.4byte	.LLST23
 4468 0771 1A       		.uleb128 0x1a
 4469 0772 4C454400 		.ascii	"LED\000"
 4470 0776 01       		.byte	0x1
 4471 0777 8301     		.2byte	0x183
 4472 0779 72000000 		.4byte	0x72
 4473 077d EE030000 		.4byte	.LLST24
 4474 0781 1B       		.uleb128 0x1b
 4475 0782 43010000 		.4byte	.LASF48
 4476 0786 01       		.byte	0x1
 4477 0787 8701     		.2byte	0x187
ARM GAS  C:\Users\EDTRIC~1\AppData\Local\Temp\ccbcYoXT.s 			page 97


 4478 0789 72000000 		.4byte	0x72
 4479 078d 5A040000 		.4byte	.LLST25
 4480 0791 1B       		.uleb128 0x1b
 4481 0792 C2030000 		.4byte	.LASF49
 4482 0796 01       		.byte	0x1
 4483 0797 8801     		.2byte	0x188
 4484 0799 72000000 		.4byte	0x72
 4485 079d 5A040000 		.4byte	.LLST25
 4486 07a1 1B       		.uleb128 0x1b
 4487 07a2 42050000 		.4byte	.LASF50
 4488 07a6 01       		.byte	0x1
 4489 07a7 8A01     		.2byte	0x18a
 4490 07a9 64000000 		.4byte	0x64
 4491 07ad 6E040000 		.4byte	.LLST27
 4492 07b1 1B       		.uleb128 0x1b
 4493 07b2 90040000 		.4byte	.LASF51
 4494 07b6 01       		.byte	0x1
 4495 07b7 8B01     		.2byte	0x18b
 4496 07b9 64000000 		.4byte	0x64
 4497 07bd 92040000 		.4byte	.LLST28
 4498 07c1 1B       		.uleb128 0x1b
 4499 07c2 50010000 		.4byte	.LASF52
 4500 07c6 01       		.byte	0x1
 4501 07c7 8D01     		.2byte	0x18d
 4502 07c9 72000000 		.4byte	0x72
 4503 07cd B7040000 		.4byte	.LLST29
 4504 07d1 1B       		.uleb128 0x1b
 4505 07d2 79020000 		.4byte	.LASF53
 4506 07d6 01       		.byte	0x1
 4507 07d7 8E01     		.2byte	0x18e
 4508 07d9 72000000 		.4byte	0x72
 4509 07dd EE040000 		.4byte	.LLST30
 4510 07e1 19       		.uleb128 0x19
 4511 07e2 72656400 		.ascii	"red\000"
 4512 07e6 01       		.byte	0x1
 4513 07e7 8F01     		.2byte	0x18f
 4514 07e9 72000000 		.4byte	0x72
 4515 07ed 0D050000 		.4byte	.LLST31
 4516 07f1 1C       		.uleb128 0x1c
 4517 07f2 CC030000 		.4byte	.LASF61
 4518 07f6 01       		.byte	0x1
 4519 07f7 9E01     		.2byte	0x19e
 4520 07f9 64000000 		.4byte	0x64
 4521 07fd 08       		.uleb128 0x8
 4522 07fe 4A000000 		.4byte	.LVL116
 4523 0802 10030000 		.4byte	0x310
 4524 0806 00       		.byte	0
 4525 0807 1D       		.uleb128 0x1d
 4526 0808 49050000 		.4byte	.LASF54
 4527 080c 01       		.byte	0x1
 4528 080d A301     		.2byte	0x1a3
 4529 080f 00000000 		.4byte	.LFB50
 4530 0813 58000000 		.4byte	.LFE50-.LFB50
 4531 0817 01       		.uleb128 0x1
 4532 0818 9C       		.byte	0x9c
 4533 0819 74080000 		.4byte	0x874
 4534 081d 18       		.uleb128 0x18
ARM GAS  C:\Users\EDTRIC~1\AppData\Local\Temp\ccbcYoXT.s 			page 98


 4535 081e 48010000 		.4byte	.LASF34
 4536 0822 01       		.byte	0x1
 4537 0823 A301     		.2byte	0x1a3
 4538 0825 72000000 		.4byte	0x72
 4539 0829 44050000 		.4byte	.LLST32
 4540 082d 18       		.uleb128 0x18
 4541 082e F2040000 		.4byte	.LASF55
 4542 0832 01       		.byte	0x1
 4543 0833 A301     		.2byte	0x1a3
 4544 0835 25000000 		.4byte	0x25
 4545 0839 65050000 		.4byte	.LLST33
 4546 083d 1A       		.uleb128 0x1a
 4547 083e 4C454400 		.ascii	"LED\000"
 4548 0842 01       		.byte	0x1
 4549 0843 A301     		.2byte	0x1a3
 4550 0845 72000000 		.4byte	0x72
 4551 0849 9E050000 		.4byte	.LLST34
 4552 084d 1B       		.uleb128 0x1b
 4553 084e CA020000 		.4byte	.LASF56
 4554 0852 01       		.byte	0x1
 4555 0853 A601     		.2byte	0x1a6
 4556 0855 64000000 		.4byte	0x64
 4557 0859 BF050000 		.4byte	.LLST35
 4558 085d 11       		.uleb128 0x11
 4559 085e 40000000 		.4byte	.LVL126
 4560 0862 3B070000 		.4byte	0x73b
 4561 0866 10       		.uleb128 0x10
 4562 0867 01       		.uleb128 0x1
 4563 0868 52       		.byte	0x52
 4564 0869 02       		.uleb128 0x2
 4565 086a 76       		.byte	0x76
 4566 086b 00       		.sleb128 0
 4567 086c 10       		.uleb128 0x10
 4568 086d 01       		.uleb128 0x1
 4569 086e 50       		.byte	0x50
 4570 086f 02       		.uleb128 0x2
 4571 0870 77       		.byte	0x77
 4572 0871 00       		.sleb128 0
 4573 0872 00       		.byte	0
 4574 0873 00       		.byte	0
 4575 0874 17       		.uleb128 0x17
 4576 0875 EA010000 		.4byte	.LASF57
 4577 0879 01       		.byte	0x1
 4578 087a AA01     		.2byte	0x1aa
 4579 087c 00000000 		.4byte	.LFB51
 4580 0880 68000000 		.4byte	.LFE51-.LFB51
 4581 0884 01       		.uleb128 0x1
 4582 0885 9C       		.byte	0x9c
 4583 0886 54090000 		.4byte	0x954
 4584 088a 18       		.uleb128 0x18
 4585 088b 48010000 		.4byte	.LASF34
 4586 088f 01       		.byte	0x1
 4587 0890 AA01     		.2byte	0x1aa
 4588 0892 72000000 		.4byte	0x72
 4589 0896 D2050000 		.4byte	.LLST36
 4590 089a 18       		.uleb128 0x18
 4591 089b E4040000 		.4byte	.LASF47
ARM GAS  C:\Users\EDTRIC~1\AppData\Local\Temp\ccbcYoXT.s 			page 99


 4592 089f 01       		.byte	0x1
 4593 08a0 AA01     		.2byte	0x1aa
 4594 08a2 64000000 		.4byte	0x64
 4595 08a6 F3050000 		.4byte	.LLST37
 4596 08aa 1A       		.uleb128 0x1a
 4597 08ab 4C454400 		.ascii	"LED\000"
 4598 08af 01       		.byte	0x1
 4599 08b0 AA01     		.2byte	0x1aa
 4600 08b2 72000000 		.4byte	0x72
 4601 08b6 30060000 		.4byte	.LLST38
 4602 08ba 1B       		.uleb128 0x1b
 4603 08bb 43010000 		.4byte	.LASF48
 4604 08bf 01       		.byte	0x1
 4605 08c0 AE01     		.2byte	0x1ae
 4606 08c2 72000000 		.4byte	0x72
 4607 08c6 9C060000 		.4byte	.LLST39
 4608 08ca 1B       		.uleb128 0x1b
 4609 08cb C2030000 		.4byte	.LASF49
 4610 08cf 01       		.byte	0x1
 4611 08d0 AF01     		.2byte	0x1af
 4612 08d2 72000000 		.4byte	0x72
 4613 08d6 B0060000 		.4byte	.LLST40
 4614 08da 1B       		.uleb128 0x1b
 4615 08db 38020000 		.4byte	.LASF58
 4616 08df 01       		.byte	0x1
 4617 08e0 B101     		.2byte	0x1b1
 4618 08e2 64000000 		.4byte	0x64
 4619 08e6 C4060000 		.4byte	.LLST41
 4620 08ea 1B       		.uleb128 0x1b
 4621 08eb 16020000 		.4byte	.LASF59
 4622 08ef 01       		.byte	0x1
 4623 08f0 BC01     		.2byte	0x1bc
 4624 08f2 64000000 		.4byte	0x64
 4625 08f6 D7060000 		.4byte	.LLST42
 4626 08fa 1B       		.uleb128 0x1b
 4627 08fb D7040000 		.4byte	.LASF60
 4628 08ff 01       		.byte	0x1
 4629 0900 BD01     		.2byte	0x1bd
 4630 0902 64000000 		.4byte	0x64
 4631 0906 EA060000 		.4byte	.LLST43
 4632 090a 1B       		.uleb128 0x1b
 4633 090b 50010000 		.4byte	.LASF52
 4634 090f 01       		.byte	0x1
 4635 0910 BF01     		.2byte	0x1bf
 4636 0912 64000000 		.4byte	0x64
 4637 0916 FD060000 		.4byte	.LLST44
 4638 091a 1B       		.uleb128 0x1b
 4639 091b 79020000 		.4byte	.LASF53
 4640 091f 01       		.byte	0x1
 4641 0920 C001     		.2byte	0x1c0
 4642 0922 64000000 		.4byte	0x64
 4643 0926 34070000 		.4byte	.LLST45
 4644 092a 19       		.uleb128 0x19
 4645 092b 72656400 		.ascii	"red\000"
 4646 092f 01       		.byte	0x1
 4647 0930 C101     		.2byte	0x1c1
 4648 0932 64000000 		.4byte	0x64
ARM GAS  C:\Users\EDTRIC~1\AppData\Local\Temp\ccbcYoXT.s 			page 100


 4649 0936 53070000 		.4byte	.LLST46
 4650 093a 1B       		.uleb128 0x1b
 4651 093b CC030000 		.4byte	.LASF61
 4652 093f 01       		.byte	0x1
 4653 0940 CF01     		.2byte	0x1cf
 4654 0942 64000000 		.4byte	0x64
 4655 0946 8A070000 		.4byte	.LLST47
 4656 094a 08       		.uleb128 0x8
 4657 094b 5E000000 		.4byte	.LVL149
 4658 094f 10030000 		.4byte	0x310
 4659 0953 00       		.byte	0
 4660 0954 1D       		.uleb128 0x1d
 4661 0955 47030000 		.4byte	.LASF62
 4662 0959 01       		.byte	0x1
 4663 095a D401     		.2byte	0x1d4
 4664 095c 00000000 		.4byte	.LFB52
 4665 0960 E0000000 		.4byte	.LFE52-.LFB52
 4666 0964 01       		.uleb128 0x1
 4667 0965 9C       		.byte	0x9c
 4668 0966 CA090000 		.4byte	0x9ca
 4669 096a 18       		.uleb128 0x18
 4670 096b AA030000 		.4byte	.LASF63
 4671 096f 01       		.byte	0x1
 4672 0970 D401     		.2byte	0x1d4
 4673 0972 64000000 		.4byte	0x64
 4674 0976 9D070000 		.4byte	.LLST48
 4675 097a 19       		.uleb128 0x19
 4676 097b 6900     		.ascii	"i\000"
 4677 097d 01       		.byte	0x1
 4678 097e D601     		.2byte	0x1d6
 4679 0980 72000000 		.4byte	0x72
 4680 0984 BE070000 		.4byte	.LLST49
 4681 0988 0F       		.uleb128 0xf
 4682 0989 4E000000 		.4byte	.LVL155
 4683 098d E7000000 		.4byte	0xe7
 4684 0991 A5090000 		.4byte	0x9a5
 4685 0995 10       		.uleb128 0x10
 4686 0996 01       		.uleb128 0x1
 4687 0997 51       		.byte	0x51
 4688 0998 02       		.uleb128 0x2
 4689 0999 76       		.byte	0x76
 4690 099a 00       		.sleb128 0
 4691 099b 10       		.uleb128 0x10
 4692 099c 01       		.uleb128 0x1
 4693 099d 50       		.byte	0x50
 4694 099e 05       		.uleb128 0x5
 4695 099f 03       		.byte	0x3
 4696 09a0 00000000 		.4byte	moveData
 4697 09a4 00       		.byte	0
 4698 09a5 0F       		.uleb128 0xf
 4699 09a6 58000000 		.4byte	.LVL156
 4700 09aa 2A010000 		.4byte	0x12a
 4701 09ae B9090000 		.4byte	0x9b9
 4702 09b2 10       		.uleb128 0x10
 4703 09b3 01       		.uleb128 0x1
 4704 09b4 50       		.byte	0x50
 4705 09b5 02       		.uleb128 0x2
ARM GAS  C:\Users\EDTRIC~1\AppData\Local\Temp\ccbcYoXT.s 			page 101


 4706 09b6 76       		.byte	0x76
 4707 09b7 00       		.sleb128 0
 4708 09b8 00       		.byte	0
 4709 09b9 11       		.uleb128 0x11
 4710 09ba A0000000 		.4byte	.LVL161
 4711 09be 06020000 		.4byte	0x206
 4712 09c2 10       		.uleb128 0x10
 4713 09c3 01       		.uleb128 0x1
 4714 09c4 50       		.byte	0x50
 4715 09c5 02       		.uleb128 0x2
 4716 09c6 75       		.byte	0x75
 4717 09c7 00       		.sleb128 0
 4718 09c8 00       		.byte	0
 4719 09c9 00       		.byte	0
 4720 09ca 16       		.uleb128 0x16
 4721 09cb F8000000 		.4byte	.LASF64
 4722 09cf 01       		.byte	0x1
 4723 09d0 F801     		.2byte	0x1f8
 4724 09d2 64000000 		.4byte	0x64
 4725 09d6 00000000 		.4byte	.LFB53
 4726 09da 14010000 		.4byte	.LFE53-.LFB53
 4727 09de 01       		.uleb128 0x1
 4728 09df 9C       		.byte	0x9c
 4729 09e0 950A0000 		.4byte	0xa95
 4730 09e4 18       		.uleb128 0x18
 4731 09e5 48010000 		.4byte	.LASF34
 4732 09e9 01       		.byte	0x1
 4733 09ea F801     		.2byte	0x1f8
 4734 09ec 72000000 		.4byte	0x72
 4735 09f0 F5070000 		.4byte	.LLST50
 4736 09f4 1B       		.uleb128 0x1b
 4737 09f5 CA020000 		.4byte	.LASF56
 4738 09f9 01       		.byte	0x1
 4739 09fa FA01     		.2byte	0x1fa
 4740 09fc 64000000 		.4byte	0x64
 4741 0a00 25080000 		.4byte	.LLST51
 4742 0a04 0F       		.uleb128 0xf
 4743 0a05 36000000 		.4byte	.LVL165
 4744 0a09 E7000000 		.4byte	0xe7
 4745 0a0d 1D0A0000 		.4byte	0xa1d
 4746 0a11 10       		.uleb128 0x10
 4747 0a12 01       		.uleb128 0x1
 4748 0a13 51       		.byte	0x51
 4749 0a14 01       		.uleb128 0x1
 4750 0a15 32       		.byte	0x32
 4751 0a16 10       		.uleb128 0x10
 4752 0a17 01       		.uleb128 0x1
 4753 0a18 50       		.byte	0x50
 4754 0a19 02       		.uleb128 0x2
 4755 0a1a 74       		.byte	0x74
 4756 0a1b 00       		.sleb128 0
 4757 0a1c 00       		.byte	0
 4758 0a1d 0F       		.uleb128 0xf
 4759 0a1e 44000000 		.4byte	.LVL166
 4760 0a22 2A010000 		.4byte	0x12a
 4761 0a26 310A0000 		.4byte	0xa31
 4762 0a2a 10       		.uleb128 0x10
ARM GAS  C:\Users\EDTRIC~1\AppData\Local\Temp\ccbcYoXT.s 			page 102


 4763 0a2b 01       		.uleb128 0x1
 4764 0a2c 50       		.byte	0x50
 4765 0a2d 02       		.uleb128 0x2
 4766 0a2e 79       		.byte	0x79
 4767 0a2f 00       		.sleb128 0
 4768 0a30 00       		.byte	0
 4769 0a31 0F       		.uleb128 0xf
 4770 0a32 72000000 		.4byte	.LVL167
 4771 0a36 06020000 		.4byte	0x206
 4772 0a3a 450A0000 		.4byte	0xa45
 4773 0a3e 10       		.uleb128 0x10
 4774 0a3f 01       		.uleb128 0x1
 4775 0a40 50       		.byte	0x50
 4776 0a41 02       		.uleb128 0x2
 4777 0a42 75       		.byte	0x75
 4778 0a43 00       		.sleb128 0
 4779 0a44 00       		.byte	0
 4780 0a45 0F       		.uleb128 0xf
 4781 0a46 78000000 		.4byte	.LVL168
 4782 0a4a E9120000 		.4byte	0x12e9
 4783 0a4e 580A0000 		.4byte	0xa58
 4784 0a52 10       		.uleb128 0x10
 4785 0a53 01       		.uleb128 0x1
 4786 0a54 50       		.byte	0x50
 4787 0a55 01       		.uleb128 0x1
 4788 0a56 35       		.byte	0x35
 4789 0a57 00       		.byte	0
 4790 0a58 0F       		.uleb128 0xf
 4791 0a59 7E000000 		.4byte	.LVL169
 4792 0a5d 6C020000 		.4byte	0x26c
 4793 0a61 6B0A0000 		.4byte	0xa6b
 4794 0a65 10       		.uleb128 0x10
 4795 0a66 01       		.uleb128 0x1
 4796 0a67 50       		.byte	0x50
 4797 0a68 01       		.uleb128 0x1
 4798 0a69 3D       		.byte	0x3d
 4799 0a6a 00       		.byte	0
 4800 0a6b 0F       		.uleb128 0xf
 4801 0a6c B2000000 		.4byte	.LVL170
 4802 0a70 E7000000 		.4byte	0xe7
 4803 0a74 840A0000 		.4byte	0xa84
 4804 0a78 10       		.uleb128 0x10
 4805 0a79 01       		.uleb128 0x1
 4806 0a7a 51       		.byte	0x51
 4807 0a7b 01       		.uleb128 0x1
 4808 0a7c 36       		.byte	0x36
 4809 0a7d 10       		.uleb128 0x10
 4810 0a7e 01       		.uleb128 0x1
 4811 0a7f 50       		.byte	0x50
 4812 0a80 02       		.uleb128 0x2
 4813 0a81 74       		.byte	0x74
 4814 0a82 00       		.sleb128 0
 4815 0a83 00       		.byte	0
 4816 0a84 11       		.uleb128 0x11
 4817 0a85 BC000000 		.4byte	.LVL171
 4818 0a89 2A010000 		.4byte	0x12a
 4819 0a8d 10       		.uleb128 0x10
ARM GAS  C:\Users\EDTRIC~1\AppData\Local\Temp\ccbcYoXT.s 			page 103


 4820 0a8e 01       		.uleb128 0x1
 4821 0a8f 50       		.byte	0x50
 4822 0a90 02       		.uleb128 0x2
 4823 0a91 74       		.byte	0x74
 4824 0a92 00       		.sleb128 0
 4825 0a93 00       		.byte	0
 4826 0a94 00       		.byte	0
 4827 0a95 1E       		.uleb128 0x1e
 4828 0a96 B1040000 		.4byte	.LASF65
 4829 0a9a 01       		.byte	0x1
 4830 0a9b 2902     		.2byte	0x229
 4831 0a9d 25000000 		.4byte	0x25
 4832 0aa1 00000000 		.4byte	.LFB54
 4833 0aa5 2C000000 		.4byte	.LFE54-.LFB54
 4834 0aa9 01       		.uleb128 0x1
 4835 0aaa 9C       		.byte	0x9c
 4836 0aab D90A0000 		.4byte	0xad9
 4837 0aaf 18       		.uleb128 0x18
 4838 0ab0 48010000 		.4byte	.LASF34
 4839 0ab4 01       		.byte	0x1
 4840 0ab5 2902     		.2byte	0x229
 4841 0ab7 72000000 		.4byte	0x72
 4842 0abb 45080000 		.4byte	.LLST52
 4843 0abf 19       		.uleb128 0x19
 4844 0ac0 706F7300 		.ascii	"pos\000"
 4845 0ac4 01       		.byte	0x1
 4846 0ac5 2B02     		.2byte	0x22b
 4847 0ac7 64000000 		.4byte	0x64
 4848 0acb 66080000 		.4byte	.LLST53
 4849 0acf 08       		.uleb128 0x8
 4850 0ad0 06000000 		.4byte	.LVL176
 4851 0ad4 CA090000 		.4byte	0x9ca
 4852 0ad8 00       		.byte	0
 4853 0ad9 16       		.uleb128 0x16
 4854 0ada 23010000 		.4byte	.LASF66
 4855 0ade 01       		.byte	0x1
 4856 0adf 2F02     		.2byte	0x22f
 4857 0ae1 64000000 		.4byte	0x64
 4858 0ae5 00000000 		.4byte	.LFB55
 4859 0ae9 10010000 		.4byte	.LFE55-.LFB55
 4860 0aed 01       		.uleb128 0x1
 4861 0aee 9C       		.byte	0x9c
 4862 0aef A40B0000 		.4byte	0xba4
 4863 0af3 18       		.uleb128 0x18
 4864 0af4 48010000 		.4byte	.LASF34
 4865 0af8 01       		.byte	0x1
 4866 0af9 2F02     		.2byte	0x22f
 4867 0afb 72000000 		.4byte	0x72
 4868 0aff 87080000 		.4byte	.LLST54
 4869 0b03 1B       		.uleb128 0x1b
 4870 0b04 A4030000 		.4byte	.LASF67
 4871 0b08 01       		.byte	0x1
 4872 0b09 3102     		.2byte	0x231
 4873 0b0b 64000000 		.4byte	0x64
 4874 0b0f B7080000 		.4byte	.LLST55
 4875 0b13 0F       		.uleb128 0xf
 4876 0b14 36000000 		.4byte	.LVL184
ARM GAS  C:\Users\EDTRIC~1\AppData\Local\Temp\ccbcYoXT.s 			page 104


 4877 0b18 E7000000 		.4byte	0xe7
 4878 0b1c 2C0B0000 		.4byte	0xb2c
 4879 0b20 10       		.uleb128 0x10
 4880 0b21 01       		.uleb128 0x1
 4881 0b22 51       		.byte	0x51
 4882 0b23 01       		.uleb128 0x1
 4883 0b24 32       		.byte	0x32
 4884 0b25 10       		.uleb128 0x10
 4885 0b26 01       		.uleb128 0x1
 4886 0b27 50       		.byte	0x50
 4887 0b28 02       		.uleb128 0x2
 4888 0b29 74       		.byte	0x74
 4889 0b2a 00       		.sleb128 0
 4890 0b2b 00       		.byte	0
 4891 0b2c 0F       		.uleb128 0xf
 4892 0b2d 44000000 		.4byte	.LVL185
 4893 0b31 2A010000 		.4byte	0x12a
 4894 0b35 400B0000 		.4byte	0xb40
 4895 0b39 10       		.uleb128 0x10
 4896 0b3a 01       		.uleb128 0x1
 4897 0b3b 50       		.byte	0x50
 4898 0b3c 02       		.uleb128 0x2
 4899 0b3d 79       		.byte	0x79
 4900 0b3e 00       		.sleb128 0
 4901 0b3f 00       		.byte	0
 4902 0b40 0F       		.uleb128 0xf
 4903 0b41 72000000 		.4byte	.LVL186
 4904 0b45 06020000 		.4byte	0x206
 4905 0b49 540B0000 		.4byte	0xb54
 4906 0b4d 10       		.uleb128 0x10
 4907 0b4e 01       		.uleb128 0x1
 4908 0b4f 50       		.byte	0x50
 4909 0b50 02       		.uleb128 0x2
 4910 0b51 75       		.byte	0x75
 4911 0b52 00       		.sleb128 0
 4912 0b53 00       		.byte	0
 4913 0b54 0F       		.uleb128 0xf
 4914 0b55 78000000 		.4byte	.LVL187
 4915 0b59 E9120000 		.4byte	0x12e9
 4916 0b5d 670B0000 		.4byte	0xb67
 4917 0b61 10       		.uleb128 0x10
 4918 0b62 01       		.uleb128 0x1
 4919 0b63 50       		.byte	0x50
 4920 0b64 01       		.uleb128 0x1
 4921 0b65 35       		.byte	0x35
 4922 0b66 00       		.byte	0
 4923 0b67 0F       		.uleb128 0xf
 4924 0b68 7E000000 		.4byte	.LVL188
 4925 0b6c 6C020000 		.4byte	0x26c
 4926 0b70 7A0B0000 		.4byte	0xb7a
 4927 0b74 10       		.uleb128 0x10
 4928 0b75 01       		.uleb128 0x1
 4929 0b76 50       		.byte	0x50
 4930 0b77 01       		.uleb128 0x1
 4931 0b78 3D       		.byte	0x3d
 4932 0b79 00       		.byte	0
 4933 0b7a 0F       		.uleb128 0xf
ARM GAS  C:\Users\EDTRIC~1\AppData\Local\Temp\ccbcYoXT.s 			page 105


 4934 0b7b B2000000 		.4byte	.LVL189
 4935 0b7f E7000000 		.4byte	0xe7
 4936 0b83 930B0000 		.4byte	0xb93
 4937 0b87 10       		.uleb128 0x10
 4938 0b88 01       		.uleb128 0x1
 4939 0b89 51       		.byte	0x51
 4940 0b8a 01       		.uleb128 0x1
 4941 0b8b 36       		.byte	0x36
 4942 0b8c 10       		.uleb128 0x10
 4943 0b8d 01       		.uleb128 0x1
 4944 0b8e 50       		.byte	0x50
 4945 0b8f 02       		.uleb128 0x2
 4946 0b90 74       		.byte	0x74
 4947 0b91 00       		.sleb128 0
 4948 0b92 00       		.byte	0
 4949 0b93 11       		.uleb128 0x11
 4950 0b94 BC000000 		.4byte	.LVL190
 4951 0b98 2A010000 		.4byte	0x12a
 4952 0b9c 10       		.uleb128 0x10
 4953 0b9d 01       		.uleb128 0x1
 4954 0b9e 50       		.byte	0x50
 4955 0b9f 02       		.uleb128 0x2
 4956 0ba0 74       		.byte	0x74
 4957 0ba1 00       		.sleb128 0
 4958 0ba2 00       		.byte	0
 4959 0ba3 00       		.byte	0
 4960 0ba4 17       		.uleb128 0x17
 4961 0ba5 F8040000 		.4byte	.LASF68
 4962 0ba9 01       		.byte	0x1
 4963 0baa 6002     		.2byte	0x260
 4964 0bac 00000000 		.4byte	.LFB56
 4965 0bb0 64000000 		.4byte	.LFE56-.LFB56
 4966 0bb4 01       		.uleb128 0x1
 4967 0bb5 9C       		.byte	0x9c
 4968 0bb6 E40B0000 		.4byte	0xbe4
 4969 0bba 18       		.uleb128 0x18
 4970 0bbb 48010000 		.4byte	.LASF34
 4971 0bbf 01       		.byte	0x1
 4972 0bc0 6002     		.2byte	0x260
 4973 0bc2 72000000 		.4byte	0x72
 4974 0bc6 D7080000 		.4byte	.LLST56
 4975 0bca 11       		.uleb128 0x11
 4976 0bcb 4A000000 		.4byte	.LVL196
 4977 0bcf 06020000 		.4byte	0x206
 4978 0bd3 10       		.uleb128 0x10
 4979 0bd4 01       		.uleb128 0x1
 4980 0bd5 51       		.byte	0x51
 4981 0bd6 02       		.uleb128 0x2
 4982 0bd7 75       		.byte	0x75
 4983 0bd8 00       		.sleb128 0
 4984 0bd9 10       		.uleb128 0x10
 4985 0bda 01       		.uleb128 0x1
 4986 0bdb 50       		.byte	0x50
 4987 0bdc 05       		.uleb128 0x5
 4988 0bdd 03       		.byte	0x3
 4989 0bde 00000000 		.4byte	dataEx
 4990 0be2 00       		.byte	0
ARM GAS  C:\Users\EDTRIC~1\AppData\Local\Temp\ccbcYoXT.s 			page 106


 4991 0be3 00       		.byte	0
 4992 0be4 17       		.uleb128 0x17
 4993 0be5 19040000 		.4byte	.LASF69
 4994 0be9 01       		.byte	0x1
 4995 0bea 7402     		.2byte	0x274
 4996 0bec 00000000 		.4byte	.LFB57
 4997 0bf0 90000000 		.4byte	.LFE57-.LFB57
 4998 0bf4 01       		.uleb128 0x1
 4999 0bf5 9C       		.byte	0x9c
 5000 0bf6 5B0C0000 		.4byte	0xc5b
 5001 0bfa 18       		.uleb128 0x18
 5002 0bfb 48010000 		.4byte	.LASF34
 5003 0bff 01       		.byte	0x1
 5004 0c00 7402     		.2byte	0x274
 5005 0c02 72000000 		.4byte	0x72
 5006 0c06 07090000 		.4byte	.LLST57
 5007 0c0a 18       		.uleb128 0x18
 5008 0c0b 95010000 		.4byte	.LASF70
 5009 0c0f 01       		.byte	0x1
 5010 0c10 7402     		.2byte	0x274
 5011 0c12 72000000 		.4byte	0x72
 5012 0c16 37090000 		.4byte	.LLST58
 5013 0c1a 0F       		.uleb128 0xf
 5014 0c1b 30000000 		.4byte	.LVL200
 5015 0c1f E7000000 		.4byte	0xe7
 5016 0c23 330C0000 		.4byte	0xc33
 5017 0c27 10       		.uleb128 0x10
 5018 0c28 01       		.uleb128 0x1
 5019 0c29 51       		.byte	0x51
 5020 0c2a 01       		.uleb128 0x1
 5021 0c2b 33       		.byte	0x33
 5022 0c2c 10       		.uleb128 0x10
 5023 0c2d 01       		.uleb128 0x1
 5024 0c2e 50       		.byte	0x50
 5025 0c2f 02       		.uleb128 0x2
 5026 0c30 74       		.byte	0x74
 5027 0c31 00       		.sleb128 0
 5028 0c32 00       		.byte	0
 5029 0c33 0F       		.uleb128 0xf
 5030 0c34 3A000000 		.4byte	.LVL201
 5031 0c38 2A010000 		.4byte	0x12a
 5032 0c3c 470C0000 		.4byte	0xc47
 5033 0c40 10       		.uleb128 0x10
 5034 0c41 01       		.uleb128 0x1
 5035 0c42 50       		.byte	0x50
 5036 0c43 02       		.uleb128 0x2
 5037 0c44 75       		.byte	0x75
 5038 0c45 00       		.sleb128 0
 5039 0c46 00       		.byte	0
 5040 0c47 11       		.uleb128 0x11
 5041 0c48 6A000000 		.4byte	.LVL202
 5042 0c4c 06020000 		.4byte	0x206
 5043 0c50 10       		.uleb128 0x10
 5044 0c51 01       		.uleb128 0x1
 5045 0c52 50       		.byte	0x50
 5046 0c53 05       		.uleb128 0x5
 5047 0c54 03       		.byte	0x3
ARM GAS  C:\Users\EDTRIC~1\AppData\Local\Temp\ccbcYoXT.s 			page 107


 5048 0c55 00000000 		.4byte	dataEx
 5049 0c59 00       		.byte	0
 5050 0c5a 00       		.byte	0
 5051 0c5b 1D       		.uleb128 0x1d
 5052 0c5c C9040000 		.4byte	.LASF71
 5053 0c60 01       		.byte	0x1
 5054 0c61 8F02     		.2byte	0x28f
 5055 0c63 00000000 		.4byte	.LFB58
 5056 0c67 2C010000 		.4byte	.LFE58-.LFB58
 5057 0c6b 01       		.uleb128 0x1
 5058 0c6c 9C       		.byte	0x9c
 5059 0c6d 520D0000 		.4byte	0xd52
 5060 0c71 18       		.uleb128 0x18
 5061 0c72 48010000 		.4byte	.LASF34
 5062 0c76 01       		.byte	0x1
 5063 0c77 8F02     		.2byte	0x28f
 5064 0c79 72000000 		.4byte	0x72
 5065 0c7d 67090000 		.4byte	.LLST59
 5066 0c81 18       		.uleb128 0x18
 5067 0c82 E4040000 		.4byte	.LASF47
 5068 0c86 01       		.byte	0x1
 5069 0c87 8F02     		.2byte	0x28f
 5070 0c89 64000000 		.4byte	0x64
 5071 0c8d 88090000 		.4byte	.LLST60
 5072 0c91 18       		.uleb128 0x18
 5073 0c92 AA030000 		.4byte	.LASF63
 5074 0c96 01       		.byte	0x1
 5075 0c97 8F02     		.2byte	0x28f
 5076 0c99 64000000 		.4byte	0x64
 5077 0c9d F4090000 		.4byte	.LLST61
 5078 0ca1 1A       		.uleb128 0x1a
 5079 0ca2 4C454400 		.ascii	"LED\000"
 5080 0ca6 01       		.byte	0x1
 5081 0ca7 8F02     		.2byte	0x28f
 5082 0ca9 72000000 		.4byte	0x72
 5083 0cad 150A0000 		.4byte	.LLST62
 5084 0cb1 1B       		.uleb128 0x1b
 5085 0cb2 42050000 		.4byte	.LASF50
 5086 0cb6 01       		.byte	0x1
 5087 0cb7 9402     		.2byte	0x294
 5088 0cb9 64000000 		.4byte	0x64
 5089 0cbd 810A0000 		.4byte	.LLST63
 5090 0cc1 1B       		.uleb128 0x1b
 5091 0cc2 90040000 		.4byte	.LASF51
 5092 0cc6 01       		.byte	0x1
 5093 0cc7 9502     		.2byte	0x295
 5094 0cc9 64000000 		.4byte	0x64
 5095 0ccd 9F0A0000 		.4byte	.LLST64
 5096 0cd1 1B       		.uleb128 0x1b
 5097 0cd2 50010000 		.4byte	.LASF52
 5098 0cd6 01       		.byte	0x1
 5099 0cd7 9702     		.2byte	0x297
 5100 0cd9 64000000 		.4byte	0x64
 5101 0cdd C40A0000 		.4byte	.LLST65
 5102 0ce1 1B       		.uleb128 0x1b
 5103 0ce2 79020000 		.4byte	.LASF53
 5104 0ce6 01       		.byte	0x1
ARM GAS  C:\Users\EDTRIC~1\AppData\Local\Temp\ccbcYoXT.s 			page 108


 5105 0ce7 9802     		.2byte	0x298
 5106 0ce9 64000000 		.4byte	0x64
 5107 0ced FB0A0000 		.4byte	.LLST66
 5108 0cf1 19       		.uleb128 0x19
 5109 0cf2 72656400 		.ascii	"red\000"
 5110 0cf6 01       		.byte	0x1
 5111 0cf7 9902     		.2byte	0x299
 5112 0cf9 64000000 		.4byte	0x64
 5113 0cfd 1A0B0000 		.4byte	.LLST67
 5114 0d01 1B       		.uleb128 0x1b
 5115 0d02 CC030000 		.4byte	.LASF61
 5116 0d06 01       		.byte	0x1
 5117 0d07 A702     		.2byte	0x2a7
 5118 0d09 64000000 		.4byte	0x64
 5119 0d0d 510B0000 		.4byte	.LLST68
 5120 0d11 0F       		.uleb128 0xf
 5121 0d12 A6000000 		.4byte	.LVL228
 5122 0d16 E7000000 		.4byte	0xe7
 5123 0d1a 2A0D0000 		.4byte	0xd2a
 5124 0d1e 10       		.uleb128 0x10
 5125 0d1f 01       		.uleb128 0x1
 5126 0d20 51       		.byte	0x51
 5127 0d21 01       		.uleb128 0x1
 5128 0d22 34       		.byte	0x34
 5129 0d23 10       		.uleb128 0x10
 5130 0d24 01       		.uleb128 0x1
 5131 0d25 50       		.byte	0x50
 5132 0d26 02       		.uleb128 0x2
 5133 0d27 77       		.byte	0x77
 5134 0d28 00       		.sleb128 0
 5135 0d29 00       		.byte	0
 5136 0d2a 0F       		.uleb128 0xf
 5137 0d2b B0000000 		.4byte	.LVL230
 5138 0d2f 2A010000 		.4byte	0x12a
 5139 0d33 3E0D0000 		.4byte	0xd3e
 5140 0d37 10       		.uleb128 0x10
 5141 0d38 01       		.uleb128 0x1
 5142 0d39 50       		.byte	0x50
 5143 0d3a 02       		.uleb128 0x2
 5144 0d3b 75       		.byte	0x75
 5145 0d3c 00       		.sleb128 0
 5146 0d3d 00       		.byte	0
 5147 0d3e 11       		.uleb128 0x11
 5148 0d3f EC000000 		.4byte	.LVL231
 5149 0d43 06020000 		.4byte	0x206
 5150 0d47 10       		.uleb128 0x10
 5151 0d48 01       		.uleb128 0x1
 5152 0d49 50       		.byte	0x50
 5153 0d4a 05       		.uleb128 0x5
 5154 0d4b 03       		.byte	0x3
 5155 0d4c 00000000 		.4byte	dataEx
 5156 0d50 00       		.byte	0
 5157 0d51 00       		.byte	0
 5158 0d52 1D       		.uleb128 0x1d
 5159 0d53 19050000 		.4byte	.LASF72
 5160 0d57 01       		.byte	0x1
 5161 0d58 CB02     		.2byte	0x2cb
ARM GAS  C:\Users\EDTRIC~1\AppData\Local\Temp\ccbcYoXT.s 			page 109


 5162 0d5a 00000000 		.4byte	.LFB59
 5163 0d5e 60000000 		.4byte	.LFE59-.LFB59
 5164 0d62 01       		.uleb128 0x1
 5165 0d63 9C       		.byte	0x9c
 5166 0d64 D50D0000 		.4byte	0xdd5
 5167 0d68 18       		.uleb128 0x18
 5168 0d69 48010000 		.4byte	.LASF34
 5169 0d6d 01       		.byte	0x1
 5170 0d6e CB02     		.2byte	0x2cb
 5171 0d70 72000000 		.4byte	0x72
 5172 0d74 640B0000 		.4byte	.LLST69
 5173 0d78 18       		.uleb128 0x18
 5174 0d79 F2040000 		.4byte	.LASF55
 5175 0d7d 01       		.byte	0x1
 5176 0d7e CB02     		.2byte	0x2cb
 5177 0d80 25000000 		.4byte	0x25
 5178 0d84 850B0000 		.4byte	.LLST70
 5179 0d88 18       		.uleb128 0x18
 5180 0d89 AA030000 		.4byte	.LASF63
 5181 0d8d 01       		.byte	0x1
 5182 0d8e CB02     		.2byte	0x2cb
 5183 0d90 64000000 		.4byte	0x64
 5184 0d94 BE0B0000 		.4byte	.LLST71
 5185 0d98 1A       		.uleb128 0x1a
 5186 0d99 4C454400 		.ascii	"LED\000"
 5187 0d9d 01       		.byte	0x1
 5188 0d9e CB02     		.2byte	0x2cb
 5189 0da0 72000000 		.4byte	0x72
 5190 0da4 EA0B0000 		.4byte	.LLST72
 5191 0da8 1B       		.uleb128 0x1b
 5192 0da9 CA020000 		.4byte	.LASF56
 5193 0dad 01       		.byte	0x1
 5194 0dae CE02     		.2byte	0x2ce
 5195 0db0 64000000 		.4byte	0x64
 5196 0db4 0B0C0000 		.4byte	.LLST73
 5197 0db8 11       		.uleb128 0x11
 5198 0db9 48000000 		.4byte	.LVL241
 5199 0dbd 5B0C0000 		.4byte	0xc5b
 5200 0dc1 10       		.uleb128 0x10
 5201 0dc2 01       		.uleb128 0x1
 5202 0dc3 53       		.byte	0x53
 5203 0dc4 02       		.uleb128 0x2
 5204 0dc5 76       		.byte	0x76
 5205 0dc6 00       		.sleb128 0
 5206 0dc7 10       		.uleb128 0x10
 5207 0dc8 01       		.uleb128 0x1
 5208 0dc9 52       		.byte	0x52
 5209 0dca 02       		.uleb128 0x2
 5210 0dcb 77       		.byte	0x77
 5211 0dcc 00       		.sleb128 0
 5212 0dcd 10       		.uleb128 0x10
 5213 0dce 01       		.uleb128 0x1
 5214 0dcf 50       		.byte	0x50
 5215 0dd0 02       		.uleb128 0x2
 5216 0dd1 78       		.byte	0x78
 5217 0dd2 00       		.sleb128 0
 5218 0dd3 00       		.byte	0
ARM GAS  C:\Users\EDTRIC~1\AppData\Local\Temp\ccbcYoXT.s 			page 110


 5219 0dd4 00       		.byte	0
 5220 0dd5 07       		.uleb128 0x7
 5221 0dd6 00000000 		.4byte	.LASF73
 5222 0dda 01       		.byte	0x1
 5223 0ddb 75       		.byte	0x75
 5224 0ddc 00000000 		.4byte	.LFB40
 5225 0de0 78000000 		.4byte	.LFE40-.LFB40
 5226 0de4 01       		.uleb128 0x1
 5227 0de5 9C       		.byte	0x9c
 5228 0de6 080F0000 		.4byte	0xf08
 5229 0dea 08       		.uleb128 0x8
 5230 0deb 06000000 		.4byte	.LVL244
 5231 0def 12130000 		.4byte	0x1312
 5232 0df3 0F       		.uleb128 0xf
 5233 0df4 16000000 		.4byte	.LVL245
 5234 0df8 E9120000 		.4byte	0x12e9
 5235 0dfc 070E0000 		.4byte	0xe07
 5236 0e00 10       		.uleb128 0x10
 5237 0e01 01       		.uleb128 0x1
 5238 0e02 50       		.byte	0x50
 5239 0e03 02       		.uleb128 0x2
 5240 0e04 08       		.byte	0x8
 5241 0e05 64       		.byte	0x64
 5242 0e06 00       		.byte	0
 5243 0e07 0F       		.uleb128 0xf
 5244 0e08 1C000000 		.4byte	.LVL246
 5245 0e0c D4060000 		.4byte	0x6d4
 5246 0e10 1B0E0000 		.4byte	0xe1b
 5247 0e14 10       		.uleb128 0x10
 5248 0e15 01       		.uleb128 0x1
 5249 0e16 50       		.byte	0x50
 5250 0e17 02       		.uleb128 0x2
 5251 0e18 09       		.byte	0x9
 5252 0e19 FE       		.byte	0xfe
 5253 0e1a 00       		.byte	0
 5254 0e1b 0F       		.uleb128 0xf
 5255 0e1c 22000000 		.4byte	.LVL247
 5256 0e20 E9120000 		.4byte	0x12e9
 5257 0e24 2E0E0000 		.4byte	0xe2e
 5258 0e28 10       		.uleb128 0x10
 5259 0e29 01       		.uleb128 0x1
 5260 0e2a 50       		.byte	0x50
 5261 0e2b 01       		.uleb128 0x1
 5262 0e2c 3A       		.byte	0x3a
 5263 0e2d 00       		.byte	0
 5264 0e2e 0F       		.uleb128 0xf
 5265 0e2f 28000000 		.4byte	.LVL248
 5266 0e33 A2040000 		.4byte	0x4a2
 5267 0e37 410E0000 		.4byte	0xe41
 5268 0e3b 10       		.uleb128 0x10
 5269 0e3c 01       		.uleb128 0x1
 5270 0e3d 50       		.byte	0x50
 5271 0e3e 01       		.uleb128 0x1
 5272 0e3f 31       		.byte	0x31
 5273 0e40 00       		.byte	0
 5274 0e41 0F       		.uleb128 0xf
 5275 0e42 2E000000 		.4byte	.LVL249
ARM GAS  C:\Users\EDTRIC~1\AppData\Local\Temp\ccbcYoXT.s 			page 111


 5276 0e46 E9120000 		.4byte	0x12e9
 5277 0e4a 540E0000 		.4byte	0xe54
 5278 0e4e 10       		.uleb128 0x10
 5279 0e4f 01       		.uleb128 0x1
 5280 0e50 50       		.byte	0x50
 5281 0e51 01       		.uleb128 0x1
 5282 0e52 3A       		.byte	0x3a
 5283 0e53 00       		.byte	0
 5284 0e54 0F       		.uleb128 0xf
 5285 0e55 34000000 		.4byte	.LVL250
 5286 0e59 D8030000 		.4byte	0x3d8
 5287 0e5d 680E0000 		.4byte	0xe68
 5288 0e61 10       		.uleb128 0x10
 5289 0e62 01       		.uleb128 0x1
 5290 0e63 50       		.byte	0x50
 5291 0e64 02       		.uleb128 0x2
 5292 0e65 09       		.byte	0x9
 5293 0e66 FE       		.byte	0xfe
 5294 0e67 00       		.byte	0
 5295 0e68 0F       		.uleb128 0xf
 5296 0e69 3A000000 		.4byte	.LVL251
 5297 0e6d E9120000 		.4byte	0x12e9
 5298 0e71 7B0E0000 		.4byte	0xe7b
 5299 0e75 10       		.uleb128 0x10
 5300 0e76 01       		.uleb128 0x1
 5301 0e77 50       		.byte	0x50
 5302 0e78 01       		.uleb128 0x1
 5303 0e79 3A       		.byte	0x3a
 5304 0e7a 00       		.byte	0
 5305 0e7b 0F       		.uleb128 0xf
 5306 0e7c 48000000 		.4byte	.LVL252
 5307 0e80 520D0000 		.4byte	0xd52
 5308 0e84 9B0E0000 		.4byte	0xe9b
 5309 0e88 10       		.uleb128 0x10
 5310 0e89 01       		.uleb128 0x1
 5311 0e8a 53       		.byte	0x53
 5312 0e8b 01       		.uleb128 0x1
 5313 0e8c 34       		.byte	0x34
 5314 0e8d 10       		.uleb128 0x10
 5315 0e8e 01       		.uleb128 0x1
 5316 0e8f 52       		.byte	0x52
 5317 0e90 03       		.uleb128 0x3
 5318 0e91 0A       		.byte	0xa
 5319 0e92 E803     		.2byte	0x3e8
 5320 0e94 10       		.uleb128 0x10
 5321 0e95 01       		.uleb128 0x1
 5322 0e96 50       		.byte	0x50
 5323 0e97 02       		.uleb128 0x2
 5324 0e98 09       		.byte	0x9
 5325 0e99 FE       		.byte	0xfe
 5326 0e9a 00       		.byte	0
 5327 0e9b 0F       		.uleb128 0xf
 5328 0e9c 50000000 		.4byte	.LVL253
 5329 0ea0 E9120000 		.4byte	0x12e9
 5330 0ea4 B00E0000 		.4byte	0xeb0
 5331 0ea8 10       		.uleb128 0x10
 5332 0ea9 01       		.uleb128 0x1
ARM GAS  C:\Users\EDTRIC~1\AppData\Local\Temp\ccbcYoXT.s 			page 112


 5333 0eaa 50       		.byte	0x50
 5334 0eab 03       		.uleb128 0x3
 5335 0eac 0A       		.byte	0xa
 5336 0ead B004     		.2byte	0x4b0
 5337 0eaf 00       		.byte	0
 5338 0eb0 0F       		.uleb128 0xf
 5339 0eb1 58000000 		.4byte	.LVL254
 5340 0eb5 E40B0000 		.4byte	0xbe4
 5341 0eb9 C90E0000 		.4byte	0xec9
 5342 0ebd 10       		.uleb128 0x10
 5343 0ebe 01       		.uleb128 0x1
 5344 0ebf 51       		.byte	0x51
 5345 0ec0 01       		.uleb128 0x1
 5346 0ec1 31       		.byte	0x31
 5347 0ec2 10       		.uleb128 0x10
 5348 0ec3 01       		.uleb128 0x1
 5349 0ec4 50       		.byte	0x50
 5350 0ec5 02       		.uleb128 0x2
 5351 0ec6 09       		.byte	0x9
 5352 0ec7 FE       		.byte	0xfe
 5353 0ec8 00       		.byte	0
 5354 0ec9 0F       		.uleb128 0xf
 5355 0eca 5E000000 		.4byte	.LVL255
 5356 0ece E9120000 		.4byte	0x12e9
 5357 0ed2 DD0E0000 		.4byte	0xedd
 5358 0ed6 10       		.uleb128 0x10
 5359 0ed7 01       		.uleb128 0x1
 5360 0ed8 50       		.byte	0x50
 5361 0ed9 02       		.uleb128 0x2
 5362 0eda 08       		.byte	0x8
 5363 0edb 64       		.byte	0x64
 5364 0edc 00       		.byte	0
 5365 0edd 0F       		.uleb128 0xf
 5366 0ede 66000000 		.4byte	.LVL256
 5367 0ee2 E40B0000 		.4byte	0xbe4
 5368 0ee6 F60E0000 		.4byte	0xef6
 5369 0eea 10       		.uleb128 0x10
 5370 0eeb 01       		.uleb128 0x1
 5371 0eec 51       		.byte	0x51
 5372 0eed 01       		.uleb128 0x1
 5373 0eee 30       		.byte	0x30
 5374 0eef 10       		.uleb128 0x10
 5375 0ef0 01       		.uleb128 0x1
 5376 0ef1 50       		.byte	0x50
 5377 0ef2 02       		.uleb128 0x2
 5378 0ef3 09       		.byte	0x9
 5379 0ef4 FE       		.byte	0xfe
 5380 0ef5 00       		.byte	0
 5381 0ef6 11       		.uleb128 0x11
 5382 0ef7 6E000000 		.4byte	.LVL257
 5383 0efb E9120000 		.4byte	0x12e9
 5384 0eff 10       		.uleb128 0x10
 5385 0f00 01       		.uleb128 0x1
 5386 0f01 50       		.byte	0x50
 5387 0f02 03       		.uleb128 0x3
 5388 0f03 0A       		.byte	0xa
 5389 0f04 F401     		.2byte	0x1f4
ARM GAS  C:\Users\EDTRIC~1\AppData\Local\Temp\ccbcYoXT.s 			page 113


 5390 0f06 00       		.byte	0
 5391 0f07 00       		.byte	0
 5392 0f08 1D       		.uleb128 0x1d
 5393 0f09 55010000 		.4byte	.LASF74
 5394 0f0d 01       		.byte	0x1
 5395 0f0e D202     		.2byte	0x2d2
 5396 0f10 00000000 		.4byte	.LFB60
 5397 0f14 48010000 		.4byte	.LFE60-.LFB60
 5398 0f18 01       		.uleb128 0x1
 5399 0f19 9C       		.byte	0x9c
 5400 0f1a 0F100000 		.4byte	0x100f
 5401 0f1e 18       		.uleb128 0x18
 5402 0f1f 48010000 		.4byte	.LASF34
 5403 0f23 01       		.byte	0x1
 5404 0f24 D202     		.2byte	0x2d2
 5405 0f26 72000000 		.4byte	0x72
 5406 0f2a 1E0C0000 		.4byte	.LLST74
 5407 0f2e 18       		.uleb128 0x18
 5408 0f2f E4040000 		.4byte	.LASF47
 5409 0f33 01       		.byte	0x1
 5410 0f34 D202     		.2byte	0x2d2
 5411 0f36 64000000 		.4byte	0x64
 5412 0f3a 3F0C0000 		.4byte	.LLST75
 5413 0f3e 18       		.uleb128 0x18
 5414 0f3f AA030000 		.4byte	.LASF63
 5415 0f43 01       		.byte	0x1
 5416 0f44 D202     		.2byte	0x2d2
 5417 0f46 64000000 		.4byte	0x64
 5418 0f4a 6E0C0000 		.4byte	.LLST76
 5419 0f4e 1A       		.uleb128 0x1a
 5420 0f4f 4C454400 		.ascii	"LED\000"
 5421 0f53 01       		.byte	0x1
 5422 0f54 D202     		.2byte	0x2d2
 5423 0f56 72000000 		.4byte	0x72
 5424 0f5a 8F0C0000 		.4byte	.LLST77
 5425 0f5e 1B       		.uleb128 0x1b
 5426 0f5f 38020000 		.4byte	.LASF58
 5427 0f63 01       		.byte	0x1
 5428 0f64 1903     		.2byte	0x319
 5429 0f66 64000000 		.4byte	0x64
 5430 0f6a FB0C0000 		.4byte	.LLST78
 5431 0f6e 1B       		.uleb128 0x1b
 5432 0f6f 16020000 		.4byte	.LASF59
 5433 0f73 01       		.byte	0x1
 5434 0f74 2403     		.2byte	0x324
 5435 0f76 64000000 		.4byte	0x64
 5436 0f7a 2F0D0000 		.4byte	.LLST79
 5437 0f7e 1B       		.uleb128 0x1b
 5438 0f7f D7040000 		.4byte	.LASF60
 5439 0f83 01       		.byte	0x1
 5440 0f84 2503     		.2byte	0x325
 5441 0f86 64000000 		.4byte	0x64
 5442 0f8a 4D0D0000 		.4byte	.LLST80
 5443 0f8e 1B       		.uleb128 0x1b
 5444 0f8f 50010000 		.4byte	.LASF52
 5445 0f93 01       		.byte	0x1
 5446 0f94 2703     		.2byte	0x327
ARM GAS  C:\Users\EDTRIC~1\AppData\Local\Temp\ccbcYoXT.s 			page 114


 5447 0f96 64000000 		.4byte	0x64
 5448 0f9a 600D0000 		.4byte	.LLST81
 5449 0f9e 1B       		.uleb128 0x1b
 5450 0f9f 79020000 		.4byte	.LASF53
 5451 0fa3 01       		.byte	0x1
 5452 0fa4 2803     		.2byte	0x328
 5453 0fa6 64000000 		.4byte	0x64
 5454 0faa 970D0000 		.4byte	.LLST82
 5455 0fae 19       		.uleb128 0x19
 5456 0faf 72656400 		.ascii	"red\000"
 5457 0fb3 01       		.byte	0x1
 5458 0fb4 2903     		.2byte	0x329
 5459 0fb6 64000000 		.4byte	0x64
 5460 0fba B60D0000 		.4byte	.LLST83
 5461 0fbe 1B       		.uleb128 0x1b
 5462 0fbf CC030000 		.4byte	.LASF61
 5463 0fc3 01       		.byte	0x1
 5464 0fc4 3703     		.2byte	0x337
 5465 0fc6 64000000 		.4byte	0x64
 5466 0fca ED0D0000 		.4byte	.LLST84
 5467 0fce 0F       		.uleb128 0xf
 5468 0fcf B8000000 		.4byte	.LVL285
 5469 0fd3 E7000000 		.4byte	0xe7
 5470 0fd7 E70F0000 		.4byte	0xfe7
 5471 0fdb 10       		.uleb128 0x10
 5472 0fdc 01       		.uleb128 0x1
 5473 0fdd 51       		.byte	0x51
 5474 0fde 01       		.uleb128 0x1
 5475 0fdf 34       		.byte	0x34
 5476 0fe0 10       		.uleb128 0x10
 5477 0fe1 01       		.uleb128 0x1
 5478 0fe2 50       		.byte	0x50
 5479 0fe3 02       		.uleb128 0x2
 5480 0fe4 77       		.byte	0x77
 5481 0fe5 00       		.sleb128 0
 5482 0fe6 00       		.byte	0
 5483 0fe7 0F       		.uleb128 0xf
 5484 0fe8 C2000000 		.4byte	.LVL287
 5485 0fec 2A010000 		.4byte	0x12a
 5486 0ff0 FB0F0000 		.4byte	0xffb
 5487 0ff4 10       		.uleb128 0x10
 5488 0ff5 01       		.uleb128 0x1
 5489 0ff6 50       		.byte	0x50
 5490 0ff7 02       		.uleb128 0x2
 5491 0ff8 75       		.byte	0x75
 5492 0ff9 00       		.sleb128 0
 5493 0ffa 00       		.byte	0
 5494 0ffb 11       		.uleb128 0x11
 5495 0ffc FE000000 		.4byte	.LVL288
 5496 1000 06020000 		.4byte	0x206
 5497 1004 10       		.uleb128 0x10
 5498 1005 01       		.uleb128 0x1
 5499 1006 50       		.byte	0x50
 5500 1007 05       		.uleb128 0x5
 5501 1008 03       		.byte	0x3
 5502 1009 00000000 		.4byte	dataEx
 5503 100d 00       		.byte	0
ARM GAS  C:\Users\EDTRIC~1\AppData\Local\Temp\ccbcYoXT.s 			page 115


 5504 100e 00       		.byte	0
 5505 100f 17       		.uleb128 0x17
 5506 1010 DE030000 		.4byte	.LASF75
 5507 1014 01       		.byte	0x1
 5508 1015 5B03     		.2byte	0x35b
 5509 1017 00000000 		.4byte	.LFB61
 5510 101b 94000000 		.4byte	.LFE61-.LFB61
 5511 101f 01       		.uleb128 0x1
 5512 1020 9C       		.byte	0x9c
 5513 1021 96100000 		.4byte	0x1096
 5514 1025 18       		.uleb128 0x18
 5515 1026 48010000 		.4byte	.LASF34
 5516 102a 01       		.byte	0x1
 5517 102b 5B03     		.2byte	0x35b
 5518 102d 72000000 		.4byte	0x72
 5519 1031 000E0000 		.4byte	.LLST85
 5520 1035 18       		.uleb128 0x18
 5521 1036 38000000 		.4byte	.LASF76
 5522 103a 01       		.byte	0x1
 5523 103b 5B03     		.2byte	0x35b
 5524 103d 72000000 		.4byte	0x72
 5525 1041 300E0000 		.4byte	.LLST86
 5526 1045 18       		.uleb128 0x18
 5527 1046 AF030000 		.4byte	.LASF77
 5528 104a 01       		.byte	0x1
 5529 104b 5B03     		.2byte	0x35b
 5530 104d 72000000 		.4byte	0x72
 5531 1051 600E0000 		.4byte	.LLST87
 5532 1055 0F       		.uleb128 0xf
 5533 1056 30000000 		.4byte	.LVL293
 5534 105a E7000000 		.4byte	0xe7
 5535 105e 6E100000 		.4byte	0x106e
 5536 1062 10       		.uleb128 0x10
 5537 1063 01       		.uleb128 0x1
 5538 1064 51       		.byte	0x51
 5539 1065 01       		.uleb128 0x1
 5540 1066 33       		.byte	0x33
 5541 1067 10       		.uleb128 0x10
 5542 1068 01       		.uleb128 0x1
 5543 1069 50       		.byte	0x50
 5544 106a 02       		.uleb128 0x2
 5545 106b 74       		.byte	0x74
 5546 106c 00       		.sleb128 0
 5547 106d 00       		.byte	0
 5548 106e 0F       		.uleb128 0xf
 5549 106f 3A000000 		.4byte	.LVL294
 5550 1073 2A010000 		.4byte	0x12a
 5551 1077 82100000 		.4byte	0x1082
 5552 107b 10       		.uleb128 0x10
 5553 107c 01       		.uleb128 0x1
 5554 107d 50       		.byte	0x50
 5555 107e 02       		.uleb128 0x2
 5556 107f 75       		.byte	0x75
 5557 1080 00       		.sleb128 0
 5558 1081 00       		.byte	0
 5559 1082 11       		.uleb128 0x11
 5560 1083 6E000000 		.4byte	.LVL295
ARM GAS  C:\Users\EDTRIC~1\AppData\Local\Temp\ccbcYoXT.s 			page 116


 5561 1087 06020000 		.4byte	0x206
 5562 108b 10       		.uleb128 0x10
 5563 108c 01       		.uleb128 0x1
 5564 108d 50       		.byte	0x50
 5565 108e 05       		.uleb128 0x5
 5566 108f 03       		.byte	0x3
 5567 1090 00000000 		.4byte	dataEx
 5568 1094 00       		.byte	0
 5569 1095 00       		.byte	0
 5570 1096 17       		.uleb128 0x17
 5571 1097 7E010000 		.4byte	.LASF78
 5572 109b 01       		.byte	0x1
 5573 109c 7703     		.2byte	0x377
 5574 109e 00000000 		.4byte	.LFB62
 5575 10a2 94000000 		.4byte	.LFE62-.LFB62
 5576 10a6 01       		.uleb128 0x1
 5577 10a7 9C       		.byte	0x9c
 5578 10a8 1D110000 		.4byte	0x111d
 5579 10ac 18       		.uleb128 0x18
 5580 10ad 48010000 		.4byte	.LASF34
 5581 10b1 01       		.byte	0x1
 5582 10b2 7703     		.2byte	0x377
 5583 10b4 72000000 		.4byte	0x72
 5584 10b8 900E0000 		.4byte	.LLST88
 5585 10bc 18       		.uleb128 0x18
 5586 10bd 38000000 		.4byte	.LASF76
 5587 10c1 01       		.byte	0x1
 5588 10c2 7703     		.2byte	0x377
 5589 10c4 72000000 		.4byte	0x72
 5590 10c8 C00E0000 		.4byte	.LLST89
 5591 10cc 18       		.uleb128 0x18
 5592 10cd AF030000 		.4byte	.LASF77
 5593 10d1 01       		.byte	0x1
 5594 10d2 7703     		.2byte	0x377
 5595 10d4 72000000 		.4byte	0x72
 5596 10d8 F00E0000 		.4byte	.LLST90
 5597 10dc 0F       		.uleb128 0xf
 5598 10dd 30000000 		.4byte	.LVL300
 5599 10e1 E7000000 		.4byte	0xe7
 5600 10e5 F5100000 		.4byte	0x10f5
 5601 10e9 10       		.uleb128 0x10
 5602 10ea 01       		.uleb128 0x1
 5603 10eb 51       		.byte	0x51
 5604 10ec 01       		.uleb128 0x1
 5605 10ed 33       		.byte	0x33
 5606 10ee 10       		.uleb128 0x10
 5607 10ef 01       		.uleb128 0x1
 5608 10f0 50       		.byte	0x50
 5609 10f1 02       		.uleb128 0x2
 5610 10f2 74       		.byte	0x74
 5611 10f3 00       		.sleb128 0
 5612 10f4 00       		.byte	0
 5613 10f5 0F       		.uleb128 0xf
 5614 10f6 3A000000 		.4byte	.LVL301
 5615 10fa 2A010000 		.4byte	0x12a
 5616 10fe 09110000 		.4byte	0x1109
 5617 1102 10       		.uleb128 0x10
ARM GAS  C:\Users\EDTRIC~1\AppData\Local\Temp\ccbcYoXT.s 			page 117


 5618 1103 01       		.uleb128 0x1
 5619 1104 50       		.byte	0x50
 5620 1105 02       		.uleb128 0x2
 5621 1106 75       		.byte	0x75
 5622 1107 00       		.sleb128 0
 5623 1108 00       		.byte	0
 5624 1109 11       		.uleb128 0x11
 5625 110a 6E000000 		.4byte	.LVL302
 5626 110e 06020000 		.4byte	0x206
 5627 1112 10       		.uleb128 0x10
 5628 1113 01       		.uleb128 0x1
 5629 1114 50       		.byte	0x50
 5630 1115 05       		.uleb128 0x5
 5631 1116 03       		.byte	0x3
 5632 1117 00000000 		.4byte	dataEx
 5633 111b 00       		.byte	0
 5634 111c 00       		.byte	0
 5635 111d 1F       		.uleb128 0x1f
 5636 111e 2C040000 		.4byte	.LASF79
 5637 1122 03       		.byte	0x3
 5638 1123 3D       		.byte	0x3d
 5639 1124 29110000 		.4byte	0x1129
 5640 1128 01       		.byte	0x1
 5641 1129 06       		.uleb128 0x6
 5642 112a 72000000 		.4byte	0x72
 5643 112e 1F       		.uleb128 0x1f
 5644 112f 23020000 		.4byte	.LASF80
 5645 1133 03       		.byte	0x3
 5646 1134 3E       		.byte	0x3e
 5647 1135 72000000 		.4byte	0x72
 5648 1139 02       		.byte	0x2
 5649 113a 1F       		.uleb128 0x1f
 5650 113b C0040000 		.4byte	.LASF81
 5651 113f 03       		.byte	0x3
 5652 1140 3F       		.byte	0x3f
 5653 1141 72000000 		.4byte	0x72
 5654 1145 03       		.byte	0x3
 5655 1146 1F       		.uleb128 0x1f
 5656 1147 62020000 		.4byte	.LASF82
 5657 114b 03       		.byte	0x3
 5658 114c 40       		.byte	0x40
 5659 114d 29110000 		.4byte	0x1129
 5660 1151 04       		.byte	0x4
 5661 1152 1F       		.uleb128 0x1f
 5662 1153 0B020000 		.4byte	.LASF83
 5663 1157 03       		.byte	0x3
 5664 1158 41       		.byte	0x41
 5665 1159 72000000 		.4byte	0x72
 5666 115d 05       		.byte	0x5
 5667 115e 1F       		.uleb128 0x1f
 5668 115f 30030000 		.4byte	.LASF84
 5669 1163 03       		.byte	0x3
 5670 1164 42       		.byte	0x42
 5671 1165 72000000 		.4byte	0x72
 5672 1169 06       		.byte	0x6
 5673 116a 1F       		.uleb128 0x1f
 5674 116b 74010000 		.4byte	.LASF85
ARM GAS  C:\Users\EDTRIC~1\AppData\Local\Temp\ccbcYoXT.s 			page 118


 5675 116f 03       		.byte	0x3
 5676 1170 43       		.byte	0x43
 5677 1171 72000000 		.4byte	0x72
 5678 1175 07       		.byte	0x7
 5679 1176 20       		.uleb128 0x20
 5680 1177 4B040000 		.4byte	.LASF86
 5681 117b 01       		.byte	0x1
 5682 117c 0F       		.byte	0xf
 5683 117d 72000000 		.4byte	0x72
 5684 1181 05       		.uleb128 0x5
 5685 1182 03       		.byte	0x3
 5686 1183 00000000 		.4byte	pSize
 5687 1187 21       		.uleb128 0x21
 5688 1188 70494400 		.ascii	"pID\000"
 5689 118c 01       		.byte	0x1
 5690 118d 10       		.byte	0x10
 5691 118e 72000000 		.4byte	0x72
 5692 1192 05       		.uleb128 0x5
 5693 1193 03       		.byte	0x3
 5694 1194 00000000 		.4byte	pID
 5695 1198 21       		.uleb128 0x21
 5696 1199 636D6400 		.ascii	"cmd\000"
 5697 119d 01       		.byte	0x1
 5698 119e 11       		.byte	0x11
 5699 119f 72000000 		.4byte	0x72
 5700 11a3 05       		.uleb128 0x5
 5701 11a4 03       		.byte	0x3
 5702 11a5 00000000 		.4byte	cmd
 5703 11a9 20       		.uleb128 0x20
 5704 11aa 10010000 		.4byte	.LASF17
 5705 11ae 01       		.byte	0x1
 5706 11af 12       		.byte	0x12
 5707 11b0 72000000 		.4byte	0x72
 5708 11b4 05       		.uleb128 0x5
 5709 11b5 03       		.byte	0x3
 5710 11b6 00000000 		.4byte	lengthString
 5711 11ba 21       		.uleb128 0x21
 5712 11bb 636B3100 		.ascii	"ck1\000"
 5713 11bf 01       		.byte	0x1
 5714 11c0 13       		.byte	0x13
 5715 11c1 72000000 		.4byte	0x72
 5716 11c5 05       		.uleb128 0x5
 5717 11c6 03       		.byte	0x3
 5718 11c7 00000000 		.4byte	ck1
 5719 11cb 21       		.uleb128 0x21
 5720 11cc 636B3200 		.ascii	"ck2\000"
 5721 11d0 01       		.byte	0x1
 5722 11d1 14       		.byte	0x14
 5723 11d2 72000000 		.4byte	0x72
 5724 11d6 05       		.uleb128 0x5
 5725 11d7 03       		.byte	0x3
 5726 11d8 00000000 		.4byte	ck2
 5727 11dc 20       		.uleb128 0x20
 5728 11dd 1D010000 		.4byte	.LASF87
 5729 11e1 01       		.byte	0x1
 5730 11e2 16       		.byte	0x16
 5731 11e3 72000000 		.4byte	0x72
ARM GAS  C:\Users\EDTRIC~1\AppData\Local\Temp\ccbcYoXT.s 			page 119


 5732 11e7 05       		.uleb128 0x5
 5733 11e8 03       		.byte	0x3
 5734 11e9 00000000 		.4byte	conta
 5735 11ed 21       		.uleb128 0x21
 5736 11ee 584F5200 		.ascii	"XOR\000"
 5737 11f2 01       		.byte	0x1
 5738 11f3 18       		.byte	0x18
 5739 11f4 72000000 		.4byte	0x72
 5740 11f8 05       		.uleb128 0x5
 5741 11f9 03       		.byte	0x3
 5742 11fa 00000000 		.4byte	XOR
 5743 11fe 20       		.uleb128 0x20
 5744 11ff B9030000 		.4byte	.LASF88
 5745 1203 01       		.byte	0x1
 5746 1204 19       		.byte	0x19
 5747 1205 64000000 		.4byte	0x64
 5748 1209 05       		.uleb128 0x5
 5749 120a 03       		.byte	0x3
 5750 120b 00000000 		.4byte	playTime
 5751 120f 12       		.uleb128 0x12
 5752 1210 72000000 		.4byte	0x72
 5753 1214 1F120000 		.4byte	0x121f
 5754 1218 13       		.uleb128 0x13
 5755 1219 A1000000 		.4byte	0xa1
 5756 121d 1D       		.byte	0x1d
 5757 121e 00       		.byte	0
 5758 121f 20       		.uleb128 0x20
 5759 1220 36040000 		.4byte	.LASF16
 5760 1224 01       		.byte	0x1
 5761 1225 1B       		.byte	0x1b
 5762 1226 0F120000 		.4byte	0x120f
 5763 122a 05       		.uleb128 0x5
 5764 122b 03       		.byte	0x3
 5765 122c 00000000 		.4byte	data
 5766 1230 12       		.uleb128 0x12
 5767 1231 72000000 		.4byte	0x72
 5768 1235 40120000 		.4byte	0x1240
 5769 1239 13       		.uleb128 0x13
 5770 123a A1000000 		.4byte	0xa1
 5771 123e 39       		.byte	0x39
 5772 123f 00       		.byte	0
 5773 1240 20       		.uleb128 0x20
 5774 1241 4E020000 		.4byte	.LASF89
 5775 1245 01       		.byte	0x1
 5776 1246 1C       		.byte	0x1c
 5777 1247 30120000 		.4byte	0x1230
 5778 124b 05       		.uleb128 0x5
 5779 124c 03       		.byte	0x3
 5780 124d 00000000 		.4byte	dataEx
 5781 1251 12       		.uleb128 0x12
 5782 1252 72000000 		.4byte	0x72
 5783 1256 61120000 		.4byte	0x1261
 5784 125a 13       		.uleb128 0x13
 5785 125b A1000000 		.4byte	0xa1
 5786 125f 31       		.byte	0x31
 5787 1260 00       		.byte	0
 5788 1261 20       		.uleb128 0x20
ARM GAS  C:\Users\EDTRIC~1\AppData\Local\Temp\ccbcYoXT.s 			page 120


 5789 1262 3B040000 		.4byte	.LASF90
 5790 1266 01       		.byte	0x1
 5791 1267 1D       		.byte	0x1d
 5792 1268 51120000 		.4byte	0x1251
 5793 126c 05       		.uleb128 0x5
 5794 126d 03       		.byte	0x3
 5795 126e 00000000 		.4byte	moveData
 5796 1272 22       		.uleb128 0x22
 5797 1273 90020000 		.4byte	.LASF91
 5798 1277 04       		.byte	0x4
 5799 1278 8F01     		.2byte	0x18f
 5800 127a 22       		.uleb128 0x22
 5801 127b AA020000 		.4byte	.LASF92
 5802 127f 04       		.byte	0x4
 5803 1280 8701     		.2byte	0x187
 5804 1282 23       		.uleb128 0x23
 5805 1283 D3020000 		.4byte	.LASF103
 5806 1287 07       		.byte	0x7
 5807 1288 D9       		.byte	0xd9
 5808 1289 64000000 		.4byte	0x64
 5809 128d 9D120000 		.4byte	0x129d
 5810 1291 24       		.uleb128 0x24
 5811 1292 A8000000 		.4byte	0xa8
 5812 1296 24       		.uleb128 0x24
 5813 1297 AE000000 		.4byte	0xae
 5814 129b 25       		.uleb128 0x25
 5815 129c 00       		.byte	0
 5816 129d 26       		.uleb128 0x26
 5817 129e 7A030000 		.4byte	.LASF93
 5818 12a2 04       		.byte	0x4
 5819 12a3 7701     		.2byte	0x177
 5820 12a5 AF120000 		.4byte	0x12af
 5821 12a9 24       		.uleb128 0x24
 5822 12aa AF120000 		.4byte	0x12af
 5823 12ae 00       		.byte	0
 5824 12af 05       		.uleb128 0x5
 5825 12b0 04       		.byte	0x4
 5826 12b1 B5120000 		.4byte	0x12b5
 5827 12b5 06       		.uleb128 0x6
 5828 12b6 8F000000 		.4byte	0x8f
 5829 12ba 26       		.uleb128 0x26
 5830 12bb 78040000 		.4byte	.LASF94
 5831 12bf 04       		.byte	0x4
 5832 12c0 8C01     		.2byte	0x18c
 5833 12c2 CC120000 		.4byte	0x12cc
 5834 12c6 24       		.uleb128 0x24
 5835 12c7 7D000000 		.4byte	0x7d
 5836 12cb 00       		.byte	0
 5837 12cc 26       		.uleb128 0x26
 5838 12cd 97040000 		.4byte	.LASF95
 5839 12d1 04       		.byte	0x4
 5840 12d2 8D01     		.2byte	0x18d
 5841 12d4 E3120000 		.4byte	0x12e3
 5842 12d8 24       		.uleb128 0x24
 5843 12d9 E3120000 		.4byte	0x12e3
 5844 12dd 24       		.uleb128 0x24
 5845 12de 7D000000 		.4byte	0x7d
ARM GAS  C:\Users\EDTRIC~1\AppData\Local\Temp\ccbcYoXT.s 			page 121


 5846 12e2 00       		.byte	0
 5847 12e3 05       		.uleb128 0x5
 5848 12e4 04       		.byte	0x4
 5849 12e5 29110000 		.4byte	0x1129
 5850 12e9 27       		.uleb128 0x27
 5851 12ea 3A050000 		.4byte	.LASF96
 5852 12ee 05       		.byte	0x5
 5853 12ef 57       		.byte	0x57
 5854 12f0 FA120000 		.4byte	0x12fa
 5855 12f4 24       		.uleb128 0x24
 5856 12f5 7D000000 		.4byte	0x7d
 5857 12f9 00       		.byte	0
 5858 12fa 28       		.uleb128 0x28
 5859 12fb 9F010000 		.4byte	.LASF97
 5860 12ff 04       		.byte	0x4
 5861 1300 6B01     		.2byte	0x16b
 5862 1302 7D000000 		.4byte	0x7d
 5863 1306 28       		.uleb128 0x28
 5864 1307 B0010000 		.4byte	.LASF98
 5865 130b 04       		.byte	0x4
 5866 130c 8601     		.2byte	0x186
 5867 130e 7D000000 		.4byte	0x7d
 5868 1312 29       		.uleb128 0x29
 5869 1313 F5030000 		.4byte	.LASF99
 5870 1317 06       		.byte	0x6
 5871 1318 68       		.byte	0x68
 5872 1319 00       		.byte	0
 5873              		.section	.debug_abbrev,"",%progbits
 5874              	.Ldebug_abbrev0:
 5875 0000 01       		.uleb128 0x1
 5876 0001 11       		.uleb128 0x11
 5877 0002 01       		.byte	0x1
 5878 0003 25       		.uleb128 0x25
 5879 0004 0E       		.uleb128 0xe
 5880 0005 13       		.uleb128 0x13
 5881 0006 0B       		.uleb128 0xb
 5882 0007 03       		.uleb128 0x3
 5883 0008 0E       		.uleb128 0xe
 5884 0009 1B       		.uleb128 0x1b
 5885 000a 0E       		.uleb128 0xe
 5886 000b 55       		.uleb128 0x55
 5887 000c 17       		.uleb128 0x17
 5888 000d 11       		.uleb128 0x11
 5889 000e 01       		.uleb128 0x1
 5890 000f 10       		.uleb128 0x10
 5891 0010 17       		.uleb128 0x17
 5892 0011 00       		.byte	0
 5893 0012 00       		.byte	0
 5894 0013 02       		.uleb128 0x2
 5895 0014 24       		.uleb128 0x24
 5896 0015 00       		.byte	0
 5897 0016 0B       		.uleb128 0xb
 5898 0017 0B       		.uleb128 0xb
 5899 0018 3E       		.uleb128 0x3e
 5900 0019 0B       		.uleb128 0xb
 5901 001a 03       		.uleb128 0x3
 5902 001b 0E       		.uleb128 0xe
ARM GAS  C:\Users\EDTRIC~1\AppData\Local\Temp\ccbcYoXT.s 			page 122


 5903 001c 00       		.byte	0
 5904 001d 00       		.byte	0
 5905 001e 03       		.uleb128 0x3
 5906 001f 24       		.uleb128 0x24
 5907 0020 00       		.byte	0
 5908 0021 0B       		.uleb128 0xb
 5909 0022 0B       		.uleb128 0xb
 5910 0023 3E       		.uleb128 0x3e
 5911 0024 0B       		.uleb128 0xb
 5912 0025 03       		.uleb128 0x3
 5913 0026 08       		.uleb128 0x8
 5914 0027 00       		.byte	0
 5915 0028 00       		.byte	0
 5916 0029 04       		.uleb128 0x4
 5917 002a 16       		.uleb128 0x16
 5918 002b 00       		.byte	0
 5919 002c 03       		.uleb128 0x3
 5920 002d 0E       		.uleb128 0xe
 5921 002e 3A       		.uleb128 0x3a
 5922 002f 0B       		.uleb128 0xb
 5923 0030 3B       		.uleb128 0x3b
 5924 0031 0B       		.uleb128 0xb
 5925 0032 49       		.uleb128 0x49
 5926 0033 13       		.uleb128 0x13
 5927 0034 00       		.byte	0
 5928 0035 00       		.byte	0
 5929 0036 05       		.uleb128 0x5
 5930 0037 0F       		.uleb128 0xf
 5931 0038 00       		.byte	0
 5932 0039 0B       		.uleb128 0xb
 5933 003a 0B       		.uleb128 0xb
 5934 003b 49       		.uleb128 0x49
 5935 003c 13       		.uleb128 0x13
 5936 003d 00       		.byte	0
 5937 003e 00       		.byte	0
 5938 003f 06       		.uleb128 0x6
 5939 0040 26       		.uleb128 0x26
 5940 0041 00       		.byte	0
 5941 0042 49       		.uleb128 0x49
 5942 0043 13       		.uleb128 0x13
 5943 0044 00       		.byte	0
 5944 0045 00       		.byte	0
 5945 0046 07       		.uleb128 0x7
 5946 0047 2E       		.uleb128 0x2e
 5947 0048 01       		.byte	0x1
 5948 0049 3F       		.uleb128 0x3f
 5949 004a 19       		.uleb128 0x19
 5950 004b 03       		.uleb128 0x3
 5951 004c 0E       		.uleb128 0xe
 5952 004d 3A       		.uleb128 0x3a
 5953 004e 0B       		.uleb128 0xb
 5954 004f 3B       		.uleb128 0x3b
 5955 0050 0B       		.uleb128 0xb
 5956 0051 27       		.uleb128 0x27
 5957 0052 19       		.uleb128 0x19
 5958 0053 11       		.uleb128 0x11
 5959 0054 01       		.uleb128 0x1
ARM GAS  C:\Users\EDTRIC~1\AppData\Local\Temp\ccbcYoXT.s 			page 123


 5960 0055 12       		.uleb128 0x12
 5961 0056 06       		.uleb128 0x6
 5962 0057 40       		.uleb128 0x40
 5963 0058 18       		.uleb128 0x18
 5964 0059 9742     		.uleb128 0x2117
 5965 005b 19       		.uleb128 0x19
 5966 005c 01       		.uleb128 0x1
 5967 005d 13       		.uleb128 0x13
 5968 005e 00       		.byte	0
 5969 005f 00       		.byte	0
 5970 0060 08       		.uleb128 0x8
 5971 0061 898201   		.uleb128 0x4109
 5972 0064 00       		.byte	0
 5973 0065 11       		.uleb128 0x11
 5974 0066 01       		.uleb128 0x1
 5975 0067 31       		.uleb128 0x31
 5976 0068 13       		.uleb128 0x13
 5977 0069 00       		.byte	0
 5978 006a 00       		.byte	0
 5979 006b 09       		.uleb128 0x9
 5980 006c 2E       		.uleb128 0x2e
 5981 006d 01       		.byte	0x1
 5982 006e 3F       		.uleb128 0x3f
 5983 006f 19       		.uleb128 0x19
 5984 0070 03       		.uleb128 0x3
 5985 0071 0E       		.uleb128 0xe
 5986 0072 3A       		.uleb128 0x3a
 5987 0073 0B       		.uleb128 0xb
 5988 0074 3B       		.uleb128 0x3b
 5989 0075 0B       		.uleb128 0xb
 5990 0076 27       		.uleb128 0x27
 5991 0077 19       		.uleb128 0x19
 5992 0078 49       		.uleb128 0x49
 5993 0079 13       		.uleb128 0x13
 5994 007a 11       		.uleb128 0x11
 5995 007b 01       		.uleb128 0x1
 5996 007c 12       		.uleb128 0x12
 5997 007d 06       		.uleb128 0x6
 5998 007e 40       		.uleb128 0x40
 5999 007f 18       		.uleb128 0x18
 6000 0080 9742     		.uleb128 0x2117
 6001 0082 19       		.uleb128 0x19
 6002 0083 01       		.uleb128 0x1
 6003 0084 13       		.uleb128 0x13
 6004 0085 00       		.byte	0
 6005 0086 00       		.byte	0
 6006 0087 0A       		.uleb128 0xa
 6007 0088 05       		.uleb128 0x5
 6008 0089 00       		.byte	0
 6009 008a 03       		.uleb128 0x3
 6010 008b 0E       		.uleb128 0xe
 6011 008c 3A       		.uleb128 0x3a
 6012 008d 0B       		.uleb128 0xb
 6013 008e 3B       		.uleb128 0x3b
 6014 008f 0B       		.uleb128 0xb
 6015 0090 49       		.uleb128 0x49
 6016 0091 13       		.uleb128 0x13
ARM GAS  C:\Users\EDTRIC~1\AppData\Local\Temp\ccbcYoXT.s 			page 124


 6017 0092 02       		.uleb128 0x2
 6018 0093 17       		.uleb128 0x17
 6019 0094 00       		.byte	0
 6020 0095 00       		.byte	0
 6021 0096 0B       		.uleb128 0xb
 6022 0097 05       		.uleb128 0x5
 6023 0098 00       		.byte	0
 6024 0099 03       		.uleb128 0x3
 6025 009a 0E       		.uleb128 0xe
 6026 009b 3A       		.uleb128 0x3a
 6027 009c 0B       		.uleb128 0xb
 6028 009d 3B       		.uleb128 0x3b
 6029 009e 0B       		.uleb128 0xb
 6030 009f 49       		.uleb128 0x49
 6031 00a0 13       		.uleb128 0x13
 6032 00a1 02       		.uleb128 0x2
 6033 00a2 18       		.uleb128 0x18
 6034 00a3 00       		.byte	0
 6035 00a4 00       		.byte	0
 6036 00a5 0C       		.uleb128 0xc
 6037 00a6 34       		.uleb128 0x34
 6038 00a7 00       		.byte	0
 6039 00a8 03       		.uleb128 0x3
 6040 00a9 08       		.uleb128 0x8
 6041 00aa 3A       		.uleb128 0x3a
 6042 00ab 0B       		.uleb128 0xb
 6043 00ac 3B       		.uleb128 0x3b
 6044 00ad 0B       		.uleb128 0xb
 6045 00ae 49       		.uleb128 0x49
 6046 00af 13       		.uleb128 0x13
 6047 00b0 02       		.uleb128 0x2
 6048 00b1 17       		.uleb128 0x17
 6049 00b2 00       		.byte	0
 6050 00b3 00       		.byte	0
 6051 00b4 0D       		.uleb128 0xd
 6052 00b5 05       		.uleb128 0x5
 6053 00b6 00       		.byte	0
 6054 00b7 03       		.uleb128 0x3
 6055 00b8 08       		.uleb128 0x8
 6056 00b9 3A       		.uleb128 0x3a
 6057 00ba 0B       		.uleb128 0xb
 6058 00bb 3B       		.uleb128 0x3b
 6059 00bc 0B       		.uleb128 0xb
 6060 00bd 49       		.uleb128 0x49
 6061 00be 13       		.uleb128 0x13
 6062 00bf 02       		.uleb128 0x2
 6063 00c0 17       		.uleb128 0x17
 6064 00c1 00       		.byte	0
 6065 00c2 00       		.byte	0
 6066 00c3 0E       		.uleb128 0xe
 6067 00c4 34       		.uleb128 0x34
 6068 00c5 00       		.byte	0
 6069 00c6 03       		.uleb128 0x3
 6070 00c7 0E       		.uleb128 0xe
 6071 00c8 3A       		.uleb128 0x3a
 6072 00c9 0B       		.uleb128 0xb
 6073 00ca 3B       		.uleb128 0x3b
ARM GAS  C:\Users\EDTRIC~1\AppData\Local\Temp\ccbcYoXT.s 			page 125


 6074 00cb 0B       		.uleb128 0xb
 6075 00cc 49       		.uleb128 0x49
 6076 00cd 13       		.uleb128 0x13
 6077 00ce 02       		.uleb128 0x2
 6078 00cf 18       		.uleb128 0x18
 6079 00d0 00       		.byte	0
 6080 00d1 00       		.byte	0
 6081 00d2 0F       		.uleb128 0xf
 6082 00d3 898201   		.uleb128 0x4109
 6083 00d6 01       		.byte	0x1
 6084 00d7 11       		.uleb128 0x11
 6085 00d8 01       		.uleb128 0x1
 6086 00d9 31       		.uleb128 0x31
 6087 00da 13       		.uleb128 0x13
 6088 00db 01       		.uleb128 0x1
 6089 00dc 13       		.uleb128 0x13
 6090 00dd 00       		.byte	0
 6091 00de 00       		.byte	0
 6092 00df 10       		.uleb128 0x10
 6093 00e0 8A8201   		.uleb128 0x410a
 6094 00e3 00       		.byte	0
 6095 00e4 02       		.uleb128 0x2
 6096 00e5 18       		.uleb128 0x18
 6097 00e6 9142     		.uleb128 0x2111
 6098 00e8 18       		.uleb128 0x18
 6099 00e9 00       		.byte	0
 6100 00ea 00       		.byte	0
 6101 00eb 11       		.uleb128 0x11
 6102 00ec 898201   		.uleb128 0x4109
 6103 00ef 01       		.byte	0x1
 6104 00f0 11       		.uleb128 0x11
 6105 00f1 01       		.uleb128 0x1
 6106 00f2 31       		.uleb128 0x31
 6107 00f3 13       		.uleb128 0x13
 6108 00f4 00       		.byte	0
 6109 00f5 00       		.byte	0
 6110 00f6 12       		.uleb128 0x12
 6111 00f7 01       		.uleb128 0x1
 6112 00f8 01       		.byte	0x1
 6113 00f9 49       		.uleb128 0x49
 6114 00fa 13       		.uleb128 0x13
 6115 00fb 01       		.uleb128 0x1
 6116 00fc 13       		.uleb128 0x13
 6117 00fd 00       		.byte	0
 6118 00fe 00       		.byte	0
 6119 00ff 13       		.uleb128 0x13
 6120 0100 21       		.uleb128 0x21
 6121 0101 00       		.byte	0
 6122 0102 49       		.uleb128 0x49
 6123 0103 13       		.uleb128 0x13
 6124 0104 2F       		.uleb128 0x2f
 6125 0105 0B       		.uleb128 0xb
 6126 0106 00       		.byte	0
 6127 0107 00       		.byte	0
 6128 0108 14       		.uleb128 0x14
 6129 0109 34       		.uleb128 0x34
 6130 010a 00       		.byte	0
ARM GAS  C:\Users\EDTRIC~1\AppData\Local\Temp\ccbcYoXT.s 			page 126


 6131 010b 03       		.uleb128 0x3
 6132 010c 0E       		.uleb128 0xe
 6133 010d 3A       		.uleb128 0x3a
 6134 010e 0B       		.uleb128 0xb
 6135 010f 3B       		.uleb128 0x3b
 6136 0110 0B       		.uleb128 0xb
 6137 0111 49       		.uleb128 0x49
 6138 0112 13       		.uleb128 0x13
 6139 0113 02       		.uleb128 0x2
 6140 0114 17       		.uleb128 0x17
 6141 0115 00       		.byte	0
 6142 0116 00       		.byte	0
 6143 0117 15       		.uleb128 0x15
 6144 0118 0B       		.uleb128 0xb
 6145 0119 01       		.byte	0x1
 6146 011a 11       		.uleb128 0x11
 6147 011b 01       		.uleb128 0x1
 6148 011c 12       		.uleb128 0x12
 6149 011d 06       		.uleb128 0x6
 6150 011e 01       		.uleb128 0x1
 6151 011f 13       		.uleb128 0x13
 6152 0120 00       		.byte	0
 6153 0121 00       		.byte	0
 6154 0122 16       		.uleb128 0x16
 6155 0123 2E       		.uleb128 0x2e
 6156 0124 01       		.byte	0x1
 6157 0125 3F       		.uleb128 0x3f
 6158 0126 19       		.uleb128 0x19
 6159 0127 03       		.uleb128 0x3
 6160 0128 0E       		.uleb128 0xe
 6161 0129 3A       		.uleb128 0x3a
 6162 012a 0B       		.uleb128 0xb
 6163 012b 3B       		.uleb128 0x3b
 6164 012c 05       		.uleb128 0x5
 6165 012d 27       		.uleb128 0x27
 6166 012e 19       		.uleb128 0x19
 6167 012f 49       		.uleb128 0x49
 6168 0130 13       		.uleb128 0x13
 6169 0131 11       		.uleb128 0x11
 6170 0132 01       		.uleb128 0x1
 6171 0133 12       		.uleb128 0x12
 6172 0134 06       		.uleb128 0x6
 6173 0135 40       		.uleb128 0x40
 6174 0136 18       		.uleb128 0x18
 6175 0137 9742     		.uleb128 0x2117
 6176 0139 19       		.uleb128 0x19
 6177 013a 01       		.uleb128 0x1
 6178 013b 13       		.uleb128 0x13
 6179 013c 00       		.byte	0
 6180 013d 00       		.byte	0
 6181 013e 17       		.uleb128 0x17
 6182 013f 2E       		.uleb128 0x2e
 6183 0140 01       		.byte	0x1
 6184 0141 3F       		.uleb128 0x3f
 6185 0142 19       		.uleb128 0x19
 6186 0143 03       		.uleb128 0x3
 6187 0144 0E       		.uleb128 0xe
ARM GAS  C:\Users\EDTRIC~1\AppData\Local\Temp\ccbcYoXT.s 			page 127


 6188 0145 3A       		.uleb128 0x3a
 6189 0146 0B       		.uleb128 0xb
 6190 0147 3B       		.uleb128 0x3b
 6191 0148 05       		.uleb128 0x5
 6192 0149 27       		.uleb128 0x27
 6193 014a 19       		.uleb128 0x19
 6194 014b 11       		.uleb128 0x11
 6195 014c 01       		.uleb128 0x1
 6196 014d 12       		.uleb128 0x12
 6197 014e 06       		.uleb128 0x6
 6198 014f 40       		.uleb128 0x40
 6199 0150 18       		.uleb128 0x18
 6200 0151 9742     		.uleb128 0x2117
 6201 0153 19       		.uleb128 0x19
 6202 0154 01       		.uleb128 0x1
 6203 0155 13       		.uleb128 0x13
 6204 0156 00       		.byte	0
 6205 0157 00       		.byte	0
 6206 0158 18       		.uleb128 0x18
 6207 0159 05       		.uleb128 0x5
 6208 015a 00       		.byte	0
 6209 015b 03       		.uleb128 0x3
 6210 015c 0E       		.uleb128 0xe
 6211 015d 3A       		.uleb128 0x3a
 6212 015e 0B       		.uleb128 0xb
 6213 015f 3B       		.uleb128 0x3b
 6214 0160 05       		.uleb128 0x5
 6215 0161 49       		.uleb128 0x49
 6216 0162 13       		.uleb128 0x13
 6217 0163 02       		.uleb128 0x2
 6218 0164 17       		.uleb128 0x17
 6219 0165 00       		.byte	0
 6220 0166 00       		.byte	0
 6221 0167 19       		.uleb128 0x19
 6222 0168 34       		.uleb128 0x34
 6223 0169 00       		.byte	0
 6224 016a 03       		.uleb128 0x3
 6225 016b 08       		.uleb128 0x8
 6226 016c 3A       		.uleb128 0x3a
 6227 016d 0B       		.uleb128 0xb
 6228 016e 3B       		.uleb128 0x3b
 6229 016f 05       		.uleb128 0x5
 6230 0170 49       		.uleb128 0x49
 6231 0171 13       		.uleb128 0x13
 6232 0172 02       		.uleb128 0x2
 6233 0173 17       		.uleb128 0x17
 6234 0174 00       		.byte	0
 6235 0175 00       		.byte	0
 6236 0176 1A       		.uleb128 0x1a
 6237 0177 05       		.uleb128 0x5
 6238 0178 00       		.byte	0
 6239 0179 03       		.uleb128 0x3
 6240 017a 08       		.uleb128 0x8
 6241 017b 3A       		.uleb128 0x3a
 6242 017c 0B       		.uleb128 0xb
 6243 017d 3B       		.uleb128 0x3b
 6244 017e 05       		.uleb128 0x5
ARM GAS  C:\Users\EDTRIC~1\AppData\Local\Temp\ccbcYoXT.s 			page 128


 6245 017f 49       		.uleb128 0x49
 6246 0180 13       		.uleb128 0x13
 6247 0181 02       		.uleb128 0x2
 6248 0182 17       		.uleb128 0x17
 6249 0183 00       		.byte	0
 6250 0184 00       		.byte	0
 6251 0185 1B       		.uleb128 0x1b
 6252 0186 34       		.uleb128 0x34
 6253 0187 00       		.byte	0
 6254 0188 03       		.uleb128 0x3
 6255 0189 0E       		.uleb128 0xe
 6256 018a 3A       		.uleb128 0x3a
 6257 018b 0B       		.uleb128 0xb
 6258 018c 3B       		.uleb128 0x3b
 6259 018d 05       		.uleb128 0x5
 6260 018e 49       		.uleb128 0x49
 6261 018f 13       		.uleb128 0x13
 6262 0190 02       		.uleb128 0x2
 6263 0191 17       		.uleb128 0x17
 6264 0192 00       		.byte	0
 6265 0193 00       		.byte	0
 6266 0194 1C       		.uleb128 0x1c
 6267 0195 34       		.uleb128 0x34
 6268 0196 00       		.byte	0
 6269 0197 03       		.uleb128 0x3
 6270 0198 0E       		.uleb128 0xe
 6271 0199 3A       		.uleb128 0x3a
 6272 019a 0B       		.uleb128 0xb
 6273 019b 3B       		.uleb128 0x3b
 6274 019c 05       		.uleb128 0x5
 6275 019d 49       		.uleb128 0x49
 6276 019e 13       		.uleb128 0x13
 6277 019f 00       		.byte	0
 6278 01a0 00       		.byte	0
 6279 01a1 1D       		.uleb128 0x1d
 6280 01a2 2E       		.uleb128 0x2e
 6281 01a3 01       		.byte	0x1
 6282 01a4 3F       		.uleb128 0x3f
 6283 01a5 19       		.uleb128 0x19
 6284 01a6 03       		.uleb128 0x3
 6285 01a7 0E       		.uleb128 0xe
 6286 01a8 3A       		.uleb128 0x3a
 6287 01a9 0B       		.uleb128 0xb
 6288 01aa 3B       		.uleb128 0x3b
 6289 01ab 05       		.uleb128 0x5
 6290 01ac 27       		.uleb128 0x27
 6291 01ad 19       		.uleb128 0x19
 6292 01ae 11       		.uleb128 0x11
 6293 01af 01       		.uleb128 0x1
 6294 01b0 12       		.uleb128 0x12
 6295 01b1 06       		.uleb128 0x6
 6296 01b2 40       		.uleb128 0x40
 6297 01b3 18       		.uleb128 0x18
 6298 01b4 9642     		.uleb128 0x2116
 6299 01b6 19       		.uleb128 0x19
 6300 01b7 01       		.uleb128 0x1
 6301 01b8 13       		.uleb128 0x13
ARM GAS  C:\Users\EDTRIC~1\AppData\Local\Temp\ccbcYoXT.s 			page 129


 6302 01b9 00       		.byte	0
 6303 01ba 00       		.byte	0
 6304 01bb 1E       		.uleb128 0x1e
 6305 01bc 2E       		.uleb128 0x2e
 6306 01bd 01       		.byte	0x1
 6307 01be 3F       		.uleb128 0x3f
 6308 01bf 19       		.uleb128 0x19
 6309 01c0 03       		.uleb128 0x3
 6310 01c1 0E       		.uleb128 0xe
 6311 01c2 3A       		.uleb128 0x3a
 6312 01c3 0B       		.uleb128 0xb
 6313 01c4 3B       		.uleb128 0x3b
 6314 01c5 05       		.uleb128 0x5
 6315 01c6 27       		.uleb128 0x27
 6316 01c7 19       		.uleb128 0x19
 6317 01c8 49       		.uleb128 0x49
 6318 01c9 13       		.uleb128 0x13
 6319 01ca 11       		.uleb128 0x11
 6320 01cb 01       		.uleb128 0x1
 6321 01cc 12       		.uleb128 0x12
 6322 01cd 06       		.uleb128 0x6
 6323 01ce 40       		.uleb128 0x40
 6324 01cf 18       		.uleb128 0x18
 6325 01d0 9642     		.uleb128 0x2116
 6326 01d2 19       		.uleb128 0x19
 6327 01d3 01       		.uleb128 0x1
 6328 01d4 13       		.uleb128 0x13
 6329 01d5 00       		.byte	0
 6330 01d6 00       		.byte	0
 6331 01d7 1F       		.uleb128 0x1f
 6332 01d8 34       		.uleb128 0x34
 6333 01d9 00       		.byte	0
 6334 01da 03       		.uleb128 0x3
 6335 01db 0E       		.uleb128 0xe
 6336 01dc 3A       		.uleb128 0x3a
 6337 01dd 0B       		.uleb128 0xb
 6338 01de 3B       		.uleb128 0x3b
 6339 01df 0B       		.uleb128 0xb
 6340 01e0 49       		.uleb128 0x49
 6341 01e1 13       		.uleb128 0x13
 6342 01e2 1C       		.uleb128 0x1c
 6343 01e3 0B       		.uleb128 0xb
 6344 01e4 00       		.byte	0
 6345 01e5 00       		.byte	0
 6346 01e6 20       		.uleb128 0x20
 6347 01e7 34       		.uleb128 0x34
 6348 01e8 00       		.byte	0
 6349 01e9 03       		.uleb128 0x3
 6350 01ea 0E       		.uleb128 0xe
 6351 01eb 3A       		.uleb128 0x3a
 6352 01ec 0B       		.uleb128 0xb
 6353 01ed 3B       		.uleb128 0x3b
 6354 01ee 0B       		.uleb128 0xb
 6355 01ef 49       		.uleb128 0x49
 6356 01f0 13       		.uleb128 0x13
 6357 01f1 3F       		.uleb128 0x3f
 6358 01f2 19       		.uleb128 0x19
ARM GAS  C:\Users\EDTRIC~1\AppData\Local\Temp\ccbcYoXT.s 			page 130


 6359 01f3 02       		.uleb128 0x2
 6360 01f4 18       		.uleb128 0x18
 6361 01f5 00       		.byte	0
 6362 01f6 00       		.byte	0
 6363 01f7 21       		.uleb128 0x21
 6364 01f8 34       		.uleb128 0x34
 6365 01f9 00       		.byte	0
 6366 01fa 03       		.uleb128 0x3
 6367 01fb 08       		.uleb128 0x8
 6368 01fc 3A       		.uleb128 0x3a
 6369 01fd 0B       		.uleb128 0xb
 6370 01fe 3B       		.uleb128 0x3b
 6371 01ff 0B       		.uleb128 0xb
 6372 0200 49       		.uleb128 0x49
 6373 0201 13       		.uleb128 0x13
 6374 0202 3F       		.uleb128 0x3f
 6375 0203 19       		.uleb128 0x19
 6376 0204 02       		.uleb128 0x2
 6377 0205 18       		.uleb128 0x18
 6378 0206 00       		.byte	0
 6379 0207 00       		.byte	0
 6380 0208 22       		.uleb128 0x22
 6381 0209 2E       		.uleb128 0x2e
 6382 020a 00       		.byte	0
 6383 020b 3F       		.uleb128 0x3f
 6384 020c 19       		.uleb128 0x19
 6385 020d 03       		.uleb128 0x3
 6386 020e 0E       		.uleb128 0xe
 6387 020f 3A       		.uleb128 0x3a
 6388 0210 0B       		.uleb128 0xb
 6389 0211 3B       		.uleb128 0x3b
 6390 0212 05       		.uleb128 0x5
 6391 0213 27       		.uleb128 0x27
 6392 0214 19       		.uleb128 0x19
 6393 0215 3C       		.uleb128 0x3c
 6394 0216 19       		.uleb128 0x19
 6395 0217 00       		.byte	0
 6396 0218 00       		.byte	0
 6397 0219 23       		.uleb128 0x23
 6398 021a 2E       		.uleb128 0x2e
 6399 021b 01       		.byte	0x1
 6400 021c 3F       		.uleb128 0x3f
 6401 021d 19       		.uleb128 0x19
 6402 021e 03       		.uleb128 0x3
 6403 021f 0E       		.uleb128 0xe
 6404 0220 3A       		.uleb128 0x3a
 6405 0221 0B       		.uleb128 0xb
 6406 0222 3B       		.uleb128 0x3b
 6407 0223 0B       		.uleb128 0xb
 6408 0224 27       		.uleb128 0x27
 6409 0225 19       		.uleb128 0x19
 6410 0226 49       		.uleb128 0x49
 6411 0227 13       		.uleb128 0x13
 6412 0228 3C       		.uleb128 0x3c
 6413 0229 19       		.uleb128 0x19
 6414 022a 01       		.uleb128 0x1
 6415 022b 13       		.uleb128 0x13
ARM GAS  C:\Users\EDTRIC~1\AppData\Local\Temp\ccbcYoXT.s 			page 131


 6416 022c 00       		.byte	0
 6417 022d 00       		.byte	0
 6418 022e 24       		.uleb128 0x24
 6419 022f 05       		.uleb128 0x5
 6420 0230 00       		.byte	0
 6421 0231 49       		.uleb128 0x49
 6422 0232 13       		.uleb128 0x13
 6423 0233 00       		.byte	0
 6424 0234 00       		.byte	0
 6425 0235 25       		.uleb128 0x25
 6426 0236 18       		.uleb128 0x18
 6427 0237 00       		.byte	0
 6428 0238 00       		.byte	0
 6429 0239 00       		.byte	0
 6430 023a 26       		.uleb128 0x26
 6431 023b 2E       		.uleb128 0x2e
 6432 023c 01       		.byte	0x1
 6433 023d 3F       		.uleb128 0x3f
 6434 023e 19       		.uleb128 0x19
 6435 023f 03       		.uleb128 0x3
 6436 0240 0E       		.uleb128 0xe
 6437 0241 3A       		.uleb128 0x3a
 6438 0242 0B       		.uleb128 0xb
 6439 0243 3B       		.uleb128 0x3b
 6440 0244 05       		.uleb128 0x5
 6441 0245 27       		.uleb128 0x27
 6442 0246 19       		.uleb128 0x19
 6443 0247 3C       		.uleb128 0x3c
 6444 0248 19       		.uleb128 0x19
 6445 0249 01       		.uleb128 0x1
 6446 024a 13       		.uleb128 0x13
 6447 024b 00       		.byte	0
 6448 024c 00       		.byte	0
 6449 024d 27       		.uleb128 0x27
 6450 024e 2E       		.uleb128 0x2e
 6451 024f 01       		.byte	0x1
 6452 0250 3F       		.uleb128 0x3f
 6453 0251 19       		.uleb128 0x19
 6454 0252 03       		.uleb128 0x3
 6455 0253 0E       		.uleb128 0xe
 6456 0254 3A       		.uleb128 0x3a
 6457 0255 0B       		.uleb128 0xb
 6458 0256 3B       		.uleb128 0x3b
 6459 0257 0B       		.uleb128 0xb
 6460 0258 27       		.uleb128 0x27
 6461 0259 19       		.uleb128 0x19
 6462 025a 3C       		.uleb128 0x3c
 6463 025b 19       		.uleb128 0x19
 6464 025c 01       		.uleb128 0x1
 6465 025d 13       		.uleb128 0x13
 6466 025e 00       		.byte	0
 6467 025f 00       		.byte	0
 6468 0260 28       		.uleb128 0x28
 6469 0261 2E       		.uleb128 0x2e
 6470 0262 00       		.byte	0
 6471 0263 3F       		.uleb128 0x3f
 6472 0264 19       		.uleb128 0x19
ARM GAS  C:\Users\EDTRIC~1\AppData\Local\Temp\ccbcYoXT.s 			page 132


 6473 0265 03       		.uleb128 0x3
 6474 0266 0E       		.uleb128 0xe
 6475 0267 3A       		.uleb128 0x3a
 6476 0268 0B       		.uleb128 0xb
 6477 0269 3B       		.uleb128 0x3b
 6478 026a 05       		.uleb128 0x5
 6479 026b 27       		.uleb128 0x27
 6480 026c 19       		.uleb128 0x19
 6481 026d 49       		.uleb128 0x49
 6482 026e 13       		.uleb128 0x13
 6483 026f 3C       		.uleb128 0x3c
 6484 0270 19       		.uleb128 0x19
 6485 0271 00       		.byte	0
 6486 0272 00       		.byte	0
 6487 0273 29       		.uleb128 0x29
 6488 0274 2E       		.uleb128 0x2e
 6489 0275 00       		.byte	0
 6490 0276 3F       		.uleb128 0x3f
 6491 0277 19       		.uleb128 0x19
 6492 0278 03       		.uleb128 0x3
 6493 0279 0E       		.uleb128 0xe
 6494 027a 3A       		.uleb128 0x3a
 6495 027b 0B       		.uleb128 0xb
 6496 027c 3B       		.uleb128 0x3b
 6497 027d 0B       		.uleb128 0xb
 6498 027e 27       		.uleb128 0x27
 6499 027f 19       		.uleb128 0x19
 6500 0280 3C       		.uleb128 0x3c
 6501 0281 19       		.uleb128 0x19
 6502 0282 00       		.byte	0
 6503 0283 00       		.byte	0
 6504 0284 00       		.byte	0
 6505              		.section	.debug_loc,"",%progbits
 6506              	.Ldebug_loc0:
 6507              	.LLST0:
 6508 0000 00000000 		.4byte	.LVL2
 6509 0004 30000000 		.4byte	.LVL8
 6510 0008 0100     		.2byte	0x1
 6511 000a 50       		.byte	0x50
 6512 000b 30000000 		.4byte	.LVL8
 6513 000f 48000000 		.4byte	.LFE34
 6514 0013 0400     		.2byte	0x4
 6515 0015 F3       		.byte	0xf3
 6516 0016 01       		.uleb128 0x1
 6517 0017 50       		.byte	0x50
 6518 0018 9F       		.byte	0x9f
 6519 0019 00000000 		.4byte	0
 6520 001d 00000000 		.4byte	0
 6521              	.LLST1:
 6522 0021 16000000 		.4byte	.LVL3
 6523 0025 1C000000 		.4byte	.LVL4
 6524 0029 0200     		.2byte	0x2
 6525 002b 30       		.byte	0x30
 6526 002c 9F       		.byte	0x9f
 6527 002d 1C000000 		.4byte	.LVL4
 6528 0031 26000000 		.4byte	.LVL5
 6529 0035 0100     		.2byte	0x1
ARM GAS  C:\Users\EDTRIC~1\AppData\Local\Temp\ccbcYoXT.s 			page 133


 6530 0037 53       		.byte	0x53
 6531 0038 26000000 		.4byte	.LVL5
 6532 003c 28000000 		.4byte	.LVL6
 6533 0040 0300     		.2byte	0x3
 6534 0042 73       		.byte	0x73
 6535 0043 7F       		.sleb128 -1
 6536 0044 9F       		.byte	0x9f
 6537 0045 28000000 		.4byte	.LVL6
 6538 0049 2E000000 		.4byte	.LVL7
 6539 004d 0100     		.2byte	0x1
 6540 004f 53       		.byte	0x53
 6541 0050 00000000 		.4byte	0
 6542 0054 00000000 		.4byte	0
 6543              	.LLST2:
 6544 0058 00000000 		.4byte	.LVL9
 6545 005c 06000000 		.4byte	.LVL10
 6546 0060 0100     		.2byte	0x1
 6547 0062 50       		.byte	0x50
 6548 0063 06000000 		.4byte	.LVL10
 6549 0067 08000000 		.4byte	.LFE35
 6550 006b 0400     		.2byte	0x4
 6551 006d F3       		.byte	0xf3
 6552 006e 01       		.uleb128 0x1
 6553 006f 50       		.byte	0x50
 6554 0070 9F       		.byte	0x9f
 6555 0071 00000000 		.4byte	0
 6556 0075 00000000 		.4byte	0
 6557              	.LLST3:
 6558 0079 00000000 		.4byte	.LVL11
 6559 007d 08000000 		.4byte	.LVL12
 6560 0081 0100     		.2byte	0x1
 6561 0083 50       		.byte	0x50
 6562 0084 08000000 		.4byte	.LVL12
 6563 0088 38000000 		.4byte	.LFE36
 6564 008c 0400     		.2byte	0x4
 6565 008e F3       		.byte	0xf3
 6566 008f 01       		.uleb128 0x1
 6567 0090 50       		.byte	0x50
 6568 0091 9F       		.byte	0x9f
 6569 0092 00000000 		.4byte	0
 6570 0096 00000000 		.4byte	0
 6571              	.LLST4:
 6572 009a 00000000 		.4byte	.LVL18
 6573 009e 09000000 		.4byte	.LVL19-1
 6574 00a2 0100     		.2byte	0x1
 6575 00a4 50       		.byte	0x50
 6576 00a5 09000000 		.4byte	.LVL19-1
 6577 00a9 18000000 		.4byte	.LVL22
 6578 00ad 0100     		.2byte	0x1
 6579 00af 55       		.byte	0x55
 6580 00b0 18000000 		.4byte	.LVL22
 6581 00b4 1A000000 		.4byte	.LFE37
 6582 00b8 0400     		.2byte	0x4
 6583 00ba F3       		.byte	0xf3
 6584 00bb 01       		.uleb128 0x1
 6585 00bc 50       		.byte	0x50
 6586 00bd 9F       		.byte	0x9f
ARM GAS  C:\Users\EDTRIC~1\AppData\Local\Temp\ccbcYoXT.s 			page 134


 6587 00be 00000000 		.4byte	0
 6588 00c2 00000000 		.4byte	0
 6589              	.LLST5:
 6590 00c6 00000000 		.4byte	.LVL18
 6591 00ca 09000000 		.4byte	.LVL19-1
 6592 00ce 0100     		.2byte	0x1
 6593 00d0 51       		.byte	0x51
 6594 00d1 09000000 		.4byte	.LVL19-1
 6595 00d5 1A000000 		.4byte	.LFE37
 6596 00d9 0400     		.2byte	0x4
 6597 00db F3       		.byte	0xf3
 6598 00dc 01       		.uleb128 0x1
 6599 00dd 51       		.byte	0x51
 6600 00de 9F       		.byte	0x9f
 6601 00df 00000000 		.4byte	0
 6602 00e3 00000000 		.4byte	0
 6603              	.LLST6:
 6604 00e7 00000000 		.4byte	.LVL23
 6605 00eb 10000000 		.4byte	.LVL25
 6606 00ef 0100     		.2byte	0x1
 6607 00f1 50       		.byte	0x50
 6608 00f2 10000000 		.4byte	.LVL25
 6609 00f6 70000000 		.4byte	.LFE38
 6610 00fa 0400     		.2byte	0x4
 6611 00fc F3       		.byte	0xf3
 6612 00fd 01       		.uleb128 0x1
 6613 00fe 50       		.byte	0x50
 6614 00ff 9F       		.byte	0x9f
 6615 0100 00000000 		.4byte	0
 6616 0104 00000000 		.4byte	0
 6617              	.LLST7:
 6618 0108 08000000 		.4byte	.LVL24
 6619 010c 3A000000 		.4byte	.LVL31
 6620 0110 0200     		.2byte	0x2
 6621 0112 30       		.byte	0x30
 6622 0113 9F       		.byte	0x9f
 6623 0114 3A000000 		.4byte	.LVL31
 6624 0118 56000000 		.4byte	.LVL36
 6625 011c 0100     		.2byte	0x1
 6626 011e 55       		.byte	0x55
 6627 011f 56000000 		.4byte	.LVL36
 6628 0123 58000000 		.4byte	.LVL37
 6629 0127 0300     		.2byte	0x3
 6630 0129 75       		.byte	0x75
 6631 012a 7F       		.sleb128 -1
 6632 012b 9F       		.byte	0x9f
 6633 012c 58000000 		.4byte	.LVL37
 6634 0130 64000000 		.4byte	.LVL41
 6635 0134 0100     		.2byte	0x1
 6636 0136 55       		.byte	0x55
 6637 0137 00000000 		.4byte	0
 6638 013b 00000000 		.4byte	0
 6639              	.LLST8:
 6640 013f 08000000 		.4byte	.LVL24
 6641 0143 3A000000 		.4byte	.LVL31
 6642 0147 0200     		.2byte	0x2
 6643 0149 30       		.byte	0x30
ARM GAS  C:\Users\EDTRIC~1\AppData\Local\Temp\ccbcYoXT.s 			page 135


 6644 014a 9F       		.byte	0x9f
 6645 014b 3A000000 		.4byte	.LVL31
 6646 014f 46000000 		.4byte	.LVL34
 6647 0153 0100     		.2byte	0x1
 6648 0155 54       		.byte	0x54
 6649 0156 48000000 		.4byte	.LVL35
 6650 015a 64000000 		.4byte	.LVL40
 6651 015e 0100     		.2byte	0x1
 6652 0160 54       		.byte	0x54
 6653 0161 00000000 		.4byte	0
 6654 0165 00000000 		.4byte	0
 6655              	.LLST9:
 6656 0169 08000000 		.4byte	.LVL24
 6657 016d 10000000 		.4byte	.LVL25
 6658 0171 0200     		.2byte	0x2
 6659 0173 30       		.byte	0x30
 6660 0174 9F       		.byte	0x9f
 6661 0175 10000000 		.4byte	.LVL25
 6662 0179 12000000 		.4byte	.LVL26
 6663 017d 0100     		.2byte	0x1
 6664 017f 54       		.byte	0x54
 6665 0180 12000000 		.4byte	.LVL26
 6666 0184 14000000 		.4byte	.LVL27
 6667 0188 0300     		.2byte	0x3
 6668 018a 74       		.byte	0x74
 6669 018b 7F       		.sleb128 -1
 6670 018c 9F       		.byte	0x9f
 6671 018d 14000000 		.4byte	.LVL27
 6672 0191 30000000 		.4byte	.LVL30
 6673 0195 0100     		.2byte	0x1
 6674 0197 54       		.byte	0x54
 6675 0198 00000000 		.4byte	0
 6676 019c 00000000 		.4byte	0
 6677              	.LLST10:
 6678 01a0 40000000 		.4byte	.LVL33
 6679 01a4 58000000 		.4byte	.LVL37
 6680 01a8 0100     		.2byte	0x1
 6681 01aa 50       		.byte	0x50
 6682 01ab 00000000 		.4byte	0
 6683 01af 00000000 		.4byte	0
 6684              	.LLST11:
 6685 01b3 00000000 		.4byte	.LVL42
 6686 01b7 10000000 		.4byte	.LVL43
 6687 01bb 0100     		.2byte	0x1
 6688 01bd 50       		.byte	0x50
 6689 01be 10000000 		.4byte	.LVL43
 6690 01c2 2C000000 		.4byte	.LFE39
 6691 01c6 0400     		.2byte	0x4
 6692 01c8 F3       		.byte	0xf3
 6693 01c9 01       		.uleb128 0x1
 6694 01ca 50       		.byte	0x50
 6695 01cb 9F       		.byte	0x9f
 6696 01cc 00000000 		.4byte	0
 6697 01d0 00000000 		.4byte	0
 6698              	.LLST12:
 6699 01d4 00000000 		.4byte	.LVL42
 6700 01d8 16000000 		.4byte	.LVL44
ARM GAS  C:\Users\EDTRIC~1\AppData\Local\Temp\ccbcYoXT.s 			page 136


 6701 01dc 0100     		.2byte	0x1
 6702 01de 51       		.byte	0x51
 6703 01df 16000000 		.4byte	.LVL44
 6704 01e3 2C000000 		.4byte	.LFE39
 6705 01e7 0400     		.2byte	0x4
 6706 01e9 F3       		.byte	0xf3
 6707 01ea 01       		.uleb128 0x1
 6708 01eb 51       		.byte	0x51
 6709 01ec 9F       		.byte	0x9f
 6710 01ed 00000000 		.4byte	0
 6711 01f1 00000000 		.4byte	0
 6712              	.LLST13:
 6713 01f5 00000000 		.4byte	.LVL42
 6714 01f9 1C000000 		.4byte	.LVL45
 6715 01fd 0100     		.2byte	0x1
 6716 01ff 52       		.byte	0x52
 6717 0200 1C000000 		.4byte	.LVL45
 6718 0204 20000000 		.4byte	.LVL46
 6719 0208 0500     		.2byte	0x5
 6720 020a 74       		.byte	0x74
 6721 020b 00       		.sleb128 0
 6722 020c 70       		.byte	0x70
 6723 020d 00       		.sleb128 0
 6724 020e 22       		.byte	0x22
 6725 020f 20000000 		.4byte	.LVL46
 6726 0213 2C000000 		.4byte	.LFE39
 6727 0217 0400     		.2byte	0x4
 6728 0219 F3       		.byte	0xf3
 6729 021a 01       		.uleb128 0x1
 6730 021b 52       		.byte	0x52
 6731 021c 9F       		.byte	0x9f
 6732 021d 00000000 		.4byte	0
 6733 0221 00000000 		.4byte	0
 6734              	.LLST14:
 6735 0225 00000000 		.4byte	.LVL47
 6736 0229 4C000000 		.4byte	.LVL48
 6737 022d 0100     		.2byte	0x1
 6738 022f 50       		.byte	0x50
 6739 0230 4C000000 		.4byte	.LVL48
 6740 0234 51000000 		.4byte	.LVL49-1
 6741 0238 0500     		.2byte	0x5
 6742 023a 03       		.byte	0x3
 6743 023b 00000000 		.4byte	pID
 6744 023f 51000000 		.4byte	.LVL49-1
 6745 0243 EC000000 		.4byte	.LFE41
 6746 0247 0400     		.2byte	0x4
 6747 0249 F3       		.byte	0xf3
 6748 024a 01       		.uleb128 0x1
 6749 024b 50       		.byte	0x50
 6750 024c 9F       		.byte	0x9f
 6751 024d 00000000 		.4byte	0
 6752 0251 00000000 		.4byte	0
 6753              	.LLST15:
 6754 0255 00000000 		.4byte	.LVL53
 6755 0259 2C000000 		.4byte	.LVL54
 6756 025d 0100     		.2byte	0x1
 6757 025f 50       		.byte	0x50
ARM GAS  C:\Users\EDTRIC~1\AppData\Local\Temp\ccbcYoXT.s 			page 137


 6758 0260 2C000000 		.4byte	.LVL54
 6759 0264 31000000 		.4byte	.LVL55-1
 6760 0268 0500     		.2byte	0x5
 6761 026a 03       		.byte	0x3
 6762 026b 00000000 		.4byte	pID
 6763 026f 31000000 		.4byte	.LVL55-1
 6764 0273 94000000 		.4byte	.LFE42
 6765 0277 0400     		.2byte	0x4
 6766 0279 F3       		.byte	0xf3
 6767 027a 01       		.uleb128 0x1
 6768 027b 50       		.byte	0x50
 6769 027c 9F       		.byte	0x9f
 6770 027d 00000000 		.4byte	0
 6771 0281 00000000 		.4byte	0
 6772              	.LLST16:
 6773 0285 00000000 		.4byte	.LVL58
 6774 0289 2C000000 		.4byte	.LVL59
 6775 028d 0100     		.2byte	0x1
 6776 028f 50       		.byte	0x50
 6777 0290 2C000000 		.4byte	.LVL59
 6778 0294 31000000 		.4byte	.LVL60-1
 6779 0298 0500     		.2byte	0x5
 6780 029a 03       		.byte	0x3
 6781 029b 00000000 		.4byte	pID
 6782 029f 31000000 		.4byte	.LVL60-1
 6783 02a3 94000000 		.4byte	.LFE43
 6784 02a7 0400     		.2byte	0x4
 6785 02a9 F3       		.byte	0xf3
 6786 02aa 01       		.uleb128 0x1
 6787 02ab 50       		.byte	0x50
 6788 02ac 9F       		.byte	0x9f
 6789 02ad 00000000 		.4byte	0
 6790 02b1 00000000 		.4byte	0
 6791              	.LLST17:
 6792 02b5 00000000 		.4byte	.LVL63
 6793 02b9 2C000000 		.4byte	.LVL64
 6794 02bd 0100     		.2byte	0x1
 6795 02bf 50       		.byte	0x50
 6796 02c0 2C000000 		.4byte	.LVL64
 6797 02c4 31000000 		.4byte	.LVL65-1
 6798 02c8 0500     		.2byte	0x5
 6799 02ca 03       		.byte	0x3
 6800 02cb 02000000 		.4byte	data+2
 6801 02cf 31000000 		.4byte	.LVL65-1
 6802 02d3 94000000 		.4byte	.LFE44
 6803 02d7 0400     		.2byte	0x4
 6804 02d9 F3       		.byte	0xf3
 6805 02da 01       		.uleb128 0x1
 6806 02db 50       		.byte	0x50
 6807 02dc 9F       		.byte	0x9f
 6808 02dd 00000000 		.4byte	0
 6809 02e1 00000000 		.4byte	0
 6810              	.LLST18:
 6811 02e5 00000000 		.4byte	.LVL75
 6812 02e9 2A000000 		.4byte	.LVL76
 6813 02ed 0100     		.2byte	0x1
 6814 02ef 50       		.byte	0x50
ARM GAS  C:\Users\EDTRIC~1\AppData\Local\Temp\ccbcYoXT.s 			page 138


 6815 02f0 2A000000 		.4byte	.LVL76
 6816 02f4 2F000000 		.4byte	.LVL78-1
 6817 02f8 0500     		.2byte	0x5
 6818 02fa 03       		.byte	0x3
 6819 02fb 00000000 		.4byte	pID
 6820 02ff 2F000000 		.4byte	.LVL78-1
 6821 0303 90000000 		.4byte	.LFE46
 6822 0307 0400     		.2byte	0x4
 6823 0309 F3       		.byte	0xf3
 6824 030a 01       		.uleb128 0x1
 6825 030b 50       		.byte	0x50
 6826 030c 9F       		.byte	0x9f
 6827 030d 00000000 		.4byte	0
 6828 0311 00000000 		.4byte	0
 6829              	.LLST19:
 6830 0315 00000000 		.4byte	.LVL75
 6831 0319 2C000000 		.4byte	.LVL77
 6832 031d 0100     		.2byte	0x1
 6833 031f 51       		.byte	0x51
 6834 0320 2C000000 		.4byte	.LVL77
 6835 0324 2F000000 		.4byte	.LVL78-1
 6836 0328 0500     		.2byte	0x5
 6837 032a 03       		.byte	0x3
 6838 032b 02000000 		.4byte	data+2
 6839 032f 2F000000 		.4byte	.LVL78-1
 6840 0333 90000000 		.4byte	.LFE46
 6841 0337 0400     		.2byte	0x4
 6842 0339 F3       		.byte	0xf3
 6843 033a 01       		.uleb128 0x1
 6844 033b 51       		.byte	0x51
 6845 033c 9F       		.byte	0x9f
 6846 033d 00000000 		.4byte	0
 6847 0341 00000000 		.4byte	0
 6848              	.LLST20:
 6849 0345 22000000 		.4byte	.LVL81
 6850 0349 30000000 		.4byte	.LVL82
 6851 034d 0200     		.2byte	0x2
 6852 034f 31       		.byte	0x31
 6853 0350 9F       		.byte	0x9f
 6854 0351 30000000 		.4byte	.LVL82
 6855 0355 94000000 		.4byte	.LVL90
 6856 0359 0100     		.2byte	0x1
 6857 035b 55       		.byte	0x55
 6858 035c 94000000 		.4byte	.LVL90
 6859 0360 96000000 		.4byte	.LVL91
 6860 0364 0300     		.2byte	0x3
 6861 0366 75       		.byte	0x75
 6862 0367 7F       		.sleb128 -1
 6863 0368 9F       		.byte	0x9f
 6864 0369 96000000 		.4byte	.LVL91
 6865 036d 9A000000 		.4byte	.LVL92
 6866 0371 0100     		.2byte	0x1
 6867 0373 55       		.byte	0x55
 6868 0374 00000000 		.4byte	0
 6869 0378 00000000 		.4byte	0
 6870              	.LLST21:
 6871 037c 00000000 		.4byte	.LVL93
ARM GAS  C:\Users\EDTRIC~1\AppData\Local\Temp\ccbcYoXT.s 			page 139


 6872 0380 30000000 		.4byte	.LVL94
 6873 0384 0100     		.2byte	0x1
 6874 0386 50       		.byte	0x50
 6875 0387 30000000 		.4byte	.LVL94
 6876 038b 35000000 		.4byte	.LVL95-1
 6877 038f 0500     		.2byte	0x5
 6878 0391 03       		.byte	0x3
 6879 0392 00000000 		.4byte	pID
 6880 0396 35000000 		.4byte	.LVL95-1
 6881 039a 9C000000 		.4byte	.LFE48
 6882 039e 0400     		.2byte	0x4
 6883 03a0 F3       		.byte	0xf3
 6884 03a1 01       		.uleb128 0x1
 6885 03a2 50       		.byte	0x50
 6886 03a3 9F       		.byte	0x9f
 6887 03a4 00000000 		.4byte	0
 6888 03a8 00000000 		.4byte	0
 6889              	.LLST22:
 6890 03ac 00000000 		.4byte	.LVL98
 6891 03b0 0C000000 		.4byte	.LVL100
 6892 03b4 0100     		.2byte	0x1
 6893 03b6 50       		.byte	0x50
 6894 03b7 0C000000 		.4byte	.LVL100
 6895 03bb 50000000 		.4byte	.LFE49
 6896 03bf 0400     		.2byte	0x4
 6897 03c1 F3       		.byte	0xf3
 6898 03c2 01       		.uleb128 0x1
 6899 03c3 50       		.byte	0x50
 6900 03c4 9F       		.byte	0x9f
 6901 03c5 00000000 		.4byte	0
 6902 03c9 00000000 		.4byte	0
 6903              	.LLST23:
 6904 03cd 00000000 		.4byte	.LVL98
 6905 03d1 10000000 		.4byte	.LVL102
 6906 03d5 0100     		.2byte	0x1
 6907 03d7 51       		.byte	0x51
 6908 03d8 10000000 		.4byte	.LVL102
 6909 03dc 50000000 		.4byte	.LFE49
 6910 03e0 0400     		.2byte	0x4
 6911 03e2 F3       		.byte	0xf3
 6912 03e3 01       		.uleb128 0x1
 6913 03e4 51       		.byte	0x51
 6914 03e5 9F       		.byte	0x9f
 6915 03e6 00000000 		.4byte	0
 6916 03ea 00000000 		.4byte	0
 6917              	.LLST24:
 6918 03ee 00000000 		.4byte	.LVL98
 6919 03f2 20000000 		.4byte	.LVL104
 6920 03f6 0100     		.2byte	0x1
 6921 03f8 52       		.byte	0x52
 6922 03f9 20000000 		.4byte	.LVL104
 6923 03fd 26000000 		.4byte	.LVL105
 6924 0401 0400     		.2byte	0x4
 6925 0403 F3       		.byte	0xf3
 6926 0404 01       		.uleb128 0x1
 6927 0405 52       		.byte	0x52
 6928 0406 9F       		.byte	0x9f
ARM GAS  C:\Users\EDTRIC~1\AppData\Local\Temp\ccbcYoXT.s 			page 140


 6929 0407 26000000 		.4byte	.LVL105
 6930 040b 28000000 		.4byte	.LVL106
 6931 040f 0100     		.2byte	0x1
 6932 0411 52       		.byte	0x52
 6933 0412 28000000 		.4byte	.LVL106
 6934 0416 2E000000 		.4byte	.LVL107
 6935 041a 0400     		.2byte	0x4
 6936 041c F3       		.byte	0xf3
 6937 041d 01       		.uleb128 0x1
 6938 041e 52       		.byte	0x52
 6939 041f 9F       		.byte	0x9f
 6940 0420 2E000000 		.4byte	.LVL107
 6941 0424 30000000 		.4byte	.LVL108
 6942 0428 0100     		.2byte	0x1
 6943 042a 52       		.byte	0x52
 6944 042b 30000000 		.4byte	.LVL108
 6945 042f 36000000 		.4byte	.LVL109
 6946 0433 0400     		.2byte	0x4
 6947 0435 F3       		.byte	0xf3
 6948 0436 01       		.uleb128 0x1
 6949 0437 52       		.byte	0x52
 6950 0438 9F       		.byte	0x9f
 6951 0439 36000000 		.4byte	.LVL109
 6952 043d 38000000 		.4byte	.LVL110
 6953 0441 0100     		.2byte	0x1
 6954 0443 52       		.byte	0x52
 6955 0444 38000000 		.4byte	.LVL110
 6956 0448 50000000 		.4byte	.LFE49
 6957 044c 0400     		.2byte	0x4
 6958 044e F3       		.byte	0xf3
 6959 044f 01       		.uleb128 0x1
 6960 0450 52       		.byte	0x52
 6961 0451 9F       		.byte	0x9f
 6962 0452 00000000 		.4byte	0
 6963 0456 00000000 		.4byte	0
 6964              	.LLST25:
 6965 045a 0A000000 		.4byte	.LVL99
 6966 045e 4A000000 		.4byte	.LVL116
 6967 0462 0200     		.2byte	0x2
 6968 0464 30       		.byte	0x30
 6969 0465 9F       		.byte	0x9f
 6970 0466 00000000 		.4byte	0
 6971 046a 00000000 		.4byte	0
 6972              	.LLST27:
 6973 046e 0E000000 		.4byte	.LVL101
 6974 0472 49000000 		.4byte	.LVL116-1
 6975 0476 0100     		.2byte	0x1
 6976 0478 50       		.byte	0x50
 6977 0479 49000000 		.4byte	.LVL116-1
 6978 047d 4A000000 		.4byte	.LVL116
 6979 0481 0700     		.2byte	0x7
 6980 0483 F3       		.byte	0xf3
 6981 0484 01       		.uleb128 0x1
 6982 0485 51       		.byte	0x51
 6983 0486 08       		.byte	0x8
 6984 0487 FF       		.byte	0xff
 6985 0488 1A       		.byte	0x1a
ARM GAS  C:\Users\EDTRIC~1\AppData\Local\Temp\ccbcYoXT.s 			page 141


 6986 0489 9F       		.byte	0x9f
 6987 048a 00000000 		.4byte	0
 6988 048e 00000000 		.4byte	0
 6989              	.LLST28:
 6990 0492 12000000 		.4byte	.LVL103
 6991 0496 49000000 		.4byte	.LVL116-1
 6992 049a 0100     		.2byte	0x1
 6993 049c 51       		.byte	0x51
 6994 049d 49000000 		.4byte	.LVL116-1
 6995 04a1 4A000000 		.4byte	.LVL116
 6996 04a5 0800     		.2byte	0x8
 6997 04a7 F3       		.byte	0xf3
 6998 04a8 01       		.uleb128 0x1
 6999 04a9 51       		.byte	0x51
 7000 04aa 40       		.byte	0x40
 7001 04ab 24       		.byte	0x24
 7002 04ac 48       		.byte	0x48
 7003 04ad 25       		.byte	0x25
 7004 04ae 9F       		.byte	0x9f
 7005 04af 00000000 		.4byte	0
 7006 04b3 00000000 		.4byte	0
 7007              	.LLST29:
 7008 04b7 12000000 		.4byte	.LVL103
 7009 04bb 26000000 		.4byte	.LVL105
 7010 04bf 0200     		.2byte	0x2
 7011 04c1 30       		.byte	0x30
 7012 04c2 9F       		.byte	0x9f
 7013 04c3 26000000 		.4byte	.LVL105
 7014 04c7 2E000000 		.4byte	.LVL107
 7015 04cb 0200     		.2byte	0x2
 7016 04cd 31       		.byte	0x31
 7017 04ce 9F       		.byte	0x9f
 7018 04cf 2E000000 		.4byte	.LVL107
 7019 04d3 3C000000 		.4byte	.LVL111
 7020 04d7 0200     		.2byte	0x2
 7021 04d9 30       		.byte	0x30
 7022 04da 9F       		.byte	0x9f
 7023 04db 3C000000 		.4byte	.LVL111
 7024 04df 40000000 		.4byte	.LVL113
 7025 04e3 0100     		.2byte	0x1
 7026 04e5 54       		.byte	0x54
 7027 04e6 00000000 		.4byte	0
 7028 04ea 00000000 		.4byte	0
 7029              	.LLST30:
 7030 04ee 12000000 		.4byte	.LVL103
 7031 04f2 3C000000 		.4byte	.LVL111
 7032 04f6 0200     		.2byte	0x2
 7033 04f8 30       		.byte	0x30
 7034 04f9 9F       		.byte	0x9f
 7035 04fa 3C000000 		.4byte	.LVL111
 7036 04fe 3E000000 		.4byte	.LVL112
 7037 0502 0100     		.2byte	0x1
 7038 0504 55       		.byte	0x55
 7039 0505 00000000 		.4byte	0
 7040 0509 00000000 		.4byte	0
 7041              	.LLST31:
 7042 050d 12000000 		.4byte	.LVL103
ARM GAS  C:\Users\EDTRIC~1\AppData\Local\Temp\ccbcYoXT.s 			page 142


 7043 0511 2E000000 		.4byte	.LVL107
 7044 0515 0200     		.2byte	0x2
 7045 0517 30       		.byte	0x30
 7046 0518 9F       		.byte	0x9f
 7047 0519 2E000000 		.4byte	.LVL107
 7048 051d 36000000 		.4byte	.LVL109
 7049 0521 0200     		.2byte	0x2
 7050 0523 31       		.byte	0x31
 7051 0524 9F       		.byte	0x9f
 7052 0525 36000000 		.4byte	.LVL109
 7053 0529 3C000000 		.4byte	.LVL111
 7054 052d 0200     		.2byte	0x2
 7055 052f 30       		.byte	0x30
 7056 0530 9F       		.byte	0x9f
 7057 0531 3C000000 		.4byte	.LVL111
 7058 0535 42000000 		.4byte	.LVL114
 7059 0539 0100     		.2byte	0x1
 7060 053b 52       		.byte	0x52
 7061 053c 00000000 		.4byte	0
 7062 0540 00000000 		.4byte	0
 7063              	.LLST32:
 7064 0544 00000000 		.4byte	.LVL117
 7065 0548 0A000000 		.4byte	.LVL118
 7066 054c 0100     		.2byte	0x1
 7067 054e 50       		.byte	0x50
 7068 054f 0A000000 		.4byte	.LVL118
 7069 0553 58000000 		.4byte	.LFE50
 7070 0557 0400     		.2byte	0x4
 7071 0559 F3       		.byte	0xf3
 7072 055a 01       		.uleb128 0x1
 7073 055b 50       		.byte	0x50
 7074 055c 9F       		.byte	0x9f
 7075 055d 00000000 		.4byte	0
 7076 0561 00000000 		.4byte	0
 7077              	.LLST33:
 7078 0565 00000000 		.4byte	.LVL117
 7079 0569 0C000000 		.4byte	.LVL119
 7080 056d 0100     		.2byte	0x1
 7081 056f 51       		.byte	0x51
 7082 0570 0C000000 		.4byte	.LVL119
 7083 0574 0F000000 		.4byte	.LVL120-1
 7084 0578 0100     		.2byte	0x1
 7085 057a 50       		.byte	0x50
 7086 057b 0F000000 		.4byte	.LVL120-1
 7087 057f 40000000 		.4byte	.LVL127
 7088 0583 0100     		.2byte	0x1
 7089 0585 54       		.byte	0x54
 7090 0586 40000000 		.4byte	.LVL127
 7091 058a 58000000 		.4byte	.LFE50
 7092 058e 0600     		.2byte	0x6
 7093 0590 F3       		.byte	0xf3
 7094 0591 03       		.uleb128 0x3
 7095 0592 F5       		.byte	0xf5
 7096 0593 01       		.uleb128 0x1
 7097 0594 25       		.uleb128 0x25
 7098 0595 9F       		.byte	0x9f
 7099 0596 00000000 		.4byte	0
ARM GAS  C:\Users\EDTRIC~1\AppData\Local\Temp\ccbcYoXT.s 			page 143


 7100 059a 00000000 		.4byte	0
 7101              	.LLST34:
 7102 059e 00000000 		.4byte	.LVL117
 7103 05a2 0F000000 		.4byte	.LVL120-1
 7104 05a6 0100     		.2byte	0x1
 7105 05a8 52       		.byte	0x52
 7106 05a9 0F000000 		.4byte	.LVL120-1
 7107 05ad 58000000 		.4byte	.LFE50
 7108 05b1 0400     		.2byte	0x4
 7109 05b3 F3       		.byte	0xf3
 7110 05b4 01       		.uleb128 0x1
 7111 05b5 52       		.byte	0x52
 7112 05b6 9F       		.byte	0x9f
 7113 05b7 00000000 		.4byte	0
 7114 05bb 00000000 		.4byte	0
 7115              	.LLST35:
 7116 05bf 38000000 		.4byte	.LVL125
 7117 05c3 3F000000 		.4byte	.LVL126-1
 7118 05c7 0100     		.2byte	0x1
 7119 05c9 51       		.byte	0x51
 7120 05ca 00000000 		.4byte	0
 7121 05ce 00000000 		.4byte	0
 7122              	.LLST36:
 7123 05d2 00000000 		.4byte	.LVL128
 7124 05d6 06000000 		.4byte	.LVL129
 7125 05da 0100     		.2byte	0x1
 7126 05dc 50       		.byte	0x50
 7127 05dd 06000000 		.4byte	.LVL129
 7128 05e1 68000000 		.4byte	.LFE51
 7129 05e5 0400     		.2byte	0x4
 7130 05e7 F3       		.byte	0xf3
 7131 05e8 01       		.uleb128 0x1
 7132 05e9 50       		.byte	0x50
 7133 05ea 9F       		.byte	0x9f
 7134 05eb 00000000 		.4byte	0
 7135 05ef 00000000 		.4byte	0
 7136              	.LLST37:
 7137 05f3 00000000 		.4byte	.LVL128
 7138 05f7 14000000 		.4byte	.LVL131
 7139 05fb 0100     		.2byte	0x1
 7140 05fd 51       		.byte	0x51
 7141 05fe 14000000 		.4byte	.LVL131
 7142 0602 1A000000 		.4byte	.LVL132
 7143 0606 0400     		.2byte	0x4
 7144 0608 71       		.byte	0x71
 7145 0609 00       		.sleb128 0
 7146 060a 1F       		.byte	0x1f
 7147 060b 9F       		.byte	0x9f
 7148 060c 1A000000 		.4byte	.LVL132
 7149 0610 32000000 		.4byte	.LVL136
 7150 0614 0400     		.2byte	0x4
 7151 0616 75       		.byte	0x75
 7152 0617 8178     		.sleb128 -1023
 7153 0619 9F       		.byte	0x9f
 7154 061a 32000000 		.4byte	.LVL136
 7155 061e 68000000 		.4byte	.LFE51
 7156 0622 0400     		.2byte	0x4
ARM GAS  C:\Users\EDTRIC~1\AppData\Local\Temp\ccbcYoXT.s 			page 144


 7157 0624 F3       		.byte	0xf3
 7158 0625 01       		.uleb128 0x1
 7159 0626 51       		.byte	0x51
 7160 0627 9F       		.byte	0x9f
 7161 0628 00000000 		.4byte	0
 7162 062c 00000000 		.4byte	0
 7163              	.LLST38:
 7164 0630 00000000 		.4byte	.LVL128
 7165 0634 34000000 		.4byte	.LVL137
 7166 0638 0100     		.2byte	0x1
 7167 063a 52       		.byte	0x52
 7168 063b 34000000 		.4byte	.LVL137
 7169 063f 36000000 		.4byte	.LVL138
 7170 0643 0400     		.2byte	0x4
 7171 0645 F3       		.byte	0xf3
 7172 0646 01       		.uleb128 0x1
 7173 0647 52       		.byte	0x52
 7174 0648 9F       		.byte	0x9f
 7175 0649 36000000 		.4byte	.LVL138
 7176 064d 3C000000 		.4byte	.LVL139
 7177 0651 0100     		.2byte	0x1
 7178 0653 52       		.byte	0x52
 7179 0654 3C000000 		.4byte	.LVL139
 7180 0658 3E000000 		.4byte	.LVL140
 7181 065c 0400     		.2byte	0x4
 7182 065e F3       		.byte	0xf3
 7183 065f 01       		.uleb128 0x1
 7184 0660 52       		.byte	0x52
 7185 0661 9F       		.byte	0x9f
 7186 0662 3E000000 		.4byte	.LVL140
 7187 0666 44000000 		.4byte	.LVL141
 7188 066a 0100     		.2byte	0x1
 7189 066c 52       		.byte	0x52
 7190 066d 44000000 		.4byte	.LVL141
 7191 0671 46000000 		.4byte	.LVL142
 7192 0675 0400     		.2byte	0x4
 7193 0677 F3       		.byte	0xf3
 7194 0678 01       		.uleb128 0x1
 7195 0679 52       		.byte	0x52
 7196 067a 9F       		.byte	0x9f
 7197 067b 46000000 		.4byte	.LVL142
 7198 067f 4C000000 		.4byte	.LVL143
 7199 0683 0100     		.2byte	0x1
 7200 0685 52       		.byte	0x52
 7201 0686 4C000000 		.4byte	.LVL143
 7202 068a 68000000 		.4byte	.LFE51
 7203 068e 0400     		.2byte	0x4
 7204 0690 F3       		.byte	0xf3
 7205 0691 01       		.uleb128 0x1
 7206 0692 52       		.byte	0x52
 7207 0693 9F       		.byte	0x9f
 7208 0694 00000000 		.4byte	0
 7209 0698 00000000 		.4byte	0
 7210              	.LLST39:
 7211 069c 0E000000 		.4byte	.LVL130
 7212 06a0 5E000000 		.4byte	.LVL149
 7213 06a4 0200     		.2byte	0x2
ARM GAS  C:\Users\EDTRIC~1\AppData\Local\Temp\ccbcYoXT.s 			page 145


 7214 06a6 31       		.byte	0x31
 7215 06a7 9F       		.byte	0x9f
 7216 06a8 00000000 		.4byte	0
 7217 06ac 00000000 		.4byte	0
 7218              	.LLST40:
 7219 06b0 0E000000 		.4byte	.LVL130
 7220 06b4 5E000000 		.4byte	.LVL149
 7221 06b8 0200     		.2byte	0x2
 7222 06ba 30       		.byte	0x30
 7223 06bb 9F       		.byte	0x9f
 7224 06bc 00000000 		.4byte	0
 7225 06c0 00000000 		.4byte	0
 7226              	.LLST41:
 7227 06c4 14000000 		.4byte	.LVL131
 7228 06c8 20000000 		.4byte	.LVL134
 7229 06cc 0100     		.2byte	0x1
 7230 06ce 51       		.byte	0x51
 7231 06cf 00000000 		.4byte	0
 7232 06d3 00000000 		.4byte	0
 7233              	.LLST42:
 7234 06d7 1E000000 		.4byte	.LVL133
 7235 06db 5D000000 		.4byte	.LVL149-1
 7236 06df 0100     		.2byte	0x1
 7237 06e1 50       		.byte	0x50
 7238 06e2 00000000 		.4byte	0
 7239 06e6 00000000 		.4byte	0
 7240              	.LLST43:
 7241 06ea 22000000 		.4byte	.LVL135
 7242 06ee 5D000000 		.4byte	.LVL149-1
 7243 06f2 0100     		.2byte	0x1
 7244 06f4 51       		.byte	0x51
 7245 06f5 00000000 		.4byte	0
 7246 06f9 00000000 		.4byte	0
 7247              	.LLST44:
 7248 06fd 22000000 		.4byte	.LVL135
 7249 0701 36000000 		.4byte	.LVL138
 7250 0705 0200     		.2byte	0x2
 7251 0707 30       		.byte	0x30
 7252 0708 9F       		.byte	0x9f
 7253 0709 36000000 		.4byte	.LVL138
 7254 070d 3E000000 		.4byte	.LVL140
 7255 0711 0200     		.2byte	0x2
 7256 0713 31       		.byte	0x31
 7257 0714 9F       		.byte	0x9f
 7258 0715 3E000000 		.4byte	.LVL140
 7259 0719 4C000000 		.4byte	.LVL143
 7260 071d 0200     		.2byte	0x2
 7261 071f 30       		.byte	0x30
 7262 0720 9F       		.byte	0x9f
 7263 0721 4C000000 		.4byte	.LVL143
 7264 0725 52000000 		.4byte	.LVL145
 7265 0729 0100     		.2byte	0x1
 7266 072b 52       		.byte	0x52
 7267 072c 00000000 		.4byte	0
 7268 0730 00000000 		.4byte	0
 7269              	.LLST45:
 7270 0734 22000000 		.4byte	.LVL135
ARM GAS  C:\Users\EDTRIC~1\AppData\Local\Temp\ccbcYoXT.s 			page 146


 7271 0738 4C000000 		.4byte	.LVL143
 7272 073c 0200     		.2byte	0x2
 7273 073e 30       		.byte	0x30
 7274 073f 9F       		.byte	0x9f
 7275 0740 4C000000 		.4byte	.LVL143
 7276 0744 4E000000 		.4byte	.LVL144
 7277 0748 0100     		.2byte	0x1
 7278 074a 55       		.byte	0x55
 7279 074b 00000000 		.4byte	0
 7280 074f 00000000 		.4byte	0
 7281              	.LLST46:
 7282 0753 22000000 		.4byte	.LVL135
 7283 0757 3E000000 		.4byte	.LVL140
 7284 075b 0200     		.2byte	0x2
 7285 075d 30       		.byte	0x30
 7286 075e 9F       		.byte	0x9f
 7287 075f 3E000000 		.4byte	.LVL140
 7288 0763 46000000 		.4byte	.LVL142
 7289 0767 0200     		.2byte	0x2
 7290 0769 31       		.byte	0x31
 7291 076a 9F       		.byte	0x9f
 7292 076b 46000000 		.4byte	.LVL142
 7293 076f 4C000000 		.4byte	.LVL143
 7294 0773 0200     		.2byte	0x2
 7295 0775 30       		.byte	0x30
 7296 0776 9F       		.byte	0x9f
 7297 0777 4C000000 		.4byte	.LVL143
 7298 077b 56000000 		.4byte	.LVL146
 7299 077f 0100     		.2byte	0x1
 7300 0781 54       		.byte	0x54
 7301 0782 00000000 		.4byte	0
 7302 0786 00000000 		.4byte	0
 7303              	.LLST47:
 7304 078a 58000000 		.4byte	.LVL147
 7305 078e 5A000000 		.4byte	.LVL148
 7306 0792 0100     		.2byte	0x1
 7307 0794 52       		.byte	0x52
 7308 0795 00000000 		.4byte	0
 7309 0799 00000000 		.4byte	0
 7310              	.LLST48:
 7311 079d 00000000 		.4byte	.LVL150
 7312 07a1 23000000 		.4byte	.LVL151-1
 7313 07a5 0100     		.2byte	0x1
 7314 07a7 50       		.byte	0x50
 7315 07a8 23000000 		.4byte	.LVL151-1
 7316 07ac E0000000 		.4byte	.LFE52
 7317 07b0 0400     		.2byte	0x4
 7318 07b2 F3       		.byte	0xf3
 7319 07b3 01       		.uleb128 0x1
 7320 07b4 50       		.byte	0x50
 7321 07b5 9F       		.byte	0x9f
 7322 07b6 00000000 		.4byte	0
 7323 07ba 00000000 		.4byte	0
 7324              	.LLST49:
 7325 07be 7E000000 		.4byte	.LVL157
 7326 07c2 88000000 		.4byte	.LVL158
 7327 07c6 0200     		.2byte	0x2
ARM GAS  C:\Users\EDTRIC~1\AppData\Local\Temp\ccbcYoXT.s 			page 147


 7328 07c8 30       		.byte	0x30
 7329 07c9 9F       		.byte	0x9f
 7330 07ca 88000000 		.4byte	.LVL158
 7331 07ce 92000000 		.4byte	.LVL159
 7332 07d2 0100     		.2byte	0x1
 7333 07d4 53       		.byte	0x53
 7334 07d5 92000000 		.4byte	.LVL159
 7335 07d9 94000000 		.4byte	.LVL160
 7336 07dd 0300     		.2byte	0x3
 7337 07df 73       		.byte	0x73
 7338 07e0 7F       		.sleb128 -1
 7339 07e1 9F       		.byte	0x9f
 7340 07e2 94000000 		.4byte	.LVL160
 7341 07e6 9F000000 		.4byte	.LVL161-1
 7342 07ea 0100     		.2byte	0x1
 7343 07ec 53       		.byte	0x53
 7344 07ed 00000000 		.4byte	0
 7345 07f1 00000000 		.4byte	0
 7346              	.LLST50:
 7347 07f5 00000000 		.4byte	.LVL162
 7348 07f9 30000000 		.4byte	.LVL164
 7349 07fd 0100     		.2byte	0x1
 7350 07ff 50       		.byte	0x50
 7351 0800 30000000 		.4byte	.LVL164
 7352 0804 35000000 		.4byte	.LVL165-1
 7353 0808 0500     		.2byte	0x5
 7354 080a 03       		.byte	0x3
 7355 080b 00000000 		.4byte	pID
 7356 080f 35000000 		.4byte	.LVL165-1
 7357 0813 14010000 		.4byte	.LFE53
 7358 0817 0400     		.2byte	0x4
 7359 0819 F3       		.byte	0xf3
 7360 081a 01       		.uleb128 0x1
 7361 081b 50       		.byte	0x50
 7362 081c 9F       		.byte	0x9f
 7363 081d 00000000 		.4byte	0
 7364 0821 00000000 		.4byte	0
 7365              	.LLST51:
 7366 0825 0C000000 		.4byte	.LVL163
 7367 0829 DC000000 		.4byte	.LVL172
 7368 082d 0200     		.2byte	0x2
 7369 082f 30       		.byte	0x30
 7370 0830 9F       		.byte	0x9f
 7371 0831 DE000000 		.4byte	.LVL173
 7372 0835 E8000000 		.4byte	.LVL174
 7373 0839 0200     		.2byte	0x2
 7374 083b 30       		.byte	0x30
 7375 083c 9F       		.byte	0x9f
 7376 083d 00000000 		.4byte	0
 7377 0841 00000000 		.4byte	0
 7378              	.LLST52:
 7379 0845 00000000 		.4byte	.LVL175
 7380 0849 05000000 		.4byte	.LVL176-1
 7381 084d 0100     		.2byte	0x1
 7382 084f 50       		.byte	0x50
 7383 0850 05000000 		.4byte	.LVL176-1
 7384 0854 2C000000 		.4byte	.LFE54
ARM GAS  C:\Users\EDTRIC~1\AppData\Local\Temp\ccbcYoXT.s 			page 148


 7385 0858 0400     		.2byte	0x4
 7386 085a F3       		.byte	0xf3
 7387 085b 01       		.uleb128 0x1
 7388 085c 50       		.byte	0x50
 7389 085d 9F       		.byte	0x9f
 7390 085e 00000000 		.4byte	0
 7391 0862 00000000 		.4byte	0
 7392              	.LLST53:
 7393 0866 06000000 		.4byte	.LVL176
 7394 086a 0A000000 		.4byte	.LVL177
 7395 086e 0100     		.2byte	0x1
 7396 0870 50       		.byte	0x50
 7397 0871 0A000000 		.4byte	.LVL177
 7398 0875 0D000000 		.4byte	.LVL178-1
 7399 0879 0400     		.2byte	0x4
 7400 087b 70       		.byte	0x70
 7401 087c 8004     		.sleb128 512
 7402 087e 9F       		.byte	0x9f
 7403 087f 00000000 		.4byte	0
 7404 0883 00000000 		.4byte	0
 7405              	.LLST54:
 7406 0887 00000000 		.4byte	.LVL181
 7407 088b 30000000 		.4byte	.LVL183
 7408 088f 0100     		.2byte	0x1
 7409 0891 50       		.byte	0x50
 7410 0892 30000000 		.4byte	.LVL183
 7411 0896 35000000 		.4byte	.LVL184-1
 7412 089a 0500     		.2byte	0x5
 7413 089c 03       		.byte	0x3
 7414 089d 00000000 		.4byte	pID
 7415 08a1 35000000 		.4byte	.LVL184-1
 7416 08a5 10010000 		.4byte	.LFE55
 7417 08a9 0400     		.2byte	0x4
 7418 08ab F3       		.byte	0xf3
 7419 08ac 01       		.uleb128 0x1
 7420 08ad 50       		.byte	0x50
 7421 08ae 9F       		.byte	0x9f
 7422 08af 00000000 		.4byte	0
 7423 08b3 00000000 		.4byte	0
 7424              	.LLST55:
 7425 08b7 0C000000 		.4byte	.LVL182
 7426 08bb D8000000 		.4byte	.LVL191
 7427 08bf 0200     		.2byte	0x2
 7428 08c1 30       		.byte	0x30
 7429 08c2 9F       		.byte	0x9f
 7430 08c3 DA000000 		.4byte	.LVL192
 7431 08c7 E4000000 		.4byte	.LVL193
 7432 08cb 0200     		.2byte	0x2
 7433 08cd 30       		.byte	0x30
 7434 08ce 9F       		.byte	0x9f
 7435 08cf 00000000 		.4byte	0
 7436 08d3 00000000 		.4byte	0
 7437              	.LLST56:
 7438 08d7 00000000 		.4byte	.LVL194
 7439 08db 44000000 		.4byte	.LVL195
 7440 08df 0100     		.2byte	0x1
 7441 08e1 50       		.byte	0x50
ARM GAS  C:\Users\EDTRIC~1\AppData\Local\Temp\ccbcYoXT.s 			page 149


 7442 08e2 44000000 		.4byte	.LVL195
 7443 08e6 49000000 		.4byte	.LVL196-1
 7444 08ea 0500     		.2byte	0x5
 7445 08ec 03       		.byte	0x3
 7446 08ed 00000000 		.4byte	pID
 7447 08f1 49000000 		.4byte	.LVL196-1
 7448 08f5 64000000 		.4byte	.LFE56
 7449 08f9 0400     		.2byte	0x4
 7450 08fb F3       		.byte	0xf3
 7451 08fc 01       		.uleb128 0x1
 7452 08fd 50       		.byte	0x50
 7453 08fe 9F       		.byte	0x9f
 7454 08ff 00000000 		.4byte	0
 7455 0903 00000000 		.4byte	0
 7456              	.LLST57:
 7457 0907 00000000 		.4byte	.LVL197
 7458 090b 2A000000 		.4byte	.LVL198
 7459 090f 0100     		.2byte	0x1
 7460 0911 50       		.byte	0x50
 7461 0912 2A000000 		.4byte	.LVL198
 7462 0916 2F000000 		.4byte	.LVL200-1
 7463 091a 0500     		.2byte	0x5
 7464 091c 03       		.byte	0x3
 7465 091d 00000000 		.4byte	pID
 7466 0921 2F000000 		.4byte	.LVL200-1
 7467 0925 90000000 		.4byte	.LFE57
 7468 0929 0400     		.2byte	0x4
 7469 092b F3       		.byte	0xf3
 7470 092c 01       		.uleb128 0x1
 7471 092d 50       		.byte	0x50
 7472 092e 9F       		.byte	0x9f
 7473 092f 00000000 		.4byte	0
 7474 0933 00000000 		.4byte	0
 7475              	.LLST58:
 7476 0937 00000000 		.4byte	.LVL197
 7477 093b 2C000000 		.4byte	.LVL199
 7478 093f 0100     		.2byte	0x1
 7479 0941 51       		.byte	0x51
 7480 0942 2C000000 		.4byte	.LVL199
 7481 0946 2F000000 		.4byte	.LVL200-1
 7482 094a 0500     		.2byte	0x5
 7483 094c 03       		.byte	0x3
 7484 094d 02000000 		.4byte	data+2
 7485 0951 2F000000 		.4byte	.LVL200-1
 7486 0955 90000000 		.4byte	.LFE57
 7487 0959 0400     		.2byte	0x4
 7488 095b F3       		.byte	0xf3
 7489 095c 01       		.uleb128 0x1
 7490 095d 51       		.byte	0x51
 7491 095e 9F       		.byte	0x9f
 7492 095f 00000000 		.4byte	0
 7493 0963 00000000 		.4byte	0
 7494              	.LLST59:
 7495 0967 00000000 		.4byte	.LVL203
 7496 096b 16000000 		.4byte	.LVL204
 7497 096f 0100     		.2byte	0x1
 7498 0971 50       		.byte	0x50
ARM GAS  C:\Users\EDTRIC~1\AppData\Local\Temp\ccbcYoXT.s 			page 150


 7499 0972 16000000 		.4byte	.LVL204
 7500 0976 2C010000 		.4byte	.LFE58
 7501 097a 0400     		.2byte	0x4
 7502 097c F3       		.byte	0xf3
 7503 097d 01       		.uleb128 0x1
 7504 097e 50       		.byte	0x50
 7505 097f 9F       		.byte	0x9f
 7506 0980 00000000 		.4byte	0
 7507 0984 00000000 		.4byte	0
 7508              	.LLST60:
 7509 0988 00000000 		.4byte	.LVL203
 7510 098c 34000000 		.4byte	.LVL208
 7511 0990 0100     		.2byte	0x1
 7512 0992 51       		.byte	0x51
 7513 0993 34000000 		.4byte	.LVL208
 7514 0997 38000000 		.4byte	.LVL209
 7515 099b 0400     		.2byte	0x4
 7516 099d F3       		.byte	0xf3
 7517 099e 01       		.uleb128 0x1
 7518 099f 51       		.byte	0x51
 7519 09a0 9F       		.byte	0x9f
 7520 09a1 38000000 		.4byte	.LVL209
 7521 09a5 3C000000 		.4byte	.LVL211
 7522 09a9 0100     		.2byte	0x1
 7523 09ab 51       		.byte	0x51
 7524 09ac 3C000000 		.4byte	.LVL211
 7525 09b0 40000000 		.4byte	.LVL212
 7526 09b4 0400     		.2byte	0x4
 7527 09b6 F3       		.byte	0xf3
 7528 09b7 01       		.uleb128 0x1
 7529 09b8 51       		.byte	0x51
 7530 09b9 9F       		.byte	0x9f
 7531 09ba 40000000 		.4byte	.LVL212
 7532 09be 44000000 		.4byte	.LVL214
 7533 09c2 0100     		.2byte	0x1
 7534 09c4 51       		.byte	0x51
 7535 09c5 44000000 		.4byte	.LVL214
 7536 09c9 48000000 		.4byte	.LVL215
 7537 09cd 0400     		.2byte	0x4
 7538 09cf F3       		.byte	0xf3
 7539 09d0 01       		.uleb128 0x1
 7540 09d1 51       		.byte	0x51
 7541 09d2 9F       		.byte	0x9f
 7542 09d3 48000000 		.4byte	.LVL215
 7543 09d7 4C000000 		.4byte	.LVL217
 7544 09db 0100     		.2byte	0x1
 7545 09dd 51       		.byte	0x51
 7546 09de 4C000000 		.4byte	.LVL217
 7547 09e2 2C010000 		.4byte	.LFE58
 7548 09e6 0400     		.2byte	0x4
 7549 09e8 F3       		.byte	0xf3
 7550 09e9 01       		.uleb128 0x1
 7551 09ea 51       		.byte	0x51
 7552 09eb 9F       		.byte	0x9f
 7553 09ec 00000000 		.4byte	0
 7554 09f0 00000000 		.4byte	0
 7555              	.LLST61:
ARM GAS  C:\Users\EDTRIC~1\AppData\Local\Temp\ccbcYoXT.s 			page 151


 7556 09f4 00000000 		.4byte	.LVL203
 7557 09f8 5D000000 		.4byte	.LVL222-1
 7558 09fc 0100     		.2byte	0x1
 7559 09fe 52       		.byte	0x52
 7560 09ff 5D000000 		.4byte	.LVL222-1
 7561 0a03 2C010000 		.4byte	.LFE58
 7562 0a07 0400     		.2byte	0x4
 7563 0a09 F3       		.byte	0xf3
 7564 0a0a 01       		.uleb128 0x1
 7565 0a0b 52       		.byte	0x52
 7566 0a0c 9F       		.byte	0x9f
 7567 0a0d 00000000 		.4byte	0
 7568 0a11 00000000 		.4byte	0
 7569              	.LLST62:
 7570 0a15 00000000 		.4byte	.LVL203
 7571 0a19 32000000 		.4byte	.LVL207
 7572 0a1d 0100     		.2byte	0x1
 7573 0a1f 53       		.byte	0x53
 7574 0a20 32000000 		.4byte	.LVL207
 7575 0a24 38000000 		.4byte	.LVL209
 7576 0a28 0400     		.2byte	0x4
 7577 0a2a F3       		.byte	0xf3
 7578 0a2b 01       		.uleb128 0x1
 7579 0a2c 53       		.byte	0x53
 7580 0a2d 9F       		.byte	0x9f
 7581 0a2e 38000000 		.4byte	.LVL209
 7582 0a32 3A000000 		.4byte	.LVL210
 7583 0a36 0100     		.2byte	0x1
 7584 0a38 53       		.byte	0x53
 7585 0a39 3A000000 		.4byte	.LVL210
 7586 0a3d 40000000 		.4byte	.LVL212
 7587 0a41 0400     		.2byte	0x4
 7588 0a43 F3       		.byte	0xf3
 7589 0a44 01       		.uleb128 0x1
 7590 0a45 53       		.byte	0x53
 7591 0a46 9F       		.byte	0x9f
 7592 0a47 40000000 		.4byte	.LVL212
 7593 0a4b 42000000 		.4byte	.LVL213
 7594 0a4f 0100     		.2byte	0x1
 7595 0a51 53       		.byte	0x53
 7596 0a52 42000000 		.4byte	.LVL213
 7597 0a56 48000000 		.4byte	.LVL215
 7598 0a5a 0400     		.2byte	0x4
 7599 0a5c F3       		.byte	0xf3
 7600 0a5d 01       		.uleb128 0x1
 7601 0a5e 53       		.byte	0x53
 7602 0a5f 9F       		.byte	0x9f
 7603 0a60 48000000 		.4byte	.LVL215
 7604 0a64 4A000000 		.4byte	.LVL216
 7605 0a68 0100     		.2byte	0x1
 7606 0a6a 53       		.byte	0x53
 7607 0a6b 4A000000 		.4byte	.LVL216
 7608 0a6f 2C010000 		.4byte	.LFE58
 7609 0a73 0400     		.2byte	0x4
 7610 0a75 F3       		.byte	0xf3
 7611 0a76 01       		.uleb128 0x1
 7612 0a77 53       		.byte	0x53
ARM GAS  C:\Users\EDTRIC~1\AppData\Local\Temp\ccbcYoXT.s 			page 152


 7613 0a78 9F       		.byte	0x9f
 7614 0a79 00000000 		.4byte	0
 7615 0a7d 00000000 		.4byte	0
 7616              	.LLST63:
 7617 0a81 20000000 		.4byte	.LVL205
 7618 0a85 88000000 		.4byte	.LVL226
 7619 0a89 0100     		.2byte	0x1
 7620 0a8b 57       		.byte	0x57
 7621 0a8c 88000000 		.4byte	.LVL226
 7622 0a90 EC000000 		.4byte	.LVL231
 7623 0a94 0100     		.2byte	0x1
 7624 0a96 58       		.byte	0x58
 7625 0a97 00000000 		.4byte	0
 7626 0a9b 00000000 		.4byte	0
 7627              	.LLST64:
 7628 0a9f 24000000 		.4byte	.LVL206
 7629 0aa3 94000000 		.4byte	.LVL227
 7630 0aa7 0100     		.2byte	0x1
 7631 0aa9 56       		.byte	0x56
 7632 0aaa 94000000 		.4byte	.LVL227
 7633 0aae EC000000 		.4byte	.LVL231
 7634 0ab2 0800     		.2byte	0x8
 7635 0ab4 F3       		.byte	0xf3
 7636 0ab5 01       		.uleb128 0x1
 7637 0ab6 51       		.byte	0x51
 7638 0ab7 40       		.byte	0x40
 7639 0ab8 24       		.byte	0x24
 7640 0ab9 48       		.byte	0x48
 7641 0aba 25       		.byte	0x25
 7642 0abb 9F       		.byte	0x9f
 7643 0abc 00000000 		.4byte	0
 7644 0ac0 00000000 		.4byte	0
 7645              	.LLST65:
 7646 0ac4 24000000 		.4byte	.LVL206
 7647 0ac8 38000000 		.4byte	.LVL209
 7648 0acc 0200     		.2byte	0x2
 7649 0ace 30       		.byte	0x30
 7650 0acf 9F       		.byte	0x9f
 7651 0ad0 38000000 		.4byte	.LVL209
 7652 0ad4 40000000 		.4byte	.LVL212
 7653 0ad8 0200     		.2byte	0x2
 7654 0ada 31       		.byte	0x31
 7655 0adb 9F       		.byte	0x9f
 7656 0adc 40000000 		.4byte	.LVL212
 7657 0ae0 4E000000 		.4byte	.LVL218
 7658 0ae4 0200     		.2byte	0x2
 7659 0ae6 30       		.byte	0x30
 7660 0ae7 9F       		.byte	0x9f
 7661 0ae8 4E000000 		.4byte	.LVL218
 7662 0aec 50000000 		.4byte	.LVL219
 7663 0af0 0100     		.2byte	0x1
 7664 0af2 55       		.byte	0x55
 7665 0af3 00000000 		.4byte	0
 7666 0af7 00000000 		.4byte	0
 7667              	.LLST66:
 7668 0afb 24000000 		.4byte	.LVL206
 7669 0aff 4E000000 		.4byte	.LVL218
ARM GAS  C:\Users\EDTRIC~1\AppData\Local\Temp\ccbcYoXT.s 			page 153


 7670 0b03 0200     		.2byte	0x2
 7671 0b05 30       		.byte	0x30
 7672 0b06 9F       		.byte	0x9f
 7673 0b07 4E000000 		.4byte	.LVL218
 7674 0b0b 5D000000 		.4byte	.LVL222-1
 7675 0b0f 0100     		.2byte	0x1
 7676 0b11 51       		.byte	0x51
 7677 0b12 00000000 		.4byte	0
 7678 0b16 00000000 		.4byte	0
 7679              	.LLST67:
 7680 0b1a 24000000 		.4byte	.LVL206
 7681 0b1e 40000000 		.4byte	.LVL212
 7682 0b22 0200     		.2byte	0x2
 7683 0b24 30       		.byte	0x30
 7684 0b25 9F       		.byte	0x9f
 7685 0b26 40000000 		.4byte	.LVL212
 7686 0b2a 48000000 		.4byte	.LVL215
 7687 0b2e 0200     		.2byte	0x2
 7688 0b30 31       		.byte	0x31
 7689 0b31 9F       		.byte	0x9f
 7690 0b32 48000000 		.4byte	.LVL215
 7691 0b36 4E000000 		.4byte	.LVL218
 7692 0b3a 0200     		.2byte	0x2
 7693 0b3c 30       		.byte	0x30
 7694 0b3d 9F       		.byte	0x9f
 7695 0b3e 4E000000 		.4byte	.LVL218
 7696 0b42 54000000 		.4byte	.LVL220
 7697 0b46 0100     		.2byte	0x1
 7698 0b48 53       		.byte	0x53
 7699 0b49 00000000 		.4byte	0
 7700 0b4d 00000000 		.4byte	0
 7701              	.LLST68:
 7702 0b51 58000000 		.4byte	.LVL221
 7703 0b55 A8000000 		.4byte	.LVL229
 7704 0b59 0100     		.2byte	0x1
 7705 0b5b 55       		.byte	0x55
 7706 0b5c 00000000 		.4byte	0
 7707 0b60 00000000 		.4byte	0
 7708              	.LLST69:
 7709 0b64 00000000 		.4byte	.LVL232
 7710 0b68 10000000 		.4byte	.LVL233
 7711 0b6c 0100     		.2byte	0x1
 7712 0b6e 50       		.byte	0x50
 7713 0b6f 10000000 		.4byte	.LVL233
 7714 0b73 60000000 		.4byte	.LFE59
 7715 0b77 0400     		.2byte	0x4
 7716 0b79 F3       		.byte	0xf3
 7717 0b7a 01       		.uleb128 0x1
 7718 0b7b 50       		.byte	0x50
 7719 0b7c 9F       		.byte	0x9f
 7720 0b7d 00000000 		.4byte	0
 7721 0b81 00000000 		.4byte	0
 7722              	.LLST70:
 7723 0b85 00000000 		.4byte	.LVL232
 7724 0b89 12000000 		.4byte	.LVL234
 7725 0b8d 0100     		.2byte	0x1
 7726 0b8f 51       		.byte	0x51
ARM GAS  C:\Users\EDTRIC~1\AppData\Local\Temp\ccbcYoXT.s 			page 154


 7727 0b90 12000000 		.4byte	.LVL234
 7728 0b94 15000000 		.4byte	.LVL235-1
 7729 0b98 0100     		.2byte	0x1
 7730 0b9a 50       		.byte	0x50
 7731 0b9b 15000000 		.4byte	.LVL235-1
 7732 0b9f 48000000 		.4byte	.LVL242
 7733 0ba3 0100     		.2byte	0x1
 7734 0ba5 54       		.byte	0x54
 7735 0ba6 48000000 		.4byte	.LVL242
 7736 0baa 60000000 		.4byte	.LFE59
 7737 0bae 0600     		.2byte	0x6
 7738 0bb0 F3       		.byte	0xf3
 7739 0bb1 03       		.uleb128 0x3
 7740 0bb2 F5       		.byte	0xf5
 7741 0bb3 01       		.uleb128 0x1
 7742 0bb4 25       		.uleb128 0x25
 7743 0bb5 9F       		.byte	0x9f
 7744 0bb6 00000000 		.4byte	0
 7745 0bba 00000000 		.4byte	0
 7746              	.LLST71:
 7747 0bbe 00000000 		.4byte	.LVL232
 7748 0bc2 15000000 		.4byte	.LVL235-1
 7749 0bc6 0100     		.2byte	0x1
 7750 0bc8 52       		.byte	0x52
 7751 0bc9 15000000 		.4byte	.LVL235-1
 7752 0bcd 48000000 		.4byte	.LVL243
 7753 0bd1 0100     		.2byte	0x1
 7754 0bd3 57       		.byte	0x57
 7755 0bd4 48000000 		.4byte	.LVL243
 7756 0bd8 60000000 		.4byte	.LFE59
 7757 0bdc 0400     		.2byte	0x4
 7758 0bde F3       		.byte	0xf3
 7759 0bdf 01       		.uleb128 0x1
 7760 0be0 52       		.byte	0x52
 7761 0be1 9F       		.byte	0x9f
 7762 0be2 00000000 		.4byte	0
 7763 0be6 00000000 		.4byte	0
 7764              	.LLST72:
 7765 0bea 00000000 		.4byte	.LVL232
 7766 0bee 15000000 		.4byte	.LVL235-1
 7767 0bf2 0100     		.2byte	0x1
 7768 0bf4 53       		.byte	0x53
 7769 0bf5 15000000 		.4byte	.LVL235-1
 7770 0bf9 60000000 		.4byte	.LFE59
 7771 0bfd 0400     		.2byte	0x4
 7772 0bff F3       		.byte	0xf3
 7773 0c00 01       		.uleb128 0x1
 7774 0c01 53       		.byte	0x53
 7775 0c02 9F       		.byte	0x9f
 7776 0c03 00000000 		.4byte	0
 7777 0c07 00000000 		.4byte	0
 7778              	.LLST73:
 7779 0c0b 3E000000 		.4byte	.LVL240
 7780 0c0f 47000000 		.4byte	.LVL241-1
 7781 0c13 0100     		.2byte	0x1
 7782 0c15 51       		.byte	0x51
 7783 0c16 00000000 		.4byte	0
ARM GAS  C:\Users\EDTRIC~1\AppData\Local\Temp\ccbcYoXT.s 			page 155


 7784 0c1a 00000000 		.4byte	0
 7785              	.LLST74:
 7786 0c1e 00000000 		.4byte	.LVL258
 7787 0c22 10000000 		.4byte	.LVL259
 7788 0c26 0100     		.2byte	0x1
 7789 0c28 50       		.byte	0x50
 7790 0c29 10000000 		.4byte	.LVL259
 7791 0c2d 48010000 		.4byte	.LFE60
 7792 0c31 0400     		.2byte	0x4
 7793 0c33 F3       		.byte	0xf3
 7794 0c34 01       		.uleb128 0x1
 7795 0c35 50       		.byte	0x50
 7796 0c36 9F       		.byte	0x9f
 7797 0c37 00000000 		.4byte	0
 7798 0c3b 00000000 		.4byte	0
 7799              	.LLST75:
 7800 0c3f 00000000 		.4byte	.LVL258
 7801 0c43 24000000 		.4byte	.LVL260
 7802 0c47 0100     		.2byte	0x1
 7803 0c49 51       		.byte	0x51
 7804 0c4a 24000000 		.4byte	.LVL260
 7805 0c4e 2A000000 		.4byte	.LVL261
 7806 0c52 0400     		.2byte	0x4
 7807 0c54 71       		.byte	0x71
 7808 0c55 00       		.sleb128 0
 7809 0c56 1F       		.byte	0x1f
 7810 0c57 9F       		.byte	0x9f
 7811 0c58 2A000000 		.4byte	.LVL261
 7812 0c5c 48010000 		.4byte	.LFE60
 7813 0c60 0400     		.2byte	0x4
 7814 0c62 F3       		.byte	0xf3
 7815 0c63 01       		.uleb128 0x1
 7816 0c64 51       		.byte	0x51
 7817 0c65 9F       		.byte	0x9f
 7818 0c66 00000000 		.4byte	0
 7819 0c6a 00000000 		.4byte	0
 7820              	.LLST76:
 7821 0c6e 00000000 		.4byte	.LVL258
 7822 0c72 6F000000 		.4byte	.LVL279-1
 7823 0c76 0100     		.2byte	0x1
 7824 0c78 52       		.byte	0x52
 7825 0c79 6F000000 		.4byte	.LVL279-1
 7826 0c7d 48010000 		.4byte	.LFE60
 7827 0c81 0400     		.2byte	0x4
 7828 0c83 F3       		.byte	0xf3
 7829 0c84 01       		.uleb128 0x1
 7830 0c85 52       		.byte	0x52
 7831 0c86 9F       		.byte	0x9f
 7832 0c87 00000000 		.4byte	0
 7833 0c8b 00000000 		.4byte	0
 7834              	.LLST77:
 7835 0c8f 00000000 		.4byte	.LVL258
 7836 0c93 42000000 		.4byte	.LVL264
 7837 0c97 0100     		.2byte	0x1
 7838 0c99 53       		.byte	0x53
 7839 0c9a 42000000 		.4byte	.LVL264
 7840 0c9e 48000000 		.4byte	.LVL266
ARM GAS  C:\Users\EDTRIC~1\AppData\Local\Temp\ccbcYoXT.s 			page 156


 7841 0ca2 0400     		.2byte	0x4
 7842 0ca4 F3       		.byte	0xf3
 7843 0ca5 01       		.uleb128 0x1
 7844 0ca6 53       		.byte	0x53
 7845 0ca7 9F       		.byte	0x9f
 7846 0ca8 48000000 		.4byte	.LVL266
 7847 0cac 4A000000 		.4byte	.LVL267
 7848 0cb0 0100     		.2byte	0x1
 7849 0cb2 53       		.byte	0x53
 7850 0cb3 4A000000 		.4byte	.LVL267
 7851 0cb7 50000000 		.4byte	.LVL269
 7852 0cbb 0400     		.2byte	0x4
 7853 0cbd F3       		.byte	0xf3
 7854 0cbe 01       		.uleb128 0x1
 7855 0cbf 53       		.byte	0x53
 7856 0cc0 9F       		.byte	0x9f
 7857 0cc1 50000000 		.4byte	.LVL269
 7858 0cc5 52000000 		.4byte	.LVL270
 7859 0cc9 0100     		.2byte	0x1
 7860 0ccb 53       		.byte	0x53
 7861 0ccc 52000000 		.4byte	.LVL270
 7862 0cd0 58000000 		.4byte	.LVL272
 7863 0cd4 0400     		.2byte	0x4
 7864 0cd6 F3       		.byte	0xf3
 7865 0cd7 01       		.uleb128 0x1
 7866 0cd8 53       		.byte	0x53
 7867 0cd9 9F       		.byte	0x9f
 7868 0cda 58000000 		.4byte	.LVL272
 7869 0cde 5A000000 		.4byte	.LVL273
 7870 0ce2 0100     		.2byte	0x1
 7871 0ce4 53       		.byte	0x53
 7872 0ce5 5A000000 		.4byte	.LVL273
 7873 0ce9 48010000 		.4byte	.LFE60
 7874 0ced 0400     		.2byte	0x4
 7875 0cef F3       		.byte	0xf3
 7876 0cf0 01       		.uleb128 0x1
 7877 0cf1 53       		.byte	0x53
 7878 0cf2 9F       		.byte	0x9f
 7879 0cf3 00000000 		.4byte	0
 7880 0cf7 00000000 		.4byte	0
 7881              	.LLST78:
 7882 0cfb 24000000 		.4byte	.LVL260
 7883 0cff 46000000 		.4byte	.LVL265
 7884 0d03 0100     		.2byte	0x1
 7885 0d05 51       		.byte	0x51
 7886 0d06 48000000 		.4byte	.LVL266
 7887 0d0a 4E000000 		.4byte	.LVL268
 7888 0d0e 0100     		.2byte	0x1
 7889 0d10 51       		.byte	0x51
 7890 0d11 50000000 		.4byte	.LVL269
 7891 0d15 56000000 		.4byte	.LVL271
 7892 0d19 0100     		.2byte	0x1
 7893 0d1b 51       		.byte	0x51
 7894 0d1c 58000000 		.4byte	.LVL272
 7895 0d20 5E000000 		.4byte	.LVL274
 7896 0d24 0100     		.2byte	0x1
 7897 0d26 51       		.byte	0x51
ARM GAS  C:\Users\EDTRIC~1\AppData\Local\Temp\ccbcYoXT.s 			page 157


 7898 0d27 00000000 		.4byte	0
 7899 0d2b 00000000 		.4byte	0
 7900              	.LLST79:
 7901 0d2f 30000000 		.4byte	.LVL262
 7902 0d33 9A000000 		.4byte	.LVL283
 7903 0d37 0100     		.2byte	0x1
 7904 0d39 57       		.byte	0x57
 7905 0d3a 9A000000 		.4byte	.LVL283
 7906 0d3e FE000000 		.4byte	.LVL288
 7907 0d42 0100     		.2byte	0x1
 7908 0d44 58       		.byte	0x58
 7909 0d45 00000000 		.4byte	0
 7910 0d49 00000000 		.4byte	0
 7911              	.LLST80:
 7912 0d4d 34000000 		.4byte	.LVL263
 7913 0d51 A6000000 		.4byte	.LVL284
 7914 0d55 0100     		.2byte	0x1
 7915 0d57 56       		.byte	0x56
 7916 0d58 00000000 		.4byte	0
 7917 0d5c 00000000 		.4byte	0
 7918              	.LLST81:
 7919 0d60 34000000 		.4byte	.LVL263
 7920 0d64 48000000 		.4byte	.LVL266
 7921 0d68 0200     		.2byte	0x2
 7922 0d6a 30       		.byte	0x30
 7923 0d6b 9F       		.byte	0x9f
 7924 0d6c 48000000 		.4byte	.LVL266
 7925 0d70 50000000 		.4byte	.LVL269
 7926 0d74 0200     		.2byte	0x2
 7927 0d76 31       		.byte	0x31
 7928 0d77 9F       		.byte	0x9f
 7929 0d78 50000000 		.4byte	.LVL269
 7930 0d7c 5E000000 		.4byte	.LVL274
 7931 0d80 0200     		.2byte	0x2
 7932 0d82 30       		.byte	0x30
 7933 0d83 9F       		.byte	0x9f
 7934 0d84 5E000000 		.4byte	.LVL274
 7935 0d88 64000000 		.4byte	.LVL276
 7936 0d8c 0100     		.2byte	0x1
 7937 0d8e 51       		.byte	0x51
 7938 0d8f 00000000 		.4byte	0
 7939 0d93 00000000 		.4byte	0
 7940              	.LLST82:
 7941 0d97 34000000 		.4byte	.LVL263
 7942 0d9b 5E000000 		.4byte	.LVL274
 7943 0d9f 0200     		.2byte	0x2
 7944 0da1 30       		.byte	0x30
 7945 0da2 9F       		.byte	0x9f
 7946 0da3 5E000000 		.4byte	.LVL274
 7947 0da7 60000000 		.4byte	.LVL275
 7948 0dab 0100     		.2byte	0x1
 7949 0dad 55       		.byte	0x55
 7950 0dae 00000000 		.4byte	0
 7951 0db2 00000000 		.4byte	0
 7952              	.LLST83:
 7953 0db6 34000000 		.4byte	.LVL263
 7954 0dba 50000000 		.4byte	.LVL269
ARM GAS  C:\Users\EDTRIC~1\AppData\Local\Temp\ccbcYoXT.s 			page 158


 7955 0dbe 0200     		.2byte	0x2
 7956 0dc0 30       		.byte	0x30
 7957 0dc1 9F       		.byte	0x9f
 7958 0dc2 50000000 		.4byte	.LVL269
 7959 0dc6 58000000 		.4byte	.LVL272
 7960 0dca 0200     		.2byte	0x2
 7961 0dcc 31       		.byte	0x31
 7962 0dcd 9F       		.byte	0x9f
 7963 0dce 58000000 		.4byte	.LVL272
 7964 0dd2 5E000000 		.4byte	.LVL274
 7965 0dd6 0200     		.2byte	0x2
 7966 0dd8 30       		.byte	0x30
 7967 0dd9 9F       		.byte	0x9f
 7968 0dda 5E000000 		.4byte	.LVL274
 7969 0dde 68000000 		.4byte	.LVL277
 7970 0de2 0100     		.2byte	0x1
 7971 0de4 53       		.byte	0x53
 7972 0de5 00000000 		.4byte	0
 7973 0de9 00000000 		.4byte	0
 7974              	.LLST84:
 7975 0ded 6A000000 		.4byte	.LVL278
 7976 0df1 BA000000 		.4byte	.LVL286
 7977 0df5 0100     		.2byte	0x1
 7978 0df7 55       		.byte	0x55
 7979 0df8 00000000 		.4byte	0
 7980 0dfc 00000000 		.4byte	0
 7981              	.LLST85:
 7982 0e00 00000000 		.4byte	.LVL289
 7983 0e04 2A000000 		.4byte	.LVL292
 7984 0e08 0100     		.2byte	0x1
 7985 0e0a 50       		.byte	0x50
 7986 0e0b 2A000000 		.4byte	.LVL292
 7987 0e0f 2F000000 		.4byte	.LVL293-1
 7988 0e13 0500     		.2byte	0x5
 7989 0e15 03       		.byte	0x3
 7990 0e16 00000000 		.4byte	pID
 7991 0e1a 2F000000 		.4byte	.LVL293-1
 7992 0e1e 94000000 		.4byte	.LFE61
 7993 0e22 0400     		.2byte	0x4
 7994 0e24 F3       		.byte	0xf3
 7995 0e25 01       		.uleb128 0x1
 7996 0e26 50       		.byte	0x50
 7997 0e27 9F       		.byte	0x9f
 7998 0e28 00000000 		.4byte	0
 7999 0e2c 00000000 		.4byte	0
 8000              	.LLST86:
 8001 0e30 00000000 		.4byte	.LVL289
 8002 0e34 20000000 		.4byte	.LVL290
 8003 0e38 0100     		.2byte	0x1
 8004 0e3a 51       		.byte	0x51
 8005 0e3b 20000000 		.4byte	.LVL290
 8006 0e3f 2F000000 		.4byte	.LVL293-1
 8007 0e43 0500     		.2byte	0x5
 8008 0e45 03       		.byte	0x3
 8009 0e46 00000000 		.4byte	data
 8010 0e4a 2F000000 		.4byte	.LVL293-1
 8011 0e4e 94000000 		.4byte	.LFE61
ARM GAS  C:\Users\EDTRIC~1\AppData\Local\Temp\ccbcYoXT.s 			page 159


 8012 0e52 0400     		.2byte	0x4
 8013 0e54 F3       		.byte	0xf3
 8014 0e55 01       		.uleb128 0x1
 8015 0e56 51       		.byte	0x51
 8016 0e57 9F       		.byte	0x9f
 8017 0e58 00000000 		.4byte	0
 8018 0e5c 00000000 		.4byte	0
 8019              	.LLST87:
 8020 0e60 00000000 		.4byte	.LVL289
 8021 0e64 26000000 		.4byte	.LVL291
 8022 0e68 0100     		.2byte	0x1
 8023 0e6a 52       		.byte	0x52
 8024 0e6b 26000000 		.4byte	.LVL291
 8025 0e6f 2F000000 		.4byte	.LVL293-1
 8026 0e73 0500     		.2byte	0x5
 8027 0e75 03       		.byte	0x3
 8028 0e76 02000000 		.4byte	data+2
 8029 0e7a 2F000000 		.4byte	.LVL293-1
 8030 0e7e 94000000 		.4byte	.LFE61
 8031 0e82 0400     		.2byte	0x4
 8032 0e84 F3       		.byte	0xf3
 8033 0e85 01       		.uleb128 0x1
 8034 0e86 52       		.byte	0x52
 8035 0e87 9F       		.byte	0x9f
 8036 0e88 00000000 		.4byte	0
 8037 0e8c 00000000 		.4byte	0
 8038              	.LLST88:
 8039 0e90 00000000 		.4byte	.LVL296
 8040 0e94 2A000000 		.4byte	.LVL298
 8041 0e98 0100     		.2byte	0x1
 8042 0e9a 50       		.byte	0x50
 8043 0e9b 2A000000 		.4byte	.LVL298
 8044 0e9f 2F000000 		.4byte	.LVL300-1
 8045 0ea3 0500     		.2byte	0x5
 8046 0ea5 03       		.byte	0x3
 8047 0ea6 00000000 		.4byte	pID
 8048 0eaa 2F000000 		.4byte	.LVL300-1
 8049 0eae 94000000 		.4byte	.LFE62
 8050 0eb2 0400     		.2byte	0x4
 8051 0eb4 F3       		.byte	0xf3
 8052 0eb5 01       		.uleb128 0x1
 8053 0eb6 50       		.byte	0x50
 8054 0eb7 9F       		.byte	0x9f
 8055 0eb8 00000000 		.4byte	0
 8056 0ebc 00000000 		.4byte	0
 8057              	.LLST89:
 8058 0ec0 00000000 		.4byte	.LVL296
 8059 0ec4 2C000000 		.4byte	.LVL299
 8060 0ec8 0100     		.2byte	0x1
 8061 0eca 51       		.byte	0x51
 8062 0ecb 2C000000 		.4byte	.LVL299
 8063 0ecf 2F000000 		.4byte	.LVL300-1
 8064 0ed3 0500     		.2byte	0x5
 8065 0ed5 03       		.byte	0x3
 8066 0ed6 00000000 		.4byte	data
 8067 0eda 2F000000 		.4byte	.LVL300-1
 8068 0ede 94000000 		.4byte	.LFE62
ARM GAS  C:\Users\EDTRIC~1\AppData\Local\Temp\ccbcYoXT.s 			page 160


 8069 0ee2 0400     		.2byte	0x4
 8070 0ee4 F3       		.byte	0xf3
 8071 0ee5 01       		.uleb128 0x1
 8072 0ee6 51       		.byte	0x51
 8073 0ee7 9F       		.byte	0x9f
 8074 0ee8 00000000 		.4byte	0
 8075 0eec 00000000 		.4byte	0
 8076              	.LLST90:
 8077 0ef0 00000000 		.4byte	.LVL296
 8078 0ef4 24000000 		.4byte	.LVL297
 8079 0ef8 0100     		.2byte	0x1
 8080 0efa 52       		.byte	0x52
 8081 0efb 24000000 		.4byte	.LVL297
 8082 0eff 2F000000 		.4byte	.LVL300-1
 8083 0f03 0500     		.2byte	0x5
 8084 0f05 03       		.byte	0x3
 8085 0f06 02000000 		.4byte	data+2
 8086 0f0a 2F000000 		.4byte	.LVL300-1
 8087 0f0e 94000000 		.4byte	.LFE62
 8088 0f12 0400     		.2byte	0x4
 8089 0f14 F3       		.byte	0xf3
 8090 0f15 01       		.uleb128 0x1
 8091 0f16 52       		.byte	0x52
 8092 0f17 9F       		.byte	0x9f
 8093 0f18 00000000 		.4byte	0
 8094 0f1c 00000000 		.4byte	0
 8095              		.section	.debug_aranges,"",%progbits
 8096 0000 04010000 		.4byte	0x104
 8097 0004 0200     		.2byte	0x2
 8098 0006 00000000 		.4byte	.Ldebug_info0
 8099 000a 04       		.byte	0x4
 8100 000b 00       		.byte	0
 8101 000c 0000     		.2byte	0
 8102 000e 0000     		.2byte	0
 8103 0010 00000000 		.4byte	.LFB33
 8104 0014 0C000000 		.4byte	.LFE33-.LFB33
 8105 0018 00000000 		.4byte	.LFB34
 8106 001c 48000000 		.4byte	.LFE34-.LFB34
 8107 0020 00000000 		.4byte	.LFB35
 8108 0024 08000000 		.4byte	.LFE35-.LFB35
 8109 0028 00000000 		.4byte	.LFB36
 8110 002c 38000000 		.4byte	.LFE36-.LFB36
 8111 0030 00000000 		.4byte	.LFB37
 8112 0034 1A000000 		.4byte	.LFE37-.LFB37
 8113 0038 00000000 		.4byte	.LFB38
 8114 003c 70000000 		.4byte	.LFE38-.LFB38
 8115 0040 00000000 		.4byte	.LFB39
 8116 0044 2C000000 		.4byte	.LFE39-.LFB39
 8117 0048 00000000 		.4byte	.LFB41
 8118 004c EC000000 		.4byte	.LFE41-.LFB41
 8119 0050 00000000 		.4byte	.LFB42
 8120 0054 94000000 		.4byte	.LFE42-.LFB42
 8121 0058 00000000 		.4byte	.LFB43
 8122 005c 94000000 		.4byte	.LFE43-.LFB43
 8123 0060 00000000 		.4byte	.LFB44
 8124 0064 94000000 		.4byte	.LFE44-.LFB44
 8125 0068 00000000 		.4byte	.LFB45
ARM GAS  C:\Users\EDTRIC~1\AppData\Local\Temp\ccbcYoXT.s 			page 161


 8126 006c F4000000 		.4byte	.LFE45-.LFB45
 8127 0070 00000000 		.4byte	.LFB46
 8128 0074 90000000 		.4byte	.LFE46-.LFB46
 8129 0078 00000000 		.4byte	.LFB47
 8130 007c C4000000 		.4byte	.LFE47-.LFB47
 8131 0080 00000000 		.4byte	.LFB48
 8132 0084 9C000000 		.4byte	.LFE48-.LFB48
 8133 0088 00000000 		.4byte	.LFB49
 8134 008c 50000000 		.4byte	.LFE49-.LFB49
 8135 0090 00000000 		.4byte	.LFB50
 8136 0094 58000000 		.4byte	.LFE50-.LFB50
 8137 0098 00000000 		.4byte	.LFB51
 8138 009c 68000000 		.4byte	.LFE51-.LFB51
 8139 00a0 00000000 		.4byte	.LFB52
 8140 00a4 E0000000 		.4byte	.LFE52-.LFB52
 8141 00a8 00000000 		.4byte	.LFB53
 8142 00ac 14010000 		.4byte	.LFE53-.LFB53
 8143 00b0 00000000 		.4byte	.LFB54
 8144 00b4 2C000000 		.4byte	.LFE54-.LFB54
 8145 00b8 00000000 		.4byte	.LFB55
 8146 00bc 10010000 		.4byte	.LFE55-.LFB55
 8147 00c0 00000000 		.4byte	.LFB56
 8148 00c4 64000000 		.4byte	.LFE56-.LFB56
 8149 00c8 00000000 		.4byte	.LFB57
 8150 00cc 90000000 		.4byte	.LFE57-.LFB57
 8151 00d0 00000000 		.4byte	.LFB58
 8152 00d4 2C010000 		.4byte	.LFE58-.LFB58
 8153 00d8 00000000 		.4byte	.LFB59
 8154 00dc 60000000 		.4byte	.LFE59-.LFB59
 8155 00e0 00000000 		.4byte	.LFB40
 8156 00e4 78000000 		.4byte	.LFE40-.LFB40
 8157 00e8 00000000 		.4byte	.LFB60
 8158 00ec 48010000 		.4byte	.LFE60-.LFB60
 8159 00f0 00000000 		.4byte	.LFB61
 8160 00f4 94000000 		.4byte	.LFE61-.LFB61
 8161 00f8 00000000 		.4byte	.LFB62
 8162 00fc 94000000 		.4byte	.LFE62-.LFB62
 8163 0100 00000000 		.4byte	0
 8164 0104 00000000 		.4byte	0
 8165              		.section	.debug_ranges,"",%progbits
 8166              	.Ldebug_ranges0:
 8167 0000 00000000 		.4byte	.LFB33
 8168 0004 0C000000 		.4byte	.LFE33
 8169 0008 00000000 		.4byte	.LFB34
 8170 000c 48000000 		.4byte	.LFE34
 8171 0010 00000000 		.4byte	.LFB35
 8172 0014 08000000 		.4byte	.LFE35
 8173 0018 00000000 		.4byte	.LFB36
 8174 001c 38000000 		.4byte	.LFE36
 8175 0020 00000000 		.4byte	.LFB37
 8176 0024 1A000000 		.4byte	.LFE37
 8177 0028 00000000 		.4byte	.LFB38
 8178 002c 70000000 		.4byte	.LFE38
 8179 0030 00000000 		.4byte	.LFB39
 8180 0034 2C000000 		.4byte	.LFE39
 8181 0038 00000000 		.4byte	.LFB41
 8182 003c EC000000 		.4byte	.LFE41
ARM GAS  C:\Users\EDTRIC~1\AppData\Local\Temp\ccbcYoXT.s 			page 162


 8183 0040 00000000 		.4byte	.LFB42
 8184 0044 94000000 		.4byte	.LFE42
 8185 0048 00000000 		.4byte	.LFB43
 8186 004c 94000000 		.4byte	.LFE43
 8187 0050 00000000 		.4byte	.LFB44
 8188 0054 94000000 		.4byte	.LFE44
 8189 0058 00000000 		.4byte	.LFB45
 8190 005c F4000000 		.4byte	.LFE45
 8191 0060 00000000 		.4byte	.LFB46
 8192 0064 90000000 		.4byte	.LFE46
 8193 0068 00000000 		.4byte	.LFB47
 8194 006c C4000000 		.4byte	.LFE47
 8195 0070 00000000 		.4byte	.LFB48
 8196 0074 9C000000 		.4byte	.LFE48
 8197 0078 00000000 		.4byte	.LFB49
 8198 007c 50000000 		.4byte	.LFE49
 8199 0080 00000000 		.4byte	.LFB50
 8200 0084 58000000 		.4byte	.LFE50
 8201 0088 00000000 		.4byte	.LFB51
 8202 008c 68000000 		.4byte	.LFE51
 8203 0090 00000000 		.4byte	.LFB52
 8204 0094 E0000000 		.4byte	.LFE52
 8205 0098 00000000 		.4byte	.LFB53
 8206 009c 14010000 		.4byte	.LFE53
 8207 00a0 00000000 		.4byte	.LFB54
 8208 00a4 2C000000 		.4byte	.LFE54
 8209 00a8 00000000 		.4byte	.LFB55
 8210 00ac 10010000 		.4byte	.LFE55
 8211 00b0 00000000 		.4byte	.LFB56
 8212 00b4 64000000 		.4byte	.LFE56
 8213 00b8 00000000 		.4byte	.LFB57
 8214 00bc 90000000 		.4byte	.LFE57
 8215 00c0 00000000 		.4byte	.LFB58
 8216 00c4 2C010000 		.4byte	.LFE58
 8217 00c8 00000000 		.4byte	.LFB59
 8218 00cc 60000000 		.4byte	.LFE59
 8219 00d0 00000000 		.4byte	.LFB40
 8220 00d4 78000000 		.4byte	.LFE40
 8221 00d8 00000000 		.4byte	.LFB60
 8222 00dc 48010000 		.4byte	.LFE60
 8223 00e0 00000000 		.4byte	.LFB61
 8224 00e4 94000000 		.4byte	.LFE61
 8225 00e8 00000000 		.4byte	.LFB62
 8226 00ec 94000000 		.4byte	.LFE62
 8227 00f0 00000000 		.4byte	0
 8228 00f4 00000000 		.4byte	0
 8229              		.section	.debug_line,"",%progbits
 8230              	.Ldebug_line0:
 8231 0000 E7050000 		.section	.debug_str,"MS",%progbits,1
 8231      0200F400 
 8231      00000201 
 8231      FB0E0D00 
 8231      01010101 
 8232              	.LASF73:
 8233 0000 53657276 		.ascii	"Servo_initialize\000"
 8233      6F5F696E 
 8233      69746961 
ARM GAS  C:\Users\EDTRIC~1\AppData\Local\Temp\ccbcYoXT.s 			page 163


 8233      6C697A65 
 8233      00
 8234              	.LASF21:
 8235 0011 7072696E 		.ascii	"printHexByte\000"
 8235      74486578 
 8235      42797465 
 8235      00
 8236              	.LASF12:
 8237 001e 646F7562 		.ascii	"double\000"
 8237      6C6500
 8238              	.LASF28:
 8239 0025 62656769 		.ascii	"beginsave\000"
 8239      6E736176 
 8239      6500
 8240              	.LASF23:
 8241 002f 73656E64 		.ascii	"sendData\000"
 8241      44617461 
 8241      00
 8242              	.LASF76:
 8243 0038 61646472 		.ascii	"address\000"
 8243      65737300 
 8244              	.LASF3:
 8245 0040 73686F72 		.ascii	"short int\000"
 8245      7420696E 
 8245      7400
 8246              	.LASF101:
 8247 004a 2E5C6865 		.ascii	".\\herkulex2.c\000"
 8247      726B756C 
 8247      6578322E 
 8247      6300
 8248              	.LASF100:
 8249 0058 474E5520 		.ascii	"GNU C 4.8.4 20140526 (release) [ARM/embedded-4_8-br"
 8249      4320342E 
 8249      382E3420 
 8249      32303134 
 8249      30353236 
 8250 008b 616E6368 		.ascii	"anch revision 211358] -mcpu=cortex-m0 -mthumb -g -O"
 8250      20726576 
 8250      6973696F 
 8250      6E203231 
 8250      31333538 
 8251 00be 67202D66 		.ascii	"g -ffunction-sections\000"
 8251      66756E63 
 8251      74696F6E 
 8251      2D736563 
 8251      74696F6E 
 8252              	.LASF37:
 8253 00d4 53657276 		.ascii	"Servo_torqueOFF\000"
 8253      6F5F746F 
 8253      72717565 
 8253      4F464600 
 8254              	.LASF18:
 8255 00e4 63686563 		.ascii	"checksum1\000"
 8255      6B73756D 
 8255      3100
 8256              	.LASF19:
 8257 00ee 63686563 		.ascii	"checksum2\000"
ARM GAS  C:\Users\EDTRIC~1\AppData\Local\Temp\ccbcYoXT.s 			page 164


 8257      6B73756D 
 8257      3200
 8258              	.LASF64:
 8259 00f8 53657276 		.ascii	"Servo_getPosition\000"
 8259      6F5F6765 
 8259      74506F73 
 8259      6974696F 
 8259      6E00
 8260              	.LASF42:
 8261 010a 6F6C6449 		.ascii	"oldID\000"
 8261      4400
 8262              	.LASF17:
 8263 0110 6C656E67 		.ascii	"lengthString\000"
 8263      74685374 
 8263      72696E67 
 8263      00
 8264              	.LASF87:
 8265 011d 636F6E74 		.ascii	"conta\000"
 8265      6100
 8266              	.LASF66:
 8267 0123 53657276 		.ascii	"Servo_getSpeed\000"
 8267      6F5F6765 
 8267      74537065 
 8267      656400
 8268              	.LASF45:
 8269 0132 53657276 		.ascii	"Servo_clearError\000"
 8269      6F5F636C 
 8269      65617245 
 8269      72726F72 
 8269      00
 8270              	.LASF48:
 8271 0143 6D6F6465 		.ascii	"mode\000"
 8271      00
 8272              	.LASF34:
 8273 0148 73657276 		.ascii	"servoID\000"
 8273      6F494400 
 8274              	.LASF52:
 8275 0150 626C7565 		.ascii	"blue\000"
 8275      00
 8276              	.LASF74:
 8277 0155 53657276 		.ascii	"Servo_moveSpeedOne\000"
 8277      6F5F6D6F 
 8277      76655370 
 8277      6565644F 
 8277      6E6500
 8278              	.LASF40:
 8279 0168 53657276 		.ascii	"Servo_model\000"
 8279      6F5F6D6F 
 8279      64656C00 
 8280              	.LASF85:
 8281 0174 4C45445F 		.ascii	"LED_WHITE\000"
 8281      57484954 
 8281      4500
 8282              	.LASF78:
 8283 017e 53657276 		.ascii	"Servo_writeRegistryEEP\000"
 8283      6F5F7772 
 8283      69746552 
ARM GAS  C:\Users\EDTRIC~1\AppData\Local\Temp\ccbcYoXT.s 			page 165


 8283      65676973 
 8283      74727945 
 8284              	.LASF70:
 8285 0195 4C45445F 		.ascii	"LED_Value\000"
 8285      56616C75 
 8285      6500
 8286              	.LASF97:
 8287 019f 55415254 		.ascii	"UART_UartGetByte\000"
 8287      5F556172 
 8287      74476574 
 8287      42797465 
 8287      00
 8288              	.LASF98:
 8289 01b0 55415254 		.ascii	"UART_SpiUartGetRxBufferSize\000"
 8289      5F537069 
 8289      55617274 
 8289      47657452 
 8289      78427566 
 8290              	.LASF31:
 8291 01cc 61646444 		.ascii	"addData\000"
 8291      61746100 
 8292              	.LASF25:
 8293 01d4 6C656E67 		.ascii	"length\000"
 8293      746800
 8294              	.LASF0:
 8295 01db 666C6F61 		.ascii	"float\000"
 8295      7400
 8296              	.LASF26:
 8297 01e1 72656164 		.ascii	"readData\000"
 8297      44617461 
 8297      00
 8298              	.LASF57:
 8299 01ea 53657276 		.ascii	"Servo_moveSpeedAll\000"
 8299      6F5F6D6F 
 8299      76655370 
 8299      65656441 
 8299      6C6C00
 8300              	.LASF7:
 8301 01fd 6C6F6E67 		.ascii	"long long int\000"
 8301      206C6F6E 
 8301      6720696E 
 8301      7400
 8302              	.LASF83:
 8303 020b 4C45445F 		.ascii	"LED_GREEN2\000"
 8303      47524545 
 8303      4E3200
 8304              	.LASF59:
 8305 0216 73706565 		.ascii	"speedGoalLSB\000"
 8305      64476F61 
 8305      6C4C5342 
 8305      00
 8306              	.LASF80:
 8307 0223 4C45445F 		.ascii	"LED_BLUE\000"
 8307      424C5545 
 8307      00
 8308              	.LASF41:
 8309 022c 53657276 		.ascii	"Servo_setID\000"
ARM GAS  C:\Users\EDTRIC~1\AppData\Local\Temp\ccbcYoXT.s 			page 166


 8309      6F5F7365 
 8309      74494400 
 8310              	.LASF58:
 8311 0238 676F616C 		.ascii	"goalSpeedSign\000"
 8311      53706565 
 8311      64536967 
 8311      6E00
 8312              	.LASF30:
 8313 0246 72656342 		.ascii	"recByte\000"
 8313      79746500 
 8314              	.LASF89:
 8315 024e 64617461 		.ascii	"dataEx\000"
 8315      457800
 8316              	.LASF35:
 8317 0255 53657276 		.ascii	"Servo_status\000"
 8317      6F5F7374 
 8317      61747573 
 8317      00
 8318              	.LASF82:
 8319 0262 4C45445F 		.ascii	"LED_RED\000"
 8319      52454400 
 8320              	.LASF36:
 8321 026a 53657276 		.ascii	"Servo_torqueON\000"
 8321      6F5F746F 
 8321      72717565 
 8321      4F4E00
 8322              	.LASF53:
 8323 0279 67726565 		.ascii	"green\000"
 8323      6E00
 8324              	.LASF29:
 8325 027f 74696D65 		.ascii	"timeCounter\000"
 8325      436F756E 
 8325      74657200 
 8326              	.LASF22:
 8327 028b 62797465 		.ascii	"byte\000"
 8327      00
 8328              	.LASF91:
 8329 0290 55415254 		.ascii	"UART_SpiUartClearTxBuffer\000"
 8329      5F537069 
 8329      55617274 
 8329      436C6561 
 8329      72547842 
 8330              	.LASF92:
 8331 02aa 55415254 		.ascii	"UART_SpiUartClearRxBuffer\000"
 8331      5F537069 
 8331      55617274 
 8331      436C6561 
 8331      72527842 
 8332              	.LASF43:
 8333 02c4 6E657749 		.ascii	"newID\000"
 8333      4400
 8334              	.LASF56:
 8335 02ca 706F7369 		.ascii	"position\000"
 8335      74696F6E 
 8335      00
 8336              	.LASF103:
 8337 02d3 73707269 		.ascii	"sprintf\000"
ARM GAS  C:\Users\EDTRIC~1\AppData\Local\Temp\ccbcYoXT.s 			page 167


 8337      6E746600 
 8338              	.LASF102:
 8339 02db 433A5C55 		.ascii	"C:\\Users\\edtriccorp\\Documents\\PSoC Creator\\Her"
 8339      73657273 
 8339      5C656474 
 8339      72696363 
 8339      6F72705C 
 8340 0309 6B756C65 		.ascii	"kulexOpenHouse\\HerkulexOpenHouse.cydsn\000"
 8340      784F7065 
 8340      6E486F75 
 8340      73655C48 
 8340      65726B75 
 8341              	.LASF84:
 8342 0330 4C45445F 		.ascii	"LED_PINK\000"
 8342      50494E4B 
 8342      00
 8343              	.LASF2:
 8344 0339 756E7369 		.ascii	"unsigned char\000"
 8344      676E6564 
 8344      20636861 
 8344      7200
 8345              	.LASF62:
 8346 0347 53657276 		.ascii	"Servo_actionAll\000"
 8346      6F5F6163 
 8346      74696F6E 
 8346      416C6C00 
 8347              	.LASF1:
 8348 0357 7369676E 		.ascii	"signed char\000"
 8348      65642063 
 8348      68617200 
 8349              	.LASF8:
 8350 0363 6C6F6E67 		.ascii	"long long unsigned int\000"
 8350      206C6F6E 
 8350      6720756E 
 8350      7369676E 
 8350      65642069 
 8351              	.LASF93:
 8352 037a 55415254 		.ascii	"UART_UartPutString\000"
 8352      5F556172 
 8352      74507574 
 8352      53747269 
 8352      6E6700
 8353              	.LASF9:
 8354 038d 756E7369 		.ascii	"unsigned int\000"
 8354      676E6564 
 8354      20696E74 
 8354      00
 8355              	.LASF38:
 8356 039a 53657276 		.ascii	"Servo_ACK\000"
 8356      6F5F4143 
 8356      4B00
 8357              	.LASF67:
 8358 03a4 73706565 		.ascii	"speed\000"
 8358      6400
 8359              	.LASF63:
 8360 03aa 74696D65 		.ascii	"time\000"
 8360      00
ARM GAS  C:\Users\EDTRIC~1\AppData\Local\Temp\ccbcYoXT.s 			page 168


 8361              	.LASF77:
 8362 03af 77726974 		.ascii	"writeByte\000"
 8362      65427974 
 8362      6500
 8363              	.LASF88:
 8364 03b9 706C6179 		.ascii	"playTime\000"
 8364      54696D65 
 8364      00
 8365              	.LASF49:
 8366 03c2 73746F70 		.ascii	"stop\000"
 8366      00
 8367              	.LASF14:
 8368 03c7 63686172 		.ascii	"char\000"
 8368      00
 8369              	.LASF61:
 8370 03cc 73657456 		.ascii	"setValue\000"
 8370      616C7565 
 8370      00
 8371              	.LASF5:
 8372 03d5 6C6F6E67 		.ascii	"long int\000"
 8372      20696E74 
 8372      00
 8373              	.LASF75:
 8374 03de 53657276 		.ascii	"Servo_writeRegistryRAM\000"
 8374      6F5F7772 
 8374      69746552 
 8374      65676973 
 8374      74727952 
 8375              	.LASF99:
 8376 03f5 55415254 		.ascii	"UART_Start\000"
 8376      5F537461 
 8376      727400
 8377              	.LASF13:
 8378 0400 63686172 		.ascii	"char8\000"
 8378      3800
 8379              	.LASF4:
 8380 0406 73686F72 		.ascii	"short unsigned int\000"
 8380      7420756E 
 8380      7369676E 
 8380      65642069 
 8380      6E7400
 8381              	.LASF69:
 8382 0419 53657276 		.ascii	"Servo_setLED\000"
 8382      6F5F7365 
 8382      744C4544 
 8382      00
 8383              	.LASF10:
 8384 0426 75696E74 		.ascii	"uint8\000"
 8384      3800
 8385              	.LASF79:
 8386 042c 4C45445F 		.ascii	"LED_GREEN\000"
 8386      47524545 
 8386      4E00
 8387              	.LASF16:
 8388 0436 64617461 		.ascii	"data\000"
 8388      00
 8389              	.LASF90:
ARM GAS  C:\Users\EDTRIC~1\AppData\Local\Temp\ccbcYoXT.s 			page 169


 8390 043b 6D6F7665 		.ascii	"moveData\000"
 8390      44617461 
 8390      00
 8391              	.LASF24:
 8392 0444 62756666 		.ascii	"buffer\000"
 8392      657200
 8393              	.LASF86:
 8394 044b 7053697A 		.ascii	"pSize\000"
 8394      6500
 8395              	.LASF6:
 8396 0451 6C6F6E67 		.ascii	"long unsigned int\000"
 8396      20756E73 
 8396      69676E65 
 8396      6420696E 
 8396      7400
 8397              	.LASF44:
 8398 0463 53657276 		.ascii	"Servo_resetID\000"
 8398      6F5F7265 
 8398      73657449 
 8398      4400
 8399              	.LASF11:
 8400 0471 75696E74 		.ascii	"uint32\000"
 8400      333200
 8401              	.LASF94:
 8402 0478 55415254 		.ascii	"UART_SpiUartWriteTxData\000"
 8402      5F537069 
 8402      55617274 
 8402      57726974 
 8402      65547844 
 8403              	.LASF51:
 8404 0490 706F734D 		.ascii	"posMSB\000"
 8404      534200
 8405              	.LASF95:
 8406 0497 55415254 		.ascii	"UART_SpiUartPutArray\000"
 8406      5F537069 
 8406      55617274 
 8406      50757441 
 8406      72726179 
 8407              	.LASF27:
 8408 04ac 73697A65 		.ascii	"size\000"
 8408      00
 8409              	.LASF65:
 8410 04b1 53657276 		.ascii	"Servo_getAngle\000"
 8410      6F5F6765 
 8410      74416E67 
 8410      6C6500
 8411              	.LASF81:
 8412 04c0 4C45445F 		.ascii	"LED_CYAN\000"
 8412      4359414E 
 8412      00
 8413              	.LASF71:
 8414 04c9 53657276 		.ascii	"Servo_moveOne\000"
 8414      6F5F6D6F 
 8414      76654F6E 
 8414      6500
 8415              	.LASF60:
 8416 04d7 73706565 		.ascii	"speedGoalMSB\000"
ARM GAS  C:\Users\EDTRIC~1\AppData\Local\Temp\ccbcYoXT.s 			page 170


 8416      64476F61 
 8416      6C4D5342 
 8416      00
 8417              	.LASF47:
 8418 04e4 676F616C 		.ascii	"goal\000"
 8418      00
 8419              	.LASF15:
 8420 04e9 73697A65 		.ascii	"sizetype\000"
 8420      74797065 
 8420      00
 8421              	.LASF55:
 8422 04f2 616E676C 		.ascii	"angle\000"
 8422      6500
 8423              	.LASF68:
 8424 04f8 53657276 		.ascii	"Servo_reboot\000"
 8424      6F5F7265 
 8424      626F6F74 
 8424      00
 8425              	.LASF33:
 8426 0505 676F616C 		.ascii	"goalMSB\000"
 8426      4D534200 
 8427              	.LASF20:
 8428 050d 636C6561 		.ascii	"clearBuffer\000"
 8428      72427566 
 8428      66657200 
 8429              	.LASF72:
 8430 0519 53657276 		.ascii	"Servo_moveOneAngle\000"
 8430      6F5F6D6F 
 8430      76654F6E 
 8430      65416E67 
 8430      6C6500
 8431              	.LASF46:
 8432 052c 53657276 		.ascii	"Servo_moveAll\000"
 8432      6F5F6D6F 
 8432      7665416C 
 8432      6C00
 8433              	.LASF96:
 8434 053a 43794465 		.ascii	"CyDelay\000"
 8434      6C617900 
 8435              	.LASF50:
 8436 0542 706F734C 		.ascii	"posLSB\000"
 8436      534200
 8437              	.LASF54:
 8438 0549 53657276 		.ascii	"Servo_moveAllAngle\000"
 8438      6F5F6D6F 
 8438      7665416C 
 8438      6C416E67 
 8438      6C6500
 8439              	.LASF32:
 8440 055c 676F616C 		.ascii	"goalLSB\000"
 8440      4C534200 
 8441              	.LASF39:
 8442 0564 76616C75 		.ascii	"valueACK\000"
 8442      6541434B 
 8442      00
 8443              		.ident	"GCC: (GNU Tools for ARM Embedded Processors) 4.8.4 20140526 (release) [ARM/embedded-4_8-br
